
Car2X_nanoMotorCtrl.elf:     file format elf32-littlenios2
Car2X_nanoMotorCtrl.elf
architecture: nios2, flags 0x00000112:
EXEC_P, HAS_SYMS, D_PAGED
start address 0x020001b8

Program Header:
    LOAD off    0x00001000 vaddr 0x02000000 paddr 0x02000000 align 2**12
         filesz 0x00000020 memsz 0x00000020 flags r-x
    LOAD off    0x00001020 vaddr 0x02000020 paddr 0x02000020 align 2**12
         filesz 0x0001c080 memsz 0x0001c080 flags r-x
    LOAD off    0x0001d0a0 vaddr 0x0201c0a0 paddr 0x0201dc28 align 2**12
         filesz 0x00001b88 memsz 0x00001b88 flags rw-
    LOAD off    0x0001f7b0 vaddr 0x0201f7b0 paddr 0x0201f7b0 align 2**12
         filesz 0x00000000 memsz 0x00000b3c flags rw-

Sections:
Idx Name          Size      VMA       LMA       File off  Algn
  0 .entry        00000020  02000000  02000000  00001000  2**5
                  CONTENTS, ALLOC, LOAD, READONLY, CODE
  1 .exceptions   00000198  02000020  02000020  00001020  2**2
                  CONTENTS, ALLOC, LOAD, READONLY, CODE
  2 .text         0001b674  020001b8  020001b8  000011b8  2**2
                  CONTENTS, ALLOC, LOAD, READONLY, CODE
  3 .rodata       00000874  0201b82c  0201b82c  0001c82c  2**2
                  CONTENTS, ALLOC, LOAD, READONLY, DATA
  4 .rwdata       00001b88  0201c0a0  0201dc28  0001d0a0  2**2
                  CONTENTS, ALLOC, LOAD, DATA, SMALL_DATA
  5 .bss          00000b3c  0201f7b0  0201f7b0  0001f7b0  2**2
                  ALLOC, SMALL_DATA
  6 .comment      00000026  00000000  00000000  0001ec28  2**0
                  CONTENTS, READONLY
  7 .debug_aranges 00001320  00000000  00000000  0001ec50  2**3
                  CONTENTS, READONLY, DEBUGGING
  8 .debug_pubnames 00004518  00000000  00000000  0001ff70  2**0
                  CONTENTS, READONLY, DEBUGGING
  9 .debug_info   0003ef35  00000000  00000000  00024488  2**0
                  CONTENTS, READONLY, DEBUGGING
 10 .debug_abbrev 0000e1ca  00000000  00000000  000633bd  2**0
                  CONTENTS, READONLY, DEBUGGING
 11 .debug_line   0002069c  00000000  00000000  00071587  2**0
                  CONTENTS, READONLY, DEBUGGING
 12 .debug_frame  0000436c  00000000  00000000  00091c24  2**2
                  CONTENTS, READONLY, DEBUGGING
 13 .debug_str    000047f4  00000000  00000000  00095f90  2**0
                  CONTENTS, READONLY, DEBUGGING
 14 .debug_loc    00011b1d  00000000  00000000  0009a784  2**0
                  CONTENTS, READONLY, DEBUGGING
 15 .debug_alt_sim_info 00000040  00000000  00000000  000ac2a4  2**2
                  CONTENTS, READONLY, DEBUGGING
 16 .debug_ranges 00000e10  00000000  00000000  000ac2e8  2**3
                  CONTENTS, READONLY, DEBUGGING
 17 .thread_model 00000003  00000000  00000000  000b53b3  2**0
                  CONTENTS, READONLY
 18 .cpu          00000003  00000000  00000000  000b53b6  2**0
                  CONTENTS, READONLY
 19 .simulation_enabled 00000001  00000000  00000000  000b53b9  2**0
                  CONTENTS, READONLY
 20 .sysid_hash   00000004  00000000  00000000  000b53ba  2**0
                  CONTENTS, READONLY
 21 .sysid_base   00000004  00000000  00000000  000b53be  2**0
                  CONTENTS, READONLY
 22 .sysid_time   00000004  00000000  00000000  000b53c2  2**0
                  CONTENTS, READONLY
 23 .stderr_dev   00000009  00000000  00000000  000b53c6  2**0
                  CONTENTS, READONLY
 24 .stdin_dev    00000009  00000000  00000000  000b53cf  2**0
                  CONTENTS, READONLY
 25 .stdout_dev   00000009  00000000  00000000  000b53d8  2**0
                  CONTENTS, READONLY
 26 .sopc_system_name 0000000d  00000000  00000000  000b53e1  2**0
                  CONTENTS, READONLY
 27 .quartus_project_dir 00000052  00000000  00000000  000b53ee  2**0
                  CONTENTS, READONLY
 28 .jdi          0000b10d  00000000  00000000  000b5440  2**0
                  CONTENTS, READONLY
 29 .sopcinfo     000b562c  00000000  00000000  000c054d  2**0
                  CONTENTS, READONLY
SYMBOL TABLE:
02000000 l    d  .entry	00000000 .entry
02000020 l    d  .exceptions	00000000 .exceptions
020001b8 l    d  .text	00000000 .text
0201b82c l    d  .rodata	00000000 .rodata
0201c0a0 l    d  .rwdata	00000000 .rwdata
0201f7b0 l    d  .bss	00000000 .bss
00000000 l    d  .comment	00000000 .comment
00000000 l    d  .debug_aranges	00000000 .debug_aranges
00000000 l    d  .debug_pubnames	00000000 .debug_pubnames
00000000 l    d  .debug_info	00000000 .debug_info
00000000 l    d  .debug_abbrev	00000000 .debug_abbrev
00000000 l    d  .debug_line	00000000 .debug_line
00000000 l    d  .debug_frame	00000000 .debug_frame
00000000 l    d  .debug_str	00000000 .debug_str
00000000 l    d  .debug_loc	00000000 .debug_loc
00000000 l    d  .debug_alt_sim_info	00000000 .debug_alt_sim_info
00000000 l    d  .debug_ranges	00000000 .debug_ranges
020001f0 l       .text	00000000 alt_after_alt_main
00000000 l    df *ABS*	00000000 alt_irq_handler.c
00000000 l    df *ABS*	00000000 utility.cpp
00000000 l    df *ABS*	00000000 accelerometer_interface.cpp
00000000 l    df *ABS*	00000000 adc_interface.cpp
00000000 l    df *ABS*	00000000 eth_uart.cpp
00000000 l    df *ABS*	00000000 motor_pwm.cpp
00000000 l    df *ABS*	00000000 ultrasound_interface.cpp
00000000 l    df *ABS*	00000000 main.cpp
0201f81c l     O .bss	00000018 alarm
00000000 l    df *ABS*	00000000 pidcontroller.cpp
00000000 l    df *ABS*	00000000 I2C.cpp
00000000 l    df *ABS*	00000000 accelerometer_adxl345_spi.cpp
00000000 l    df *ABS*	00000000 adc_spi_read.cpp
00000000 l    df *ABS*	00000000 terasic_spi.cpp
00000000 l    df *ABS*	00000000 ADCInfoMessage.cpp
00000000 l    df *ABS*	00000000 ADCValuesMessage.cpp
00000000 l    df *ABS*	00000000 AccelerationValuesMessage.cpp
00000000 l    df *ABS*	00000000 CControlMessage.cpp
00000000 l    df *ABS*	00000000 CEmergencyBrakeMessage.cpp
00000000 l    df *ABS*	00000000 CInfoSensorMessage.cpp
00000000 l    df *ABS*	00000000 CInfoStateMessage.cpp
00000000 l    df *ABS*	00000000 CRemoteControlMessage.cpp
00000000 l    df *ABS*	00000000 CarMessage.cpp
00000000 l    df *ABS*	00000000 CarProtocol.cpp
00000000 l    df *ABS*	00000000 MotorMeasurementMessage.cpp
00000000 l    df *ABS*	00000000 MotorVelocityMessage.cpp
00000000 l    df *ABS*	00000000 UltrasoundDistanceMessage.cpp
00000000 l    df *ABS*	00000000 WelcomeMessage.cpp
00000000 l    df *ABS*	00000000 class_type_info.cc
00000000 l    df *ABS*	00000000 eh_personality.cc
0200b25c l     F .text	00000030 _Z12read_uleb128PKhPj
0200b28c l     F .text	00000054 _Z12read_sleb128PKhPi
0200b2e0 l     F .text	0000009c _Z16get_adjusted_ptrPKSt9type_infoS1_PPv
0200b37c l     F .text	000001d4 _Z28read_encoded_value_with_basehjPKhPj
0200b550 l     F .text	00000090 _Z21base_of_encoded_valuehP15_Unwind_Context
0200b5e0 l     F .text	00000100 _Z17parse_lsda_headerP15_Unwind_ContextPKhP16lsda_header_info
0200b6e0 l     F .text	00000084 _Z15get_ttype_entryP16lsda_header_infoj
0200b764 l     F .text	00000084 _Z20check_exception_specP16lsda_header_infoPKSt9type_infoPvi
00000000 l    df *ABS*	00000000 eh_terminate.cc
00000000 l    df *ABS*	00000000 eh_term_handler.cc
00000000 l    df *ABS*	00000000 eh_catch.cc
00000000 l    df *ABS*	00000000 del_op.cc
00000000 l    df *ABS*	00000000 eh_throw.cc
0200c22c l     F .text	00000060 _Z23__gxx_exception_cleanup19_Unwind_Reason_CodeP17_Unwind_Exception
00000000 l    df *ABS*	00000000 si_class_type_info.cc
00000000 l    df *ABS*	00000000 tinfo.cc
00000000 l    df *ABS*	00000000 eh_alloc.cc
0201f834 l     O .bss	00000800 emergency_buffer
0201f7d4 l     O .bss	00000004 emergency_used
00000000 l    df *ABS*	00000000 new_op.cc
00000000 l    df *ABS*	00000000 eh_exception.cc
00000000 l    df *ABS*	00000000 eh_call.cc
00000000 l    df *ABS*	00000000 new_handler.cc
00000000 l    df *ABS*	00000000 eh_globals.cc
0201f7dc l     O .bss	00000008 eh_globals
00000000 l    df *ABS*	00000000 eh_unex_handler.cc
00000000 l    df *ABS*	00000000 libgcc2.c
00000000 l    df *ABS*	00000000 lib2-divmod.c
0200cf80 l     F .text	0000007c udivmodsi4
00000000 l    df *ABS*	00000000 lib2-mul.c
00000000 l    df *ABS*	00000000 unwind-sjlj.c
0201f7e4 l     O .bss	00000004 fc_static
0200d1c4 l     F .text	00000100 _Unwind_ForcedUnwind_Phase2
0200d2dc l     F .text	000000cc _Unwind_RaiseException_Phase2
0200d3a8 l     F .text	00000028 uw_install_context
00000000 l    df *ABS*	00000000 libgcc2.c
00000000 l    df *ABS*	00000000 abort.c
00000000 l    df *ABS*	00000000 malloc.c
00000000 l    df *ABS*	00000000 mallocr.c
00000000 l    df *ABS*	00000000 memset.c
00000000 l    df *ABS*	00000000 printf.c
00000000 l    df *ABS*	00000000 puts.c
00000000 l    df *ABS*	00000000 sbrkr.c
00000000 l    df *ABS*	00000000 signal.c
00000000 l    df *ABS*	00000000 signalr.c
00000000 l    df *ABS*	00000000 strlen.c
00000000 l    df *ABS*	00000000 vfprintf.c
0200e3c4 l     F .text	00000058 __sprint_r
0201bebe l     O .rodata	00000010 blanks.3452
0201beae l     O .rodata	00000010 zeroes.3453
00000000 l    df *ABS*	00000000 wsetup.c
00000000 l    df *ABS*	00000000 dtoa.c
02010440 l     F .text	00000244 quorem
00000000 l    df *ABS*	00000000 fflush.c
00000000 l    df *ABS*	00000000 findfp.c
02011e68 l     F .text	00000058 std
02011f74 l     F .text	00000008 __fp_lock
02011f7c l     F .text	00000008 __fp_unlock
00000000 l    df *ABS*	00000000 mallocr.c
00000000 l    df *ABS*	00000000 fvwrite.c
00000000 l    df *ABS*	00000000 fwalk.c
00000000 l    df *ABS*	00000000 impure.c
0201c4a8 l     O .rwdata	00000400 impure_data
00000000 l    df *ABS*	00000000 int_errno.c
00000000 l    df *ABS*	00000000 locale.c
0201dbf4 l     O .rwdata	00000004 charset
0201bef4 l     O .rodata	00000030 lconv
00000000 l    df *ABS*	00000000 makebuf.c
00000000 l    df *ABS*	00000000 memchr.c
00000000 l    df *ABS*	00000000 memcpy.c
00000000 l    df *ABS*	00000000 memmove.c
00000000 l    df *ABS*	00000000 mprec.c
0201c03c l     O .rodata	0000000c p05.2458
00000000 l    df *ABS*	00000000 mallocr.c
00000000 l    df *ABS*	00000000 s_isinfd.c
00000000 l    df *ABS*	00000000 s_isnand.c
00000000 l    df *ABS*	00000000 stdio.c
00000000 l    df *ABS*	00000000 strcmp.c
00000000 l    df *ABS*	00000000 writer.c
00000000 l    df *ABS*	00000000 mallocr.c
00000000 l    df *ABS*	00000000 closer.c
00000000 l    df *ABS*	00000000 fclose.c
00000000 l    df *ABS*	00000000 fstatr.c
00000000 l    df *ABS*	00000000 isattyr.c
00000000 l    df *ABS*	00000000 lseekr.c
00000000 l    df *ABS*	00000000 readr.c
00000000 l    df *ABS*	00000000 libgcc2.c
00000000 l    df *ABS*	00000000 libgcc2.c
00000000 l    df *ABS*	00000000 dp-bit.c
02015ae0 l     F .text	00000410 _fpadd_parts
00000000 l    df *ABS*	00000000 dp-bit.c
00000000 l    df *ABS*	00000000 dp-bit.c
00000000 l    df *ABS*	00000000 dp-bit.c
00000000 l    df *ABS*	00000000 dp-bit.c
00000000 l    df *ABS*	00000000 dp-bit.c
00000000 l    df *ABS*	00000000 dp-bit.c
00000000 l    df *ABS*	00000000 dp-bit.c
00000000 l    df *ABS*	00000000 dp-bit.c
00000000 l    df *ABS*	00000000 dp-bit.c
00000000 l    df *ABS*	00000000 dp-bit.c
00000000 l    df *ABS*	00000000 dp-bit.c
00000000 l    df *ABS*	00000000 libgcc2.c
00000000 l    df *ABS*	00000000 libgcc2.c
00000000 l    df *ABS*	00000000 dp-bit.c
00000000 l    df *ABS*	00000000 dp-bit.c
00000000 l    df *ABS*	00000000 dp-bit.c
00000000 l    df *ABS*	00000000 alt_alarm_start.c
00000000 l    df *ABS*	00000000 alt_close.c
02017518 l     F .text	00000060 alt_get_errno
00000000 l    df *ABS*	00000000 alt_dev.c
02017578 l     F .text	0000002c alt_dev_null_write
00000000 l    df *ABS*	00000000 alt_errno.c
00000000 l    df *ABS*	00000000 alt_exit.c
020175a4 l     F .text	00000040 alt_sim_halt
00000000 l    df *ABS*	00000000 alt_fstat.c
020176dc l     F .text	00000060 alt_get_errno
00000000 l    df *ABS*	00000000 alt_getpid.c
00000000 l    df *ABS*	00000000 alt_isatty.c
02017820 l     F .text	00000060 alt_get_errno
00000000 l    df *ABS*	00000000 alt_kill.c
020179c0 l     F .text	00000060 alt_get_errno
00000000 l    df *ABS*	00000000 alt_load.c
02017aa0 l     F .text	0000006c alt_load_section
00000000 l    df *ABS*	00000000 alt_lseek.c
02017c00 l     F .text	00000060 alt_get_errno
00000000 l    df *ABS*	00000000 alt_main.c
00000000 l    df *ABS*	00000000 alt_malloc_lock.c
00000000 l    df *ABS*	00000000 alt_read.c
02017e30 l     F .text	00000060 alt_get_errno
00000000 l    df *ABS*	00000000 alt_release_fd.c
00000000 l    df *ABS*	00000000 alt_sbrk.c
0201dc10 l     O .rwdata	00000004 heap_end
00000000 l    df *ABS*	00000000 alt_tick.c
00000000 l    df *ABS*	00000000 alt_usleep.c
00000000 l    df *ABS*	00000000 alt_write.c
020182bc l     F .text	00000060 alt_get_errno
00000000 l    df *ABS*	00000000 alt_sys_init.c
0201ca5c l     O .rwdata	000000c8 epcs
0201cb24 l     O .rwdata	00001060 jtag_uart
0201db84 l     O .rwdata	0000002c uart_0
020183c0 l     F .text	00000038 alt_dev_reg
00000000 l    df *ABS*	00000000 altera_avalon_epcs_flash_controller.c
02018484 l     F .text	00000288 alt_epcs_flash_query
0201844c l     F .text	00000038 alt_flash_device_register
0201870c l     F .text	00000108 alt_epcs_flash_memcmp
02018b94 l     F .text	00000094 alt_epcs_test_address
00000000 l    df *ABS*	00000000 altera_avalon_jtag_uart_fd.c
00000000 l    df *ABS*	00000000 altera_avalon_jtag_uart_init.c
02018fdc l     F .text	0000022c altera_avalon_jtag_uart_irq
02019208 l     F .text	000000b0 altera_avalon_jtag_uart_timeout
00000000 l    df *ABS*	00000000 altera_avalon_jtag_uart_ioctl.c
00000000 l    df *ABS*	00000000 altera_avalon_jtag_uart_read.c
00000000 l    df *ABS*	00000000 altera_avalon_jtag_uart_write.c
00000000 l    df *ABS*	00000000 altera_avalon_timer_sc.c
02019884 l     F .text	00000074 alt_avalon_timer_sc_irq
00000000 l    df *ABS*	00000000 altera_up_avalon_rs232.c
00000000 l    df *ABS*	00000000 epcs_commands.c
02019e70 l     F .text	00000038 epcs_await_wip_released
02019ea8 l     F .text	00000038 epcs_test_wip
00000000 l    df *ABS*	00000000 alt_busy_sleep.c
00000000 l    df *ABS*	00000000 alt_dcache_flush_all.c
00000000 l    df *ABS*	00000000 alt_dev_llist_insert.c
0201a618 l     F .text	00000060 alt_get_errno
00000000 l    df *ABS*	00000000 alt_do_ctors.c
00000000 l    df *ABS*	00000000 alt_do_dtors.c
00000000 l    df *ABS*	00000000 alt_find_dev.c
00000000 l    df *ABS*	00000000 alt_flash_dev.c
00000000 l    df *ABS*	00000000 alt_icache_flush_all.c
00000000 l    df *ABS*	00000000 alt_io_redirect.c
0201a8c0 l     F .text	000000d8 alt_open_fd
00000000 l    df *ABS*	00000000 alt_irq_register.c
00000000 l    df *ABS*	00000000 alt_irq_vars.c
00000000 l    df *ABS*	00000000 alt_open.c
0201abd0 l     F .text	000000f8 alt_file_locked
0201ae54 l     F .text	00000060 alt_get_errno
00000000 l    df *ABS*	00000000 altera_nios2_irq.c
00000000 l    df *ABS*	00000000 altera_avalon_spi.c
00000000 l    df *ABS*	00000000 alt_find_file.c
00000000 l    df *ABS*	00000000 alt_get_fd.c
00000000 l    df *ABS*	00000000 atexit.c
00000000 l    df *ABS*	00000000 exit.c
00000000 l    df *ABS*	00000000 memcmp.c
00000000 l    df *ABS*	00000000 __atexit.c
00000000 l    df *ABS*	00000000 __call_atexit.c
0201b4f0 l     F .text	00000004 register_fini
02008e54 g     F .text	00000138 _ZN24CMotorMeasurementMessage12parseMessageEPhi
0200c4ac g     F .text	00000040 __cxa_free_exception
020073e8 g     F .text	00000050 _ZN11CCarMessageD1Ev
020036f4 g     F .text	00000178 _ZN15CADCInfoMessage13answerMessageEhPhS0_
0200c45c g     F .text	00000008 _ZNKSt9type_info15__is_function_pEv
02000c58 g     F .text	000000c0 _Z12measureSpeedv
02013480 g     F .text	00000094 _mprec_log10
0200bf3c g     F .text	00000018 _ZSt10unexpectedv
02018a94 g     F .text	00000090 alt_epcs_flash_get_info
02006968 g     F .text	00000028 _ZN21CRemoteControlMessage8getBytesEPh
0201b9e4  w    O .rodata	00000015 _ZTS18CInfoSensorMessage
0201356c g     F .text	00000088 __any_on
02014cb4 g     F .text	00000070 _isatty_r
0201baa0  w    O .rodata	0000000e _ZTS11CCarMessage
0201c014 g     O .rodata	00000028 __mprec_tinytens
02017c60 g     F .text	0000006c alt_main
0200386c g     F .text	00000024 _ZN15CADCInfoMessage9getLengthEv
02006a8c g     F .text	00000058 _ZN21CRemoteControlMessageD1Ev
020098e8 g     F .text	0000015c _ZN21CMotorVelocityMessageC1EPhi
0200dedc g     F .text	000000a0 _puts_r
020069b4 g     F .text	00000080 _ZN21CRemoteControlMessage12parseMessageEPhi
0202005c g     O .bss	00000100 alt_irq
02005db4 g     F .text	00000128 _ZN22CEmergencyBrakeMessageC1EPhi
02004c18 g     F .text	000000f8 _ZN26CAccelerationValuesMessage12parseMessageEPhi
02014d24 g     F .text	00000078 _lseek_r
02006244 g     F .text	00000128 _ZN18CInfoSensorMessageC1EPhi
0201b9fc  w    O .rodata	0000000c _ZTI18CInfoSensorMessage
0200d174 g     F .text	00000014 _Unwind_GetIPInfo
0201dc28 g       *ABS*	00000000 __flash_rwdata_start
02006924 g     F .text	00000024 _ZN21CRemoteControlMessage13answerMessageEb
0201bb48  w    O .rodata	0000000c _ZTI21CMotorVelocityMessage
02016600 g     F .text	00000088 __eqdf2
0200c868 g     F .text	00000718 __divdi3
0200c144 g     F .text	00000074 __cxa_rethrow
0201ba78  w    O .rodata	0000000c _ZTI21CRemoteControlMessage
02006048 g     F .text	00000028 _ZN18CInfoSensorMessage8getBytesEPh
0200d114 g     F .text	0000000c _Unwind_SjLj_Unregister
0200be5c g     F .text	00000014 _ZSt14set_unexpectedPFvvE
02005c2c g     F .text	00000058 _ZN22CEmergencyBrakeMessageD0Ev
020065fc g     F .text	00000058 _ZN17CInfoStateMessageD2Ev
0200d164 g     F .text	00000010 _Unwind_GetIP
020202ec g       *ABS*	00000000 __alt_heap_start
0200e2dc g     F .text	00000074 _kill_r
02007048 g     F .text	00000064 _ZN11CCarMessage9setHeaderEhhb
0200c848 g     F .text	00000010 _ZNSt9bad_allocD2Ev
0200de64 g     F .text	00000044 printf
02006494 g     F .text	00000024 _ZN17CInfoStateMessage13answerMessageEb
0200c358 g     F .text	00000034 _ZNK10__cxxabiv120__si_class_type_info20__do_find_public_srcElPKvPKNS_17__class_type_infoES2_
0200e21c g     F .text	000000a0 _signal_r
0201dbbc  w    O .rwdata	00000008 _ZTI12CCarProtocol
0201476c g     F .text	00000068 __sseek
02011ed0 g     F .text	000000a4 __sinit
0200962c g     F .text	00000020 _ZN21CMotorVelocityMessage8doActionEv
020057e4 g     F .text	00000058 _ZN15CControlMessageD2Ev
020045b0 g     F .text	00000058 _ZN17CADCValuesMessageD2Ev
0201ba84  w    O .rodata	0000001c _ZTV11CCarMessage
0200c348 g     F .text	00000010 _ZN10__cxxabiv120__si_class_type_infoD2Ev
02012bdc g     F .text	00000084 _setlocale_r
0201bc60  w    O .rodata	00000025 _ZTSN10__cxxabiv120__si_class_type_infoE
02011fd0 g     F .text	0000009c __sfmoreglue
02017cec g     F .text	00000020 __malloc_unlock
02019bb4 g     F .text	00000090 alt_up_rs232_read_fd
02005edc g     F .text	00000128 _ZN22CEmergencyBrakeMessageC2EPhi
02007438 g     F .text	00000050 _ZN11CCarMessageD2Ev
0201bb30  w    O .rodata	00000018 _ZTS21CMotorVelocityMessage
02007104 g     F .text	00000058 _ZN11CCarMessageC2Ehhb
02009890 g     F .text	00000058 _ZN21CMotorVelocityMessageD2Ev
0200bf5c g     F .text	00000020 _ZSt18uncaught_exceptionv
02006500 g     F .text	00000024 _ZN17CInfoStateMessage9getLengthEv
02008d20 g     F .text	00000134 _ZN24CMotorMeasurementMessage8getBytesEPh
020070ac g     F .text	00000058 _ZN11CCarMessageC1Ehhb
02002078 g     F .text	00000070 _ZN13CPIControllerC2Ellll
02007488 g     F .text	000000c0 _ZN12CCarProtocolC2EtPP11CCarMessagem
020067fc g     F .text	00000128 _ZN17CInfoStateMessageC2EPhi
02005d34 g     F .text	00000040 _ZN22CEmergencyBrakeMessageC1Ev
0201bab0  w    O .rodata	00000010 _ZTV12CCarProtocol
02006f04 g     F .text	0000009c _ZN11CCarMessage8getBytesEPh
02012f94 g     F .text	000000e0 memmove
020016f0 g     F .text	00000128 _Z12controlSpeedv
0200c750 g     F .text	00000010 _ZNSt9exceptionD2Ev
02011fc0 g     F .text	00000010 _cleanup
020135f4 g     F .text	000000bc _Balloc
02000684 g     F .text	000000d4 _ZN16CEth_UART_Socket16ReceiveImmediateEPhm
02002f84 g     F .text	000000cc _Z20ADXL345_SPI_XYZ_ReadmPt
0200a438 g     F .text	00000150 _ZN26CUltrasoundDistanceMessageC1Ev
02002490 g     F .text	00000154 _Z8i2c_readmmPhb
0201ba08  w    O .rodata	0000001c _ZTV17CInfoStateMessage
0201b900  w    O .rodata	0000001c _ZTV26CAccelerationValuesMessage
020036d4 g     F .text	00000020 _ZN15CADCInfoMessage8doActionEv
02016710 g     F .text	00000088 __gtdf2
0201bcc4  w    O .rodata	00000014 _ZTVSt13bad_exception
0201bb14  w    O .rodata	0000001c _ZTV21CMotorVelocityMessage
00000000  w      *UND*	00000000 __errno
02019d78 g     F .text	000000f8 epcs_sector_erase
02009cf8 g     F .text	00000158 _ZN21CMotorVelocityMessageC2Es
02000000 g     F .entry	0000000c __reset
0200d1a4 g     F .text	00000008 _Unwind_GetRegionStart
02009ee4 g     F .text	00000094 _ZN26CUltrasoundDistanceMessage12parseMessageEPhi
020043ec g     F .text	00000114 _ZN17CADCValuesMessage8getBytesEPh
02000020 g       *ABS*	00000000 __flash_exceptions_start
02014c40 g     F .text	00000074 _fstat_r
02004608 g     F .text	0000015c _ZN17CADCValuesMessageC1EPhi
020066d4 g     F .text	00000128 _ZN17CInfoStateMessageC1EPhi
0200c620 g     F .text	00000100 _Znwm
0201f7f4 g     O .bss	00000004 errno
0201f7c0 g     O .bss	00000004 uiMaxSpeed
02007bb8 g     F .text	00000120 _ZN12CCarProtocolD2Ev
0201f7b4 g     O .bss	00000004 uiAvailableOperations
0200d574 g     F .text	00000080 _Unwind_Backtrace
0200964c g     F .text	00000024 _ZN21CMotorVelocityMessage9getLengthEv
02008fe4 g     F .text	00000058 _ZN24CMotorMeasurementMessageD1Ev
0201f808 g     O .bss	00000004 alt_argv
02025bb0 g       *ABS*	00000000 _gp
02018168 g     F .text	00000030 usleep
0201773c g     F .text	00000020 getpid
0200b7e8 g     F .text	00000180 __cxa_call_unexpected
0200bf54 g     F .text	00000008 __cxa_get_exception_ptr
02007608 g     F .text	0000002c _ZN12CCarProtocol7isValidEv
0201c8dc g     O .rwdata	00000180 alt_fd_list
020058bc g     F .text	0000015c _ZN15CControlMessageC1EPhi
0200578c g     F .text	00000058 _ZN15CControlMessageD1Ev
0200d524 g     F .text	00000050 _Unwind_SjLj_ForcedUnwind
0201a07c g     F .text	00000064 epcs_write_status_register
0200d138 g     F .text	00000014 _Unwind_GetCFA
0200be48 g     F .text	00000014 _ZSt13set_terminatePFvvE
02003ce4 g     F .text	0000015c _ZN15CADCInfoMessageC1EPhi
0201a740 g     F .text	00000094 alt_find_dev
02012ef4 g     F .text	000000a0 memcpy
0201bb70  w    O .rodata	0000001d _ZTS26CUltrasoundDistanceMessage
02011fb4 g     F .text	0000000c _cleanup_r
020168a8 g     F .text	000000f8 __floatsidf
0201a998 g     F .text	00000078 alt_io_redirect
02016820 g     F .text	00000088 __ltdf2
0201b82c g       *ABS*	00000000 __DTOR_END__
0200b160 g     F .text	00000010 _ZN10__cxxabiv117__class_type_infoD1Ev
0200a71c g     F .text	000000d4 _ZN15CWelcomeMessage12parseMessageEPhi
02019b40 g     F .text	00000074 alt_up_rs232_read_data
0200df7c g     F .text	00000014 puts
0201aeb4 g     F .text	00000020 altera_nios2_irq_init
02018c28 g     F .text	0000011c alt_epcs_flash_write_block
020133d0 g     F .text	000000b0 __ratio
02003050 g     F .text	000000d0 _Z16ADXL345_SPI_Initm
02006204 g     F .text	00000040 _ZN18CInfoSensorMessageC2Ev
02000618 g     F .text	00000020 _ZN16CEth_UART_SocketD2Ev
02019420 g     F .text	00000224 altera_avalon_jtag_uart_read
0200d678 g     F .text	00000014 malloc
0200dea8 g     F .text	00000034 _printf_r
02001328 g     F .text	000003c8 _Z17waitForNextPacketv
0200d0bc g     F .text	00000008 __udivsi3
0201775c g     F .text	000000c4 isatty
0200e000 g     F .text	000000cc _raise_r
0201bf24 g     O .rodata	000000c8 __mprec_tens
0201bbb8  w    O .rodata	00000012 _ZTS15CWelcomeMessage
02012bb8 g     F .text	00000008 __locale_charset
020025e4 g     F .text	00000120 _Z9i2c_writemmh
0201f7e8 g     O .bss	00000004 __malloc_top_pad
020034e0 g     F .text	00000048 _Z8SPI_ReadmhPh
0200e2d8 g     F .text	00000004 _getpid_r
02000658 g     F .text	0000002c _ZN16CEth_UART_Socket5ResetEv
0200a180 g     F .text	0000015c _ZN26CUltrasoundDistanceMessageC1EPhi
0201dbf0 g     O .rwdata	00000004 __mb_cur_max
0200636c g     F .text	00000128 _ZN18CInfoSensorMessageC2EPhi
02012bc0 g     F .text	0000000c _localeconv_r
02013d58 g     F .text	0000003c __i2b
0201259c g     F .text	0000049c __sfvwrite_r
0200b180 g     F .text	00000060 _ZNK10__cxxabiv117__class_type_info10__do_catchEPKSt9type_infoPPvj
0200e154 g     F .text	000000b4 __sigtramp_r
02008f8c g     F .text	00000058 _ZN24CMotorMeasurementMessageD0Ev
02003c34 g     F .text	00000058 _ZN15CADCInfoMessageD1Ev
020031f8 g     F .text	00000118 _Z8ADC_Readh
02006d18 g     F .text	0000015c _ZN21CRemoteControlMessageC2EPhi
0201b91c  w    O .rodata	0000001d _ZTS26CAccelerationValuesMessage
0200df90 g     F .text	00000070 _sbrk_r
0201ba60  w    O .rodata	00000018 _ZTS21CRemoteControlMessage
0201bb90  w    O .rodata	0000000c _ZTI26CUltrasoundDistanceMessage
0200a588 g     F .text	00000150 _ZN26CUltrasoundDistanceMessageC2Ev
0201bc94  w    O .rodata	00000020 _ZTVSt9type_info
02014d9c g     F .text	00000078 _read_r
0200c720 g     F .text	00000010 _ZNKSt9exception4whatEv
02004558 g     F .text	00000058 _ZN17CADCValuesMessageD1Ev
0201c8a8 g     O .rwdata	0000000c __lc_ctype
0201dc08 g     O .rwdata	00000004 alt_max_fd
02019aa8 g     F .text	00000050 alt_up_rs232_check_parity
020170c4 g     F .text	00000138 __unpack_d
02014b1c g     F .text	00000110 _fclose_r
0201bd40  w    O .rodata	0000000c _ZTISt9bad_alloc
02011e34 g     F .text	00000034 fflush
0201f7ec g     O .bss	00000004 __malloc_max_sbrked_mem
02008c90 g     F .text	00000090 _ZN24CMotorMeasurementMessage13answerMessageEstsss
0201aa10 g     F .text	000001c0 alt_irq_register
02005b74 g     F .text	00000024 _ZN22CEmergencyBrakeMessage13answerMessageEb
0200368c g     F .text	00000048 _Z9SPI_Writemhh
0200a078 g     F .text	00000058 _ZN26CUltrasoundDistanceMessageD0Ev
02002178 g     F .text	00000020 _ZN13CPIControllerD1Ev
02015f70 g     F .text	00000074 __adddf3
0200934c g     F .text	00000170 _ZN24CMotorMeasurementMessageC1Ev
0201bc34  w    O .rodata	0000002c _ZTVN10__cxxabiv120__si_class_type_infoE
02018b24 g     F .text	00000070 alt_epcs_flash_erase_block
020132b0 g     F .text	00000120 __b2d
02015480 g     F .text	00000660 __umoddi3
02017b0c g     F .text	000000f4 lseek
0200b1e0 g     F .text	00000030 _ZNK10__cxxabiv117__class_type_info11__do_upcastEPKS0_PKvRNS0_15__upcast_resultE
0200c138 g     F .text	0000000c _ZdlPv
0201dbec g     O .rwdata	00000004 _global_impure_ptr
0200583c g     F .text	00000040 _ZN15CControlMessageC1Ev
020055c0 g     F .text	00000024 _ZN15CControlMessage13answerMessageEb
0201b93c  w    O .rodata	0000000c _ZTI26CAccelerationValuesMessage
0201a394 g     F .text	00000058 epcs_exit_4_bytes_mode
02014100 g     F .text	000005f4 _realloc_r
02004284 g     F .text	00000064 _ZN17CADCValuesMessage13answerMessageEPhPt
02009094 g     F .text	0000015c _ZN24CMotorMeasurementMessageC1EPhi
020202ec g       *ABS*	00000000 __bss_end
02004b78 g     F .text	0000007c _ZN26CAccelerationValuesMessage13answerMessageEsssh
0201805c g     F .text	0000010c alt_tick
0201bb08  w    O .rodata	0000000c _ZTI24CMotorMeasurementMessage
0200d104 g     F .text	00000010 _Unwind_SjLj_Register
02004a1c g     F .text	0000015c _ZN17CADCValuesMessageC2EPh
02001818 g     F .text	000004b4 _Z11sendWelcomev
02014e14 g     F .text	0000066c __udivdi3
0201bfec g     O .rodata	00000028 __mprec_bigtens
02013fe0 g     F .text	00000120 __s2b
0200d64c g     F .text	00000018 abort
02016a78 g     F .text	00000194 __floatunsidf
0201b984  w    O .rodata	0000001c _ZTV22CEmergencyBrakeMessage
020131d0 g     F .text	00000060 __mcmp
02006028 g     F .text	00000020 _ZN18CInfoSensorMessage8doActionEv
0200bf7c g     F .text	000000a4 __cxa_end_catch
02003f9c g     F .text	00000164 _ZN15CADCInfoMessageC1EPh
02011f9c g     F .text	00000018 __fp_lock_all
0200c7a4 g     F .text	00000010 _ZNSt13bad_exceptionD2Ev
02007978 g     F .text	00000120 _ZN12CCarProtocolD0Ev
0201f7b0 g     O .bss	00000001 bSPIReady
02017fc4 g     F .text	00000098 alt_alarm_stop
0201f818 g     O .bss	00000004 alt_irq_active
0200bf14 g     F .text	00000018 _ZSt9terminatev
0200aa80 g     F .text	000001b4 _ZN15CWelcomeMessageC1EhhhPh
0200903c g     F .text	00000058 _ZN24CMotorMeasurementMessageD2Ev
020071cc g     F .text	0000008c _ZN11CCarMessage11parseHeaderEPhi
02005604 g     F .text	00000028 _ZN15CControlMessage8getBytesEPh
020000ec g     F .exceptions	000000cc alt_irq_handler
0201c8b4 g     O .rwdata	00000028 alt_dev_null
02006094 g     F .text	00000028 _ZN18CInfoSensorMessage12parseMessageEPhi
0201b888  w    O .rodata	0000001c _ZTV15CADCInfoMessage
0201bc04  w    O .rodata	00000022 _ZTSN10__cxxabiv117__class_type_infoE
0201a548 g     F .text	0000001c alt_dcache_flush_all
0201309c g     F .text	00000070 __hi0bits
02006b7c g     F .text	00000040 _ZN21CRemoteControlMessageC2Ev
0201dbd0  w    O .rwdata	00000008 _ZTISt9exception
02006ff0 g     F .text	0000002c _ZN11CCarMessage10getSubTypeEv
02002158 g     F .text	00000020 _ZN13CPIControllerD2Ev
020169a0 g     F .text	000000d8 __fixdfsi
0201f7b8 g     O .bss	00000004 iCurrentSpeed
0200616c g     F .text	00000058 _ZN18CInfoSensorMessageD2Ev
0201dc28 g       *ABS*	00000000 __ram_rwdata_end
02005be0 g     F .text	00000024 _ZN22CEmergencyBrakeMessage9getLengthEv
02002348 g     F .text	00000048 _ZN13CPIController13getControllerEPlS0_
020028d0 g     F .text	0000014c _Z17I2C_MultipleWritemmahPht
0200c48c g     F .text	00000010 _ZNSt9type_infoD1Ev
0201dc00 g     O .rwdata	00000008 alt_dev_list
0201f7d8 g     O .bss	00000004 __new_handler
02009f78 g     F .text	000000bc _ZN26CUltrasoundDistanceMessage8getBytesEPh
02018198 g     F .text	00000124 write
0200c47c g     F .text	00000010 _ZNSt9type_infoD0Ev
0201c0a0 g       *ABS*	00000000 __ram_rodata_end
02007548 g     F .text	000000c0 _ZN12CCarProtocolC1EtPP11CCarMessagem
02017604 g     F .text	000000d8 fstat
02019c44 g     F .text	00000094 alt_up_rs232_write_fd
02006eac g     F .text	00000038 _ZN11CCarMessageC1Ev
02017880 g     F .text	00000140 kill
02000e48 g     F .text	0000005c _Z17waitForEndOfCyclev
02009ba0 g     F .text	00000158 _ZN21CMotorVelocityMessageC1Es
02005650 g     F .text	000000e4 _ZN15CControlMessage12parseMessageEPhi
0200a034 g     F .text	00000044 _ZN26CUltrasoundDistanceMessage8doActionEv
02013ec0 g     F .text	00000120 __pow5mult
0201f7f8 g     O .bss	00000004 __nlocale_changed
0200d0c4 g     F .text	00000008 __umodsi3
0200c474 g     F .text	00000008 _ZNKSt9type_info11__do_upcastEPKN10__cxxabiv117__class_type_infoEPPv
02002ed4 g     F .text	00000044 _Z18ADXL345_SPI_IdReadmPh
0201bac0  w    O .rodata	0000000f _ZTS12CCarProtocol
02002cd8 g     F .text	00000178 _Z15i2c_data_verifymmh
0200a6d8 g     F .text	00000020 _ZN15CWelcomeMessage8doActionEv
0201a250 g     F .text	0000006c epcs_read_electronic_signature
020202ec g       *ABS*	00000000 end
02008bec g     F .text	00000060 _ZN12CCarProtocolC2EPhi
0200a6f8 g     F .text	00000024 _ZN15CWelcomeMessage9getLengthEv
02003310 g     F .text	0000004c _Z8SPI_Initm
0201b8f4  w    O .rodata	0000000c _ZTI17CADCValuesMessage
020064b8 g     F .text	00000020 _ZN17CInfoStateMessage8doActionEv
0200d2c4 g     F .text	00000018 _Unwind_DeleteException
0201b8e0  w    O .rodata	00000014 _ZTS17CADCValuesMessage
02018f24 g     F .text	000000b8 altera_avalon_jtag_uart_init
02000e1c g     F .text	0000002c _Z14alarm_callbackPv
0201b828 g       *ABS*	00000000 __CTOR_LIST__
0200097c g     F .text	00000044 _ZN16CEth_UART_SocketC1Ev
04000000 g       *ABS*	00000000 __alt_stack_pointer
020198f8 g     F .text	00000088 alt_avalon_timer_sc_init
02016d30 g     F .text	00000080 __clzsi2
0200b0a0 g     F .text	0000006c _ZNK10__cxxabiv117__class_type_info11__do_upcastEPKS0_PPv
02019644 g     F .text	00000240 altera_avalon_jtag_uart_write
02011ec0 g     F .text	00000004 __sfp_lock_acquire
0201bcec  w    O .rodata	00000012 _ZTSSt13bad_exception
02012e10 g     F .text	000000e4 memchr
0200e41c g     F .text	00001ec4 ___vfprintf_internal_r
02012288 g     F .text	00000314 _free_r
0201dbb4  w    O .rwdata	00000008 _ZTI11CCarMessage
0201b4f4 g     F .text	000001b0 __call_exitprocs
0200430c g     F .text	000000e0 _ZN17CADCValuesMessage12parseMessageEPhi
020076e4 g     F .text	00000060 _ZN12CCarProtocol13getNthMessageEm
0201f7fc g     O .bss	00000004 __mlocale_changed
02006fc4 g     F .text	0000002c _ZN11CCarMessage7getTypeEv
0201dbe4 g     O .rwdata	00000004 __malloc_sbrk_base
020001b8 g     F .text	0000003c _start
0201f810 g     O .bss	00000004 _alt_tick_rate
020009c0 g     F .text	00000044 _ZN16CEth_UART_SocketC2Ev
02007cd8 g     F .text	00000eb4 _ZN12CCarProtocol11parsePacketEPhi
02009a44 g     F .text	0000015c _ZN21CMotorVelocityMessageC2EPhi
0201bcb4  w    O .rodata	0000000d _ZTSSt9type_info
02004764 g     F .text	0000015c _ZN17CADCValuesMessageC2EPhi
020139b8 g     F .text	0000014c __lshift
0201aed4 g     F .text	00000238 alt_avalon_spi_command
0201bd1c  w    O .rodata	00000014 _ZTVSt9bad_alloc
0201f814 g     O .bss	00000004 _alt_nticks
0200e2bc g     F .text	0000001c signal
02017d0c g     F .text	00000124 read
02006fa0 g     F .text	00000024 _ZN11CCarMessage9getLengthEv
02005318 g     F .text	00000154 _ZN26CAccelerationValuesMessageC1Ev
02018350 g     F .text	00000070 alt_sys_init
02004d10 g     F .text	00000184 _ZN26CAccelerationValuesMessage8getBytesEPh
0201f7bc g     O .bss	00000004 iDesiredSpeed
0201b3bc g     F .text	00000134 __register_exitproc
0201bd30  w    O .rodata	0000000d _ZTSSt9bad_alloc
020061c4 g     F .text	00000040 _ZN18CInfoSensorMessageC1Ev
02003528 g     F .text	00000164 _Z17SPI_MultipleWritemhPhh
0200776c g     F .text	0000020c _ZN12CCarProtocol8getBytesEPh
02019a68 g     F .text	00000040 alt_up_rs232_get_available_space_in_write_FIFO
0201bb54  w    O .rodata	0000001c _ZTV26CUltrasoundDistanceMessage
02013b04 g     F .text	00000254 __multiply
02004264 g     F .text	00000020 _ZN17CADCValuesMessage8doActionEv
020048c0 g     F .text	0000015c _ZN17CADCValuesMessageC1EPh
020192b8 g     F .text	00000074 altera_avalon_jtag_uart_close
02007398 g     F .text	00000050 _ZN11CCarMessageD0Ev
0200d0cc g     F .text	00000038 __mulsi3
0201c0a0 g       *ABS*	00000000 __ram_rwdata_start
0200d42c g     F .text	000000f8 _Unwind_SjLj_RaiseException
0201b82c g       *ABS*	00000000 __ram_rodata_start
02000884 g     F .text	000000f8 _ZN16CEth_UART_Socket4SendEPhm
0200af44 g     F .text	0000015c _ZN15CWelcomeMessageC2EPhi
02020034 g     O .bss	00000028 __malloc_current_mallinfo
0200d3d0 g     F .text	0000005c _Unwind_SjLj_Resume
020136b0 g     F .text	0000017c __d2b
0200c49c g     F .text	00000010 _ZNSt9type_infoD2Ev
02019d18 g     F .text	00000060 epcs_read_status_register
0200c28c g     F .text	00000078 _ZNK10__cxxabiv120__si_class_type_info11__do_upcastEPKNS_17__class_type_infoEPKvRNS1_15__upcast_resultE
02002704 g     F .text	000001cc _Z16I2C_MultipleReadmmahPht
02018ddc g     F .text	00000058 altera_avalon_jtag_uart_read_fd
0201b22c g     F .text	000000d0 alt_get_fd
020091f0 g     F .text	0000015c _ZN24CMotorMeasurementMessageC2EPhi
0201a3ec g     F .text	0000015c alt_busy_sleep
020171fc g     F .text	000000c8 __fpcmp_parts_d
0200546c g     F .text	00000154 _ZN26CAccelerationValuesMessageC2Ev
02006070 g     F .text	00000024 _ZN18CInfoSensorMessage9getLengthEv
02014aac g     F .text	00000070 _close_r
02000638 g     F .text	00000020 _ZN16CEth_UART_SocketD1Ev
0201a2bc g     F .text	00000080 epcs_read_device_id
0201b348 g     F .text	00000074 memcmp
02009838 g     F .text	00000058 _ZN21CMotorVelocityMessageD1Ev
02018e8c g     F .text	00000048 altera_avalon_jtag_uart_close_fd
020202ec g       *ABS*	00000000 __alt_stack_base
02018ed4 g     F .text	00000050 altera_avalon_jtag_uart_ioctl_fd
02005a18 g     F .text	0000015c _ZN15CControlMessageC2EPhi
0200c804 g     F .text	00000034 _ZNSt9bad_allocD0Ev
0200c338 g     F .text	00000010 _ZN10__cxxabiv120__si_class_type_infoD1Ev
02010304 g     F .text	0000013c __swsetup_r
0200d5f4 g     F .text	00000058 _Unwind_SjLj_Resume_or_Rethrow
020163a8 g     F .text	00000258 __divdf3
0201206c g     F .text	000000f0 __sfp
02013514 g     F .text	00000058 __copybits
0200c454 g     F .text	00000008 _ZNKSt9type_info14__is_pointer_pEv
0201c0a0 g     O .rwdata	00000408 __malloc_av_
02011ecc g     F .text	00000004 __sinit_lock_release
0200ade8 g     F .text	0000015c _ZN15CWelcomeMessageC1EPhi
02015fe4 g     F .text	000003c4 __muldf3
020096b8 g     F .text	00000094 _ZN21CMotorVelocityMessage12parseMessageEPhi
02014850 g     F .text	00000060 __sread
0201bcd8  w    O .rodata	00000014 _ZTVSt9exception
020199d4 g     F .text	00000058 alt_up_rs232_disable_read_interrupt
0201b10c g     F .text	00000120 alt_find_file
0200b10c g     F .text	00000020 _ZNK10__cxxabiv117__class_type_info20__do_find_public_srcElPKvPKS0_S2_
0201a564 g     F .text	000000b4 alt_dev_llist_insert
02017ccc g     F .text	00000020 __malloc_lock
02017f08 g     F .text	000000bc sbrk
0200aa28 g     F .text	00000058 _ZN15CWelcomeMessageD2Ev
0201bbd8  w    O .rodata	0000002c _ZTVN10__cxxabiv117__class_type_infoE
0200c1b8 g     F .text	00000074 __cxa_throw
02007258 g     F .text	00000058 _ZN11CCarMessageC1EPhi
02011c38 g     F .text	000001fc _fflush_r
0200d188 g     F .text	00000010 _Unwind_SetIP
02004f58 g     F .text	00000058 _ZN26CAccelerationValuesMessageD0Ev
02002e50 g     F .text	00000084 _Z10I2C_Verifymmm
020149e4 g     F .text	000000c8 _calloc_r
02006ae4 g     F .text	00000058 _ZN21CRemoteControlMessageD2Ev
020055e4 g     F .text	00000020 _ZN15CControlMessage8doActionEv
02008c4c g     F .text	00000020 _ZN24CMotorMeasurementMessage8doActionEv
0201dc1c g     O .rwdata	00000008 alt_flash_dev_list
02005cdc g     F .text	00000058 _ZN22CEmergencyBrakeMessageD2Ev
0200a128 g     F .text	00000058 _ZN26CUltrasoundDistanceMessageD2Ev
0201f7b0 g       *ABS*	00000000 __bss_start
02004100 g     F .text	00000164 _ZN15CADCInfoMessageC2EPh
0201bad0  w    O .rodata	0000001c _ZTV24CMotorMeasurementMessage
0200ddcc g     F .text	00000098 memset
02001e14 g     F .text	00000230 main
0200ac34 g     F .text	000001b4 _ZN15CWelcomeMessageC2EhhhPh
0201f80c g     O .bss	00000004 alt_envp
0201f7f0 g     O .bss	00000004 __malloc_max_total_mem
02005b98 g     F .text	00000020 _ZN22CEmergencyBrakeMessage8doActionEv
02018e34 g     F .text	00000058 altera_avalon_jtag_uart_write_fd
0200c858 g     F .text	00000008 __cxa_get_globals_fast
02000248 g     F .text	000000b0 _Z13swapEndianessPhm
0200654c g     F .text	00000058 _ZN17CInfoStateMessageD0Ev
0201b9c8  w    O .rodata	0000001c _ZTV18CInfoSensorMessage
02007744 g     F .text	00000028 _ZN12CCarProtocol15getMessageCountEv
02006524 g     F .text	00000028 _ZN17CInfoStateMessage12parseMessageEPhi
02014764 g     F .text	00000008 __sclose
04000000 g       *ABS*	00000000 __alt_heap_limit
02014c2c g     F .text	00000014 fclose
0200715c g     F .text	00000070 _ZN11CCarMessage9setHeaderEhhhb
02008c6c g     F .text	00000024 _ZN24CMotorMeasurementMessage9getLengthEv
02000758 g     F .text	0000012c _ZN16CEth_UART_Socket7ReceiveEPhmm
0202015c g     O .bss	00000190 _atexit0
02010684 g     F .text	000015b4 _dtoa_r
0200d68c g     F .text	00000740 _malloc_r
0201dc0c g     O .rwdata	00000004 alt_errno
02009ec0 g     F .text	00000024 _ZN26CUltrasoundDistanceMessage9getLengthEv
0200e144 g     F .text	00000010 _init_signal
0201bc28  w    O .rodata	0000000c _ZTIN10__cxxabiv117__class_type_infoE
020072b0 g     F .text	00000058 _ZN11CCarMessageC2EPhi
02012b00 g     F .text	000000b8 _fwalk
0200c794 g     F .text	00000010 _ZNSt13bad_exceptionD1Ev
0200974c g     F .text	00000094 _ZN21CMotorVelocityMessage8getBytesEPh
0201ba38  w    O .rodata	0000000c _ZTI17CInfoStateMessage
0201b9a0  w    O .rodata	00000019 _ZTS22CEmergencyBrakeMessage
0200cffc g     F .text	00000060 __divsi3
0201c048 g     O .rodata	00000014 __thenan_df
0201215c g     F .text	0000012c _malloc_trim_r
0201baec  w    O .rodata	0000001b _ZTS24CMotorMeasurementMessage
0201b82c g       *ABS*	00000000 __CTOR_END__
0200a978 g     F .text	00000058 _ZN15CWelcomeMessageD0Ev
0200a7f0 g     F .text	000000ac _ZN15CWelcomeMessage13answerMessageEh
02018814 g     F .text	00000280 alt_epcs_flash_write
020148b0 g     F .text	000000bc strcmp
0201b82c g       *ABS*	00000000 __flash_rodata_start
0201b82c g       *ABS*	00000000 __DTOR_LIST__
02019cd8 g     F .text	00000040 alt_up_rs232_open_dev
0201bb9c  w    O .rodata	0000001c _ZTV15CWelcomeMessage
0201b8a4  w    O .rodata	00000012 _ZTS15CADCInfoMessage
02016688 g     F .text	00000088 __nedf2
02006a34 g     F .text	00000058 _ZN21CRemoteControlMessageD0Ev
0201831c g     F .text	00000034 alt_irq_init
02017e90 g     F .text	00000078 alt_release_fd
0200c304 g     F .text	00000034 _ZN10__cxxabiv120__si_class_type_infoD0Ev
0201bd4c g     O .rodata	00000100 __clz_tab
020042e8 g     F .text	00000024 _ZN17CADCValuesMessage9getLengthEv
0201f800 g     O .bss	00000004 _PathLocale
02005bb8 g     F .text	00000028 _ZN22CEmergencyBrakeMessage8getBytesEPh
0201b2fc g     F .text	00000014 atexit
0201496c g     F .text	00000078 _write_r
02002a1c g     F .text	00000174 _Z8I2C_ReadmmahPh
02012c60 g     F .text	0000001c setlocale
02000b98 g     F .text	000000c0 _Z22measureSpeedUnblockingv
02006b3c g     F .text	00000040 _ZN21CRemoteControlMessageC1Ev
0200d1bc g     F .text	00000008 _Unwind_GetTextRelBase
0200c7b4 g     F .text	00000044 __cxa_call_terminate
02000ea4 g     F .text	00000484 _Z17setUpPIControllerv
02005c84 g     F .text	00000058 _ZN22CEmergencyBrakeMessageD1Ev
0201dbe8 g     O .rwdata	00000004 _impure_ptr
02000a04 g     F .text	00000104 _Z13motor_settingmmmmmm
0201f804 g     O .bss	00000004 alt_argc
02008b8c g     F .text	00000060 _ZN12CCarProtocolC1EPhi
02007a98 g     F .text	00000120 _ZN12CCarProtocolD1Ev
0201a6dc g     F .text	00000064 _do_dtors
0201b8b8  w    O .rodata	0000000c _ZTI15CADCInfoMessage
02006114 g     F .text	00000058 _ZN18CInfoSensorMessageD1Ev
020001f4 g     F .text	00000054 _Z5delayj
02003bdc g     F .text	00000058 _ZN15CADCInfoMessageD0Ev
02000020 g       .exceptions	00000000 alt_irq_entry
02009670 g     F .text	00000048 _ZN21CMotorVelocityMessage13answerMessageEs
020097e0 g     F .text	00000058 _ZN21CMotorVelocityMessageD0Ev
02000414 g     F .text	00000204 _Z15ReadADCChannelsPhhPm
02013230 g     F .text	00000080 __ulp
020146f4 g     F .text	00000040 __isinfd
0200d1ac g     F .text	00000008 _Unwind_FindEnclosingFunction
02011f84 g     F .text	00000018 __fp_unlock_all
02006654 g     F .text	00000040 _ZN17CInfoStateMessageC1Ev
02006bbc g     F .text	0000015c _ZN21CRemoteControlMessageC1EPhi
02000b08 g     F .text	00000090 _Z8setSpeedl
0201dbf8 g     O .rwdata	00000008 alt_fs_list
02006694 g     F .text	00000040 _ZN17CInfoStateMessageC2Ev
02019980 g     F .text	00000054 alt_up_rs232_enable_read_interrupt
02006948 g     F .text	00000020 _ZN21CRemoteControlMessage8doActionEv
0200d198 g     F .text	0000000c _Unwind_GetLanguageSpecificData
02019af8 g     F .text	00000048 alt_up_rs232_write_data
0200c020 g     F .text	00000118 __cxa_begin_catch
0200b170 g     F .text	00000010 _ZN10__cxxabiv117__class_type_infoD2Ev
0200bf2c g     F .text	00000010 _ZN10__cxxabiv112__unexpectedEPFvvE
02003c8c g     F .text	00000058 _ZN15CADCInfoMessageD2Ev
0200a9d0 g     F .text	00000058 _ZN15CWelcomeMessageD1Ev
02002308 g     F .text	00000040 _ZN13CPIController16changeControllerEll
02000020 g       *ABS*	00000000 __ram_exceptions_start
0201f7d0 g     O .bss	00000001 bCycleFinished
02012bcc g     F .text	00000010 localeconv
02019ee0 g     F .text	0000014c epcs_read_buffer
0200c760 g     F .text	00000034 _ZNSt13bad_exceptionD0Ev
020183f8 g     F .text	00000054 alt_epcs_flash_init
0201dbc4 g     O .rwdata	00000004 _ZN10__cxxabiv119__terminate_handlerE
02005d74 g     F .text	00000040 _ZN22CEmergencyBrakeMessageC2Ev
02002044  w    F .text	00000034 _ZNK21CMotorVelocityMessage16getIDesiredSpeedEv
0200c4ec g     F .text	00000134 __cxa_allocate_exception
0201bc88  w    O .rodata	0000000c _ZTIN10__cxxabiv120__si_class_type_infoE
0200c7f8 g     F .text	0000000c _ZSt15set_new_handlerPFvvE
0201dc28 g       *ABS*	00000000 _edata
020202ec g       *ABS*	00000000 _end
0201dbd8 g     O .rwdata	00000001 _ZSt7nothrow
02005060 g     F .text	0000015c _ZN26CAccelerationValuesMessageC1EPhi
0201a7d4 g     F .text	0000007c alt_flash_open_dev
0200b968 g     F .text	000004e0 __gxx_personality_sj0
0200a0d0 g     F .text	00000058 _ZN26CUltrasoundDistanceMessageD1Ev
020001b8 g       *ABS*	00000000 __ram_exceptions_end
0200a2dc g     F .text	0000015c _ZN26CUltrasoundDistanceMessageC2EPhi
0201932c g     F .text	000000f4 altera_avalon_jtag_uart_ioctl
020065a4 g     F .text	00000058 _ZN17CInfoStateMessageD1Ev
0200b210 g     F .text	0000004c _ZNK10__cxxabiv117__class_type_info12__do_dyncastElNS0_10__sub_kindEPKS0_PKvS3_S5_RNS0_16__dyncast_resultE
0200c740 g     F .text	00000010 _ZNSt9exceptionD1Ev
0201a33c g     F .text	00000058 epcs_enter_4_bytes_mode
020147d4 g     F .text	0000007c __swrite
0201f7cc g     O .bss	00000004 pProtocol
0201dbe0 g     O .rwdata	00000004 __malloc_trim_threshold
0201b310 g     F .text	00000038 exit
0200d14c g     F .text	00000018 _Unwind_SetGR
02012a38 g     F .text	000000c8 _fwalk_reent
0201382c g     F .text	0000018c __mdiff
0201a850 g     F .text	00000054 alt_flash_close_dev
0200be70 g     F .text	000000a4 _ZN10__cxxabiv111__terminateEPFvvE
020020e8 g     F .text	00000070 _ZN13CPIControllerC1Ellll
0200d05c g     F .text	00000060 __modsi3
02004500 g     F .text	00000058 _ZN17CADCValuesMessageD0Ev
0200c838 g     F .text	00000010 _ZNSt9bad_allocD1Ev
02005c04 g     F .text	00000028 _ZN22CEmergencyBrakeMessage12parseMessageEPhi
02001ccc g     F .text	00000148 _Z4initv
04000000 g       *ABS*	00000000 __alt_data_end
02000020 g     F .exceptions	00000000 alt_exception
02002408 g     F .text	00000088 _Z9i2c_startmm
02011ec4 g     F .text	00000004 __sfp_lock_release
0200c38c g     F .text	000000c8 _ZNK10__cxxabiv120__si_class_type_info12__do_dyncastElNS_17__class_type_info10__sub_kindEPKS1_PKvS4_S6_RNS1_16__dyncast_resultE
0201f7c8 g     O .bss	00000004 pSocket
0201bd00  w    O .rodata	0000000c _ZTISt13bad_exception
02000000 g       *ABS*	00000000 __alt_mem_sdram
02004bf4 g     F .text	00000024 _ZN26CAccelerationValuesMessage9getLengthEv
02002198 g     F .text	00000170 _ZN13CPIController7controlEl
02002f18 g     F .text	0000006c _Z23ADXL345_SPI_IsDataReadym
02006e74 g     F .text	00000038 _ZN11CCarMessageC2Ev
020094bc g     F .text	00000170 _ZN24CMotorMeasurementMessageC2Ev
02004e94 g     F .text	000000c4 _ZN26CAccelerationValuesMessage8doActionEv
0201b8c4  w    O .rodata	0000001c _ZTV17CADCValuesMessage
0200701c g     F .text	0000002c _ZN11CCarMessage7isValidEv
02006ee4 g     F .text	00000020 _ZN11CCarMessage8doActionEv
0201f7c4 g     O .bss	00000004 pController
0200a89c g     F .text	000000dc _ZN15CWelcomeMessage8getBytesEPh
02014734 g     F .text	00000030 __isnand
020175e4 g     F .text	00000020 _exit
0201ba44  w    O .rodata	0000001c _ZTV21CRemoteControlMessage
020172c4 g     F .text	00000154 alt_alarm_start
0201dbb0 g     O .rwdata	00000004 pLED
02016c0c g     F .text	00000124 __muldi3
02006004 g     F .text	00000024 _ZN18CInfoSensorMessage13answerMessageEb
0200562c g     F .text	00000024 _ZN15CControlMessage9getLengthEv
02007308 g     F .text	00000090 _ZN11CCarMessage19writeHeaderToBufferEPhi
0200d120 g     F .text	00000018 _Unwind_GetGR
0200c860 g     F .text	00000008 __cxa_get_globals
02012c7c g     F .text	00000194 __smakebuf_r
020060bc g     F .text	00000058 _ZN18CInfoSensorMessageD0Ev
0201dbdc g     O .rwdata	00000004 _ZN10__cxxabiv120__unexpected_handlerE
0200335c g     F .text	00000184 _Z16SPI_MultipleReadmhPhh
0201b964  w    O .rodata	00000012 _ZTS15CControlMessage
020002f8 g     F .text	0000011c _Z15getAccelerationPs
0200e350 g     F .text	00000074 strlen
0201a02c g     F .text	00000050 epcs_write_enable
02003e40 g     F .text	0000015c _ZN15CADCInfoMessageC2EPhi
0200e0e0 g     F .text	00000064 _init_signal_r
0201dbc8  w    O .rwdata	00000008 _ZTISt9type_info
0201acc8 g     F .text	0000018c open
02016798 g     F .text	00000088 __gedf2
0201bd0c  w    O .rodata	0000000d _ZTSSt9exception
02009e50 g     F .text	00000070 _ZN26CUltrasoundDistanceMessage13answerMessageEl
02004fb0 g     F .text	00000058 _ZN26CAccelerationValuesMessageD1Ev
02005734 g     F .text	00000058 _ZN15CControlMessageD0Ev
02003a20 g     F .text	000001bc _ZN15CADCInfoMessage8getBytesEPh
0200c730 g     F .text	00000010 _ZNSt9exceptionD0Ev
0201a8a4 g     F .text	0000001c alt_icache_flush_all
02002b90 g     F .text	00000148 _Z9I2C_Writemmahh
0200d1b4 g     F .text	00000008 _Unwind_GetDataRelBase
0201b948  w    O .rodata	0000001c _ZTV15CControlMessage
0201dc24 g     O .rwdata	00000004 alt_priority_mask
020102e0 g     F .text	00000024 __vfprintf_internal
04000000 g       *ABS*	00000000 __alt_mem_epcs
02003120 g     F .text	000000d8 _Z25ADXL345_SPI_WaitDataReadym
02000d18 g     F .text	00000104 _Z15measuredistancem
02015ef0 g     F .text	00000080 __subdf3
02002390 g     F .text	00000078 _Z8i2c_stopmm
02005008 g     F .text	00000058 _ZN26CAccelerationValuesMessageD2Ev
02018d44 g     F .text	00000098 alt_epcs_flash_read
0201310c g     F .text	000000c4 __lo0bits
0201bbcc  w    O .rodata	0000000c _ZTI15CWelcomeMessage
0201dc14 g     O .rwdata	00000008 alt_alarm_list
0201a678 g     F .text	00000064 _do_ctors
0200e208 g     F .text	00000014 __sigtramp
0200587c g     F .text	00000040 _ZN15CControlMessageC2Ev
02019a2c g     F .text	0000003c alt_up_rs232_get_used_space_in_read_FIFO
02017418 g     F .text	00000100 close
0201b978  w    O .rodata	0000000c _ZTI15CControlMessage
020064d8 g     F .text	00000028 _ZN17CInfoStateMessage8getBytesEPh
02003890 g     F .text	00000190 _ZN15CADCInfoMessage12parseMessageEPhi
02017a20 g     F .text	00000080 alt_load
02016db0 g     F .text	00000314 __pack_d
02007634 g     F .text	000000b0 _ZN12CCarProtocol9getLengthEv
0200c464 g     F .text	00000010 _ZNKSt9type_info10__do_catchEPKS_PPvj
0200e0cc g     F .text	00000014 raise
0201ba24  w    O .rodata	00000014 _ZTS17CInfoStateMessage
020051bc g     F .text	0000015c _ZN26CAccelerationValuesMessageC2EPhi
0200d664 g     F .text	00000014 free
02011ec8 g     F .text	00000004 __sinit_lock_acquire
0201a0e0 g     F .text	00000170 epcs_write_buffer
02013d94 g     F .text	0000012c __multadd
0200b12c g     F .text	00000034 _ZN10__cxxabiv117__class_type_infoD0Ev
02013074 g     F .text	00000028 _Bfree
02006990 g     F .text	00000024 _ZN21CRemoteControlMessage9getLengthEv
0201b9bc  w    O .rodata	0000000c _ZTI22CEmergencyBrakeMessage



Disassembly of section .entry:

02000000 <__reset>:
 * Jump to the _start entry point in the .text section if reset code
 * is allowed or if optimizing for RTL simulation.
 */
#if defined(ALT_ALLOW_CODE_AT_RESET) || defined(ALT_SIM_OPTIMIZE)
    /* Jump to the _start entry point in the .text section. */
    movhi r1, %hi(_start)
 2000000:	00408034 	movhi	at,512
    ori r1, r1, %lo(_start)
 2000004:	08406e14 	ori	at,at,440
    jmp r1
 2000008:	0800683a 	jmp	at
	...

Disassembly of section .exceptions:

02000020 <alt_exception>:
         * Process an exception.  For all exceptions we must preserve all
         * caller saved registers on the stack (See the Nios2 ABI
         * documentation for details).
         */

        addi  sp, sp, -76
 2000020:	deffed04 	addi	sp,sp,-76

#endif

#endif

        stw   ra,  0(sp)
 2000024:	dfc00015 	stw	ra,0(sp)
        /*
         * Leave a gap in the stack frame at 4(sp) for the muldiv handler to
         * store zero into.
         */

        stw   r1,   8(sp)
 2000028:	d8400215 	stw	at,8(sp)
        stw   r2,  12(sp)
 200002c:	d8800315 	stw	r2,12(sp)
        stw   r3,  16(sp)
 2000030:	d8c00415 	stw	r3,16(sp)
        stw   r4,  20(sp)
 2000034:	d9000515 	stw	r4,20(sp)
        stw   r5,  24(sp)
 2000038:	d9400615 	stw	r5,24(sp)
        stw   r6,  28(sp)
 200003c:	d9800715 	stw	r6,28(sp)
        stw   r7,  32(sp)
 2000040:	d9c00815 	stw	r7,32(sp)

        rdctl r5, estatus
 2000044:	000b307a 	rdctl	r5,estatus

        stw   r8,  36(sp)
 2000048:	da000915 	stw	r8,36(sp)
        stw   r9,  40(sp)
 200004c:	da400a15 	stw	r9,40(sp)
        stw   r10, 44(sp)
 2000050:	da800b15 	stw	r10,44(sp)
        stw   r11, 48(sp)
 2000054:	dac00c15 	stw	r11,48(sp)
        stw   r12, 52(sp)
 2000058:	db000d15 	stw	r12,52(sp)
        stw   r13, 56(sp)
 200005c:	db400e15 	stw	r13,56(sp)
        stw   r14, 60(sp)
 2000060:	db800f15 	stw	r14,60(sp)
        stw   r15, 64(sp)
 2000064:	dbc01015 	stw	r15,64(sp)
        /*
         * ea-4 contains the address of the instruction being executed
         * when the exception occured. For interrupt exceptions, we will
         * will be re-issue the isntruction. Store it in 72(sp)
         */
        stw   r5,  68(sp)  /* estatus */
 2000068:	d9401115 	stw	r5,68(sp)
        addi  r15, ea, -4  /* instruction that caused exception */
 200006c:	ebffff04 	addi	r15,ea,-4
        stw   r15,  72(sp)
 2000070:	dbc01215 	stw	r15,72(sp)
#else
        /*
         * Test to see if the exception was a software exception or caused 
         * by an external interrupt, and vector accordingly.
         */
        rdctl r4, ipending
 2000074:	0009313a 	rdctl	r4,ipending
        andi  r2, r5, 1
 2000078:	2880004c 	andi	r2,r5,1
        beq   r2, zero, .Lnot_irq
 200007c:	10000326 	beq	r2,zero,200008c <alt_exception+0x6c>
        beq   r4, zero, .Lnot_irq
 2000080:	20000226 	beq	r4,zero,200008c <alt_exception+0x6c>
        /*
         * Now that all necessary registers have been preserved, call 
         * alt_irq_handler() to process the interrupts.
         */

        call alt_irq_handler
 2000084:	20000ec0 	call	20000ec <alt_irq_handler>

        .section .exceptions.irqreturn, "xa"

        br    .Lexception_exit
 2000088:	00000306 	br	2000098 <alt_exception+0x78>
         * upon completion, so we write ea (address of instruction *after*
         * the one where the exception occured) into 72(sp). The actual
         * instruction that caused the exception is written in r2, which these
         * handlers will utilize.
         */
        stw   ea,  72(sp)  /* Don't re-issue */
 200008c:	df401215 	stw	ea,72(sp)
        ldw   r2, -4(ea)   /* Instruction that caused exception */
 2000090:	e8bfff17 	ldw	r2,-4(ea)
#ifdef NIOS2_HAS_DEBUG_STUB
       /*
        *  Either tell the user now (if there is a debugger attached) or go into
        *  the debug monitor which will loop until a debugger is attached.
        */
        break
 2000094:	003da03a 	break	0
        /* 
         * Restore the saved registers, so that all general purpose registers 
         * have been restored to their state at the time the interrupt occured.
         */

        ldw   r5,  68(sp)
 2000098:	d9401117 	ldw	r5,68(sp)
        ldw   ea,  72(sp)  /* This becomes the PC once eret is executed */
 200009c:	df401217 	ldw	ea,72(sp)
        ldw   ra,   0(sp)
 20000a0:	dfc00017 	ldw	ra,0(sp)

        wrctl estatus, r5
 20000a4:	2801707a 	wrctl	estatus,r5

        ldw   r1,   8(sp)
 20000a8:	d8400217 	ldw	at,8(sp)
        ldw   r2,  12(sp)
 20000ac:	d8800317 	ldw	r2,12(sp)
        ldw   r3,  16(sp)
 20000b0:	d8c00417 	ldw	r3,16(sp)
        ldw   r4,  20(sp)
 20000b4:	d9000517 	ldw	r4,20(sp)
        ldw   r5,  24(sp)
 20000b8:	d9400617 	ldw	r5,24(sp)
        ldw   r6,  28(sp)
 20000bc:	d9800717 	ldw	r6,28(sp)
        ldw   r7,  32(sp)
 20000c0:	d9c00817 	ldw	r7,32(sp)
#ifdef ALT_STACK_CHECK
        ldw   et, %gprel(alt_exception_old_stack_limit)(gp)
#endif
#endif

        ldw   r8,  36(sp)
 20000c4:	da000917 	ldw	r8,36(sp)
        ldw   r9,  40(sp)
 20000c8:	da400a17 	ldw	r9,40(sp)
        ldw   r10, 44(sp)
 20000cc:	da800b17 	ldw	r10,44(sp)
        ldw   r11, 48(sp)
 20000d0:	dac00c17 	ldw	r11,48(sp)
        ldw   r12, 52(sp)
 20000d4:	db000d17 	ldw	r12,52(sp)
        ldw   r13, 56(sp)
 20000d8:	db400e17 	ldw	r13,56(sp)
        ldw   r14, 60(sp)
 20000dc:	db800f17 	ldw	r14,60(sp)
        ldw   r15, 64(sp)
 20000e0:	dbc01017 	ldw	r15,64(sp)
#endif

        ldw   sp,  76(sp)

#else
        addi  sp, sp, 76
 20000e4:	dec01304 	addi	sp,sp,76

        /*
         * Return to the interrupted instruction.
         */

        eret
 20000e8:	ef80083a 	eret

020000ec <alt_irq_handler>:
 * instruction is present if the macro ALT_CI_INTERRUPT_VECTOR defined.
 */

void alt_irq_handler (void) __attribute__ ((section (".exceptions")));
void alt_irq_handler (void)
{
 20000ec:	defff904 	addi	sp,sp,-28
 20000f0:	dfc00615 	stw	ra,24(sp)
 20000f4:	df000515 	stw	fp,20(sp)
 20000f8:	df000504 	addi	fp,sp,20
#ifndef NIOS2_EIC_PRESENT
static ALT_INLINE alt_u32 ALT_ALWAYS_INLINE alt_irq_pending (void)
{
  alt_u32 active;

  NIOS2_READ_IPENDING (active);
 20000fc:	0005313a 	rdctl	r2,ipending
 2000100:	e0bffc15 	stw	r2,-16(fp)

  return active;
 2000104:	e0bffc17 	ldw	r2,-16(fp)
   * Consider the case where the high priority interupt is asserted during
   * the interrupt entry sequence for a lower priority interrupt to see why
   * this is the case.
   */

  active = alt_irq_pending ();
 2000108:	e0bfff15 	stw	r2,-4(fp)

  do
  {
    i = 0;
 200010c:	e03ffd15 	stw	zero,-12(fp)
    mask = 1;
 2000110:	00800044 	movi	r2,1
 2000114:	e0bffe15 	stw	r2,-8(fp)
     * called to clear the interrupt condition.
     */

    do
    {
      if (active & mask)
 2000118:	e0ffff17 	ldw	r3,-4(fp)
 200011c:	e0bffe17 	ldw	r2,-8(fp)
 2000120:	1884703a 	and	r2,r3,r2
 2000124:	1005003a 	cmpeq	r2,r2,zero
 2000128:	1000171e 	bne	r2,zero,2000188 <alt_irq_handler+0x9c>
      { 
#ifdef ALT_ENHANCED_INTERRUPT_API_PRESENT
        alt_irq[i].handler(alt_irq[i].context); 
#else
        alt_irq[i].handler(alt_irq[i].context, i); 
 200012c:	e0bffd17 	ldw	r2,-12(fp)
 2000130:	00c080b4 	movhi	r3,514
 2000134:	18c01704 	addi	r3,r3,92
 2000138:	100490fa 	slli	r2,r2,3
 200013c:	10c5883a 	add	r2,r2,r3
 2000140:	11800017 	ldw	r6,0(r2)
 2000144:	e0bffd17 	ldw	r2,-12(fp)
 2000148:	00c080b4 	movhi	r3,514
 200014c:	18c01704 	addi	r3,r3,92
 2000150:	100490fa 	slli	r2,r2,3
 2000154:	10c5883a 	add	r2,r2,r3
 2000158:	10800104 	addi	r2,r2,4
 200015c:	11000017 	ldw	r4,0(r2)
 2000160:	e17ffd17 	ldw	r5,-12(fp)
 2000164:	303ee83a 	callr	r6
#ifndef NIOS2_EIC_PRESENT
static ALT_INLINE alt_u32 ALT_ALWAYS_INLINE alt_irq_pending (void)
{
  alt_u32 active;

  NIOS2_READ_IPENDING (active);
 2000168:	0005313a 	rdctl	r2,ipending
 200016c:	e0bffb15 	stw	r2,-20(fp)

  return active;
 2000170:	e0bffb17 	ldw	r2,-20(fp)
      mask <<= 1;
      i++;

    } while (1);

    active = alt_irq_pending ();
 2000174:	e0bfff15 	stw	r2,-4(fp)
    
  } while (active);
 2000178:	e0bfff17 	ldw	r2,-4(fp)
 200017c:	1004c03a 	cmpne	r2,r2,zero
 2000180:	103fe21e 	bne	r2,zero,200010c <alt_irq_handler+0x20>
 2000184:	00000706 	br	20001a4 <alt_irq_handler+0xb8>
#else
        alt_irq[i].handler(alt_irq[i].context, i); 
#endif
        break;
      }
      mask <<= 1;
 2000188:	e0bffe17 	ldw	r2,-8(fp)
 200018c:	1085883a 	add	r2,r2,r2
 2000190:	e0bffe15 	stw	r2,-8(fp)
      i++;
 2000194:	e0bffd17 	ldw	r2,-12(fp)
 2000198:	10800044 	addi	r2,r2,1
 200019c:	e0bffd15 	stw	r2,-12(fp)

    } while (1);
 20001a0:	003fdd06 	br	2000118 <alt_irq_handler+0x2c>
  /*
   * Notify the operating system that interrupt processing is complete.
   */ 

  ALT_OS_INT_EXIT();
}
 20001a4:	e037883a 	mov	sp,fp
 20001a8:	dfc00117 	ldw	ra,4(sp)
 20001ac:	df000017 	ldw	fp,0(sp)
 20001b0:	dec00204 	addi	sp,sp,8
 20001b4:	f800283a 	ret

Disassembly of section .text:

020001b8 <_start>:
#if (NIOS2_NUM_OF_SHADOW_REG_SETS == 0)    
    /*
     * Now that the caches are initialized, set up the stack pointer.
     * The value provided by the linker is assumed to be correctly aligned.
     */
    movhi sp, %hi(__alt_stack_pointer)
 20001b8:	06c10034 	movhi	sp,1024
    ori sp, sp, %lo(__alt_stack_pointer)
 20001bc:	dec00014 	ori	sp,sp,0

    /* Set up the global pointer. */
    movhi gp, %hi(_gp)
 20001c0:	068080b4 	movhi	gp,514
    ori gp, gp, %lo(_gp)
 20001c4:	d696ec14 	ori	gp,gp,23472
 */
#ifndef ALT_SIM_OPTIMIZE
    /* Log that the BSS is about to be cleared. */
    ALT_LOG_PUTS(alt_log_msg_bss)

    movhi r2, %hi(__bss_start)
 20001c8:	00808074 	movhi	r2,513
    ori r2, r2, %lo(__bss_start)
 20001cc:	10bdec14 	ori	r2,r2,63408

    movhi r3, %hi(__bss_end)
 20001d0:	00c080b4 	movhi	r3,514
    ori r3, r3, %lo(__bss_end)
 20001d4:	18c0bb14 	ori	r3,r3,748

    beq r2, r3, 1f
 20001d8:	10c00326 	beq	r2,r3,20001e8 <_start+0x30>

0:
    stw zero, (r2)
 20001dc:	10000015 	stw	zero,0(r2)
    addi r2, r2, 4
 20001e0:	10800104 	addi	r2,r2,4
    bltu r2, r3, 0b
 20001e4:	10fffd36 	bltu	r2,r3,20001dc <_start+0x24>
     * section aren't defined until alt_load() has been called).
     */
    mov   et, zero
#endif

    call alt_load
 20001e8:	2017a200 	call	2017a20 <alt_load>

    /* Log that alt_main is about to be called. */
    ALT_LOG_PUTS(alt_log_msg_alt_main)

    /* Call the C entry point. It should never return. */
    call alt_main
 20001ec:	2017c600 	call	2017c60 <alt_main>

020001f0 <alt_after_alt_main>:

    /* Wait in infinite loop in case alt_main does return. */
alt_after_alt_main:
    br alt_after_alt_main
 20001f0:	003fff06 	br	20001f0 <alt_after_alt_main>

020001f4 <_Z5delayj>:
 */

#include "utility.h"


void delay (unsigned int seconds)
 20001f4:	defffd04 	addi	sp,sp,-12
 20001f8:	dfc00215 	stw	ra,8(sp)
 20001fc:	df000115 	stw	fp,4(sp)
 2000200:	df000104 	addi	fp,sp,4
 2000204:	e13fff15 	stw	r4,-4(fp)
{
	// TODO: is this even accurate?
	seconds *= 444;
 2000208:	e13fff17 	ldw	r4,-4(fp)
 200020c:	01406f04 	movi	r5,444
 2000210:	200d0cc0 	call	200d0cc <__mulsi3>
 2000214:	e0bfff15 	stw	r2,-4(fp)

	while (seconds != 0)
 2000218:	00000306 	br	2000228 <_Z5delayj+0x34>
	{
		seconds --;
 200021c:	e0bfff17 	ldw	r2,-4(fp)
 2000220:	10bfffc4 	addi	r2,r2,-1
 2000224:	e0bfff15 	stw	r2,-4(fp)
void delay (unsigned int seconds)
{
	// TODO: is this even accurate?
	seconds *= 444;

	while (seconds != 0)
 2000228:	e0bfff17 	ldw	r2,-4(fp)
 200022c:	1004c03a 	cmpne	r2,r2,zero
 2000230:	103ffa1e 	bne	r2,zero,200021c <_Z5delayj+0x28>
	{
		seconds --;
	}
}
 2000234:	e037883a 	mov	sp,fp
 2000238:	dfc00117 	ldw	ra,4(sp)
 200023c:	df000017 	ldw	fp,0(sp)
 2000240:	dec00204 	addi	sp,sp,8
 2000244:	f800283a 	ret

02000248 <_Z13swapEndianessPhm>:

void swapEndianess(alt_u8 *pArray, alt_u32 iLength)
 2000248:	defffa04 	addi	sp,sp,-24
 200024c:	df000515 	stw	fp,20(sp)
 2000250:	df000504 	addi	fp,sp,20
 2000254:	e13ffe15 	stw	r4,-8(fp)
 2000258:	e17fff15 	stw	r5,-4(fp)
{
	alt_u8 buffer;
	alt_u32 middle = iLength / 2;
 200025c:	e0bfff17 	ldw	r2,-4(fp)
 2000260:	1004d07a 	srli	r2,r2,1
 2000264:	e0bffc15 	stw	r2,-16(fp)

	iLength--;
 2000268:	e0bfff17 	ldw	r2,-4(fp)
 200026c:	10bfffc4 	addi	r2,r2,-1
 2000270:	e0bfff15 	stw	r2,-4(fp)
	for(alt_u32 i = 0; i < middle; )
 2000274:	e03ffb15 	stw	zero,-20(fp)
 2000278:	00001806 	br	20002dc <_Z13swapEndianessPhm+0x94>
	{
		buffer = pArray[i];
 200027c:	e0fffb17 	ldw	r3,-20(fp)
 2000280:	e0bffe17 	ldw	r2,-8(fp)
 2000284:	1885883a 	add	r2,r3,r2
 2000288:	10800003 	ldbu	r2,0(r2)
 200028c:	e0bffd05 	stb	r2,-12(fp)
		pArray[i] = pArray[iLength];
 2000290:	e0fffb17 	ldw	r3,-20(fp)
 2000294:	e0bffe17 	ldw	r2,-8(fp)
 2000298:	1889883a 	add	r4,r3,r2
 200029c:	e0ffff17 	ldw	r3,-4(fp)
 20002a0:	e0bffe17 	ldw	r2,-8(fp)
 20002a4:	1885883a 	add	r2,r3,r2
 20002a8:	10800003 	ldbu	r2,0(r2)
 20002ac:	20800005 	stb	r2,0(r4)
		pArray[iLength] = buffer;
 20002b0:	e0ffff17 	ldw	r3,-4(fp)
 20002b4:	e0bffe17 	ldw	r2,-8(fp)
 20002b8:	1887883a 	add	r3,r3,r2
 20002bc:	e0bffd03 	ldbu	r2,-12(fp)
 20002c0:	18800005 	stb	r2,0(r3)
		i++;
 20002c4:	e0bffb17 	ldw	r2,-20(fp)
 20002c8:	10800044 	addi	r2,r2,1
 20002cc:	e0bffb15 	stw	r2,-20(fp)
		iLength--;
 20002d0:	e0bfff17 	ldw	r2,-4(fp)
 20002d4:	10bfffc4 	addi	r2,r2,-1
 20002d8:	e0bfff15 	stw	r2,-4(fp)
{
	alt_u8 buffer;
	alt_u32 middle = iLength / 2;

	iLength--;
	for(alt_u32 i = 0; i < middle; )
 20002dc:	e0fffb17 	ldw	r3,-20(fp)
 20002e0:	e0bffc17 	ldw	r2,-16(fp)
 20002e4:	18bfe536 	bltu	r3,r2,200027c <_Z13swapEndianessPhm+0x34>
		pArray[i] = pArray[iLength];
		pArray[iLength] = buffer;
		i++;
		iLength--;
	}
}
 20002e8:	e037883a 	mov	sp,fp
 20002ec:	df000017 	ldw	fp,0(sp)
 20002f0:	dec00104 	addi	sp,sp,4
 20002f4:	f800283a 	ret

020002f8 <_Z15getAccelerationPs>:
#include "accelerometer_interface.h"

// Local variables:
bool bSPIReady = false;

bool getAcceleration(alt_16 *iXYZ)
 20002f8:	defffc04 	addi	sp,sp,-16
 20002fc:	dfc00315 	stw	ra,12(sp)
 2000300:	df000215 	stw	fp,8(sp)
 2000304:	df000204 	addi	fp,sp,8
 2000308:	e13fff15 	stw	r4,-4(fp)
{
	bool bSuccess = false;
 200030c:	e03ffe05 	stb	zero,-8(fp)

	if(!bSPIReady)
 2000310:	d0a70003 	ldbu	r2,-25600(gp)
 2000314:	1080005c 	xori	r2,r2,1
 2000318:	10803fcc 	andi	r2,r2,255
 200031c:	1005003a 	cmpeq	r2,r2,zero
 2000320:	1000041e 	bne	r2,zero,2000334 <_Z15getAccelerationPs+0x3c>
		bSPIReady = ADXL345_SPI_Init(GSENSOR_SPI_BASE);
 2000324:	01010034 	movhi	r4,1024
 2000328:	21020004 	addi	r4,r4,2048
 200032c:	20030500 	call	2003050 <_Z16ADXL345_SPI_Initm>
 2000330:	d0a70005 	stb	r2,-25600(gp)

	if(bSPIReady)
 2000334:	d0a70003 	ldbu	r2,-25600(gp)
 2000338:	10803fcc 	andi	r2,r2,255
 200033c:	1005003a 	cmpeq	r2,r2,zero
 2000340:	10002e1e 	bne	r2,zero,20003fc <_Z15getAccelerationPs+0x104>
	{
		if (ADXL345_SPI_IsDataReady(GSENSOR_SPI_BASE))
 2000344:	01010034 	movhi	r4,1024
 2000348:	21020004 	addi	r4,r4,2048
 200034c:	2002f180 	call	2002f18 <_Z23ADXL345_SPI_IsDataReadym>
 2000350:	10803fcc 	andi	r2,r2,255
 2000354:	1005003a 	cmpeq	r2,r2,zero
 2000358:	1000281e 	bne	r2,zero,20003fc <_Z15getAccelerationPs+0x104>
		{
			bSuccess = ADXL345_SPI_XYZ_Read(GSENSOR_SPI_BASE, (unsigned short*) iXYZ);
 200035c:	e17fff17 	ldw	r5,-4(fp)
 2000360:	01010034 	movhi	r4,1024
 2000364:	21020004 	addi	r4,r4,2048
 2000368:	2002f840 	call	2002f84 <_Z20ADXL345_SPI_XYZ_ReadmPt>
 200036c:	e0bffe05 	stb	r2,-8(fp)

			if (bSuccess)
 2000370:	e0bffe03 	ldbu	r2,-8(fp)
 2000374:	1005003a 	cmpeq	r2,r2,zero
 2000378:	1000201e 	bne	r2,zero,20003fc <_Z15getAccelerationPs+0x104>
			{
				iXYZ[0]*=4; iXYZ[1]*=4; iXYZ[2]*=4;
 200037c:	e0bfff17 	ldw	r2,-4(fp)
 2000380:	1080000b 	ldhu	r2,0(r2)
 2000384:	10bfffcc 	andi	r2,r2,65535
 2000388:	10a0001c 	xori	r2,r2,32768
 200038c:	10a00004 	addi	r2,r2,-32768
 2000390:	1085883a 	add	r2,r2,r2
 2000394:	1085883a 	add	r2,r2,r2
 2000398:	1007883a 	mov	r3,r2
 200039c:	e0bfff17 	ldw	r2,-4(fp)
 20003a0:	10c0000d 	sth	r3,0(r2)
 20003a4:	e0bfff17 	ldw	r2,-4(fp)
 20003a8:	10c00084 	addi	r3,r2,2
 20003ac:	e0bfff17 	ldw	r2,-4(fp)
 20003b0:	10800084 	addi	r2,r2,2
 20003b4:	1080000b 	ldhu	r2,0(r2)
 20003b8:	10bfffcc 	andi	r2,r2,65535
 20003bc:	10a0001c 	xori	r2,r2,32768
 20003c0:	10a00004 	addi	r2,r2,-32768
 20003c4:	1085883a 	add	r2,r2,r2
 20003c8:	1085883a 	add	r2,r2,r2
 20003cc:	1880000d 	sth	r2,0(r3)
 20003d0:	e0bfff17 	ldw	r2,-4(fp)
 20003d4:	10c00104 	addi	r3,r2,4
 20003d8:	e0bfff17 	ldw	r2,-4(fp)
 20003dc:	10800104 	addi	r2,r2,4
 20003e0:	1080000b 	ldhu	r2,0(r2)
 20003e4:	10bfffcc 	andi	r2,r2,65535
 20003e8:	10a0001c 	xori	r2,r2,32768
 20003ec:	10a00004 	addi	r2,r2,-32768
 20003f0:	1085883a 	add	r2,r2,r2
 20003f4:	1085883a 	add	r2,r2,r2
 20003f8:	1880000d 	sth	r2,0(r3)
			}
		}

	}

	return bSuccess;
 20003fc:	e0bffe03 	ldbu	r2,-8(fp)

}
 2000400:	e037883a 	mov	sp,fp
 2000404:	dfc00117 	ldw	ra,4(sp)
 2000408:	df000017 	ldw	fp,0(sp)
 200040c:	dec00204 	addi	sp,sp,8
 2000410:	f800283a 	ret

02000414 <_Z15ReadADCChannelsPhhPm>:
#include "../terasic_lib/adc_spi_read.h"
#include "alt_types.h"

#include "adc_interface.h"

bool ReadADCChannels(alt_u8 *uiChannels, alt_u8 uiChannelCount, alt_u32 *uiValues)
 2000414:	defff804 	addi	sp,sp,-32
 2000418:	dfc00715 	stw	ra,28(sp)
 200041c:	df000615 	stw	fp,24(sp)
 2000420:	dc000515 	stw	r16,20(sp)
 2000424:	df000504 	addi	fp,sp,20
 2000428:	e13ffc15 	stw	r4,-16(fp)
 200042c:	e1bffe15 	stw	r6,-8(fp)
 2000430:	e17ffd05 	stb	r5,-12(fp)
{
	if(uiChannelCount < 1)
 2000434:	e0bffd03 	ldbu	r2,-12(fp)
 2000438:	1004c03a 	cmpne	r2,r2,zero
 200043c:	1000021e 	bne	r2,zero,2000448 <_Z15ReadADCChannelsPhhPm+0x34>
		return false;
 2000440:	e03fff15 	stw	zero,-4(fp)
 2000444:	00006d06 	br	20005fc <_Z15ReadADCChannelsPhhPm+0x1e8>

	// Start Read for the first channel
	ADC_Read(uiChannels[0]);
 2000448:	e0bffc17 	ldw	r2,-16(fp)
 200044c:	10800003 	ldbu	r2,0(r2)
 2000450:	11003fcc 	andi	r4,r2,255
 2000454:	20031f80 	call	20031f8 <_Z8ADC_Readh>

	// Read rest
	for(int i = 0; i < uiChannelCount-1; i++)
 2000458:	e03ffb15 	stw	zero,-20(fp)
 200045c:	00003206 	br	2000528 <_Z15ReadADCChannelsPhhPm+0x114>
	{
		uiValues[i] = ADC_Read(uiChannels[i+1]);
 2000460:	e0bffb17 	ldw	r2,-20(fp)
 2000464:	1085883a 	add	r2,r2,r2
 2000468:	1085883a 	add	r2,r2,r2
 200046c:	1007883a 	mov	r3,r2
 2000470:	e0bffe17 	ldw	r2,-8(fp)
 2000474:	18a1883a 	add	r16,r3,r2
 2000478:	e0fffb17 	ldw	r3,-20(fp)
 200047c:	e0bffc17 	ldw	r2,-16(fp)
 2000480:	1885883a 	add	r2,r3,r2
 2000484:	10800044 	addi	r2,r2,1
 2000488:	10800003 	ldbu	r2,0(r2)
 200048c:	11003fcc 	andi	r4,r2,255
 2000490:	20031f80 	call	20031f8 <_Z8ADC_Readh>
 2000494:	10bfffcc 	andi	r2,r2,65535
 2000498:	80800015 	stw	r2,0(r16)
		uiValues[i] *= 100;
 200049c:	e0bffb17 	ldw	r2,-20(fp)
 20004a0:	1085883a 	add	r2,r2,r2
 20004a4:	1085883a 	add	r2,r2,r2
 20004a8:	1007883a 	mov	r3,r2
 20004ac:	e0bffe17 	ldw	r2,-8(fp)
 20004b0:	18a1883a 	add	r16,r3,r2
 20004b4:	e0bffb17 	ldw	r2,-20(fp)
 20004b8:	1085883a 	add	r2,r2,r2
 20004bc:	1085883a 	add	r2,r2,r2
 20004c0:	1007883a 	mov	r3,r2
 20004c4:	e0bffe17 	ldw	r2,-8(fp)
 20004c8:	1885883a 	add	r2,r3,r2
 20004cc:	11000017 	ldw	r4,0(r2)
 20004d0:	01401904 	movi	r5,100
 20004d4:	200d0cc0 	call	200d0cc <__mulsi3>
 20004d8:	80800015 	stw	r2,0(r16)
		uiValues[i] /= 1311;
 20004dc:	e0bffb17 	ldw	r2,-20(fp)
 20004e0:	1085883a 	add	r2,r2,r2
 20004e4:	1085883a 	add	r2,r2,r2
 20004e8:	1007883a 	mov	r3,r2
 20004ec:	e0bffe17 	ldw	r2,-8(fp)
 20004f0:	18a1883a 	add	r16,r3,r2
 20004f4:	e0bffb17 	ldw	r2,-20(fp)
 20004f8:	1085883a 	add	r2,r2,r2
 20004fc:	1085883a 	add	r2,r2,r2
 2000500:	1007883a 	mov	r3,r2
 2000504:	e0bffe17 	ldw	r2,-8(fp)
 2000508:	1885883a 	add	r2,r3,r2
 200050c:	11000017 	ldw	r4,0(r2)
 2000510:	014147c4 	movi	r5,1311
 2000514:	200d0bc0 	call	200d0bc <__udivsi3>
 2000518:	80800015 	stw	r2,0(r16)

	// Start Read for the first channel
	ADC_Read(uiChannels[0]);

	// Read rest
	for(int i = 0; i < uiChannelCount-1; i++)
 200051c:	e0bffb17 	ldw	r2,-20(fp)
 2000520:	10800044 	addi	r2,r2,1
 2000524:	e0bffb15 	stw	r2,-20(fp)
 2000528:	e0bffd03 	ldbu	r2,-12(fp)
 200052c:	10ffffc4 	addi	r3,r2,-1
 2000530:	e0bffb17 	ldw	r2,-20(fp)
 2000534:	10ffca16 	blt	r2,r3,2000460 <_Z15ReadADCChannelsPhhPm+0x4c>
		uiValues[i] *= 100;
		uiValues[i] /= 1311;
	}

	// Read last
	uiValues[uiChannelCount-1] = ADC_Read(0);
 2000538:	e0bffd03 	ldbu	r2,-12(fp)
 200053c:	1085883a 	add	r2,r2,r2
 2000540:	1085883a 	add	r2,r2,r2
 2000544:	1007883a 	mov	r3,r2
 2000548:	e0bffe17 	ldw	r2,-8(fp)
 200054c:	1885883a 	add	r2,r3,r2
 2000550:	143fff04 	addi	r16,r2,-4
 2000554:	0009883a 	mov	r4,zero
 2000558:	20031f80 	call	20031f8 <_Z8ADC_Readh>
 200055c:	10bfffcc 	andi	r2,r2,65535
 2000560:	80800015 	stw	r2,0(r16)
	uiValues[uiChannelCount-1] *= 100;
 2000564:	e0bffd03 	ldbu	r2,-12(fp)
 2000568:	1085883a 	add	r2,r2,r2
 200056c:	1085883a 	add	r2,r2,r2
 2000570:	1007883a 	mov	r3,r2
 2000574:	e0bffe17 	ldw	r2,-8(fp)
 2000578:	1885883a 	add	r2,r3,r2
 200057c:	143fff04 	addi	r16,r2,-4
 2000580:	e0bffd03 	ldbu	r2,-12(fp)
 2000584:	1085883a 	add	r2,r2,r2
 2000588:	1085883a 	add	r2,r2,r2
 200058c:	1007883a 	mov	r3,r2
 2000590:	e0bffe17 	ldw	r2,-8(fp)
 2000594:	1885883a 	add	r2,r3,r2
 2000598:	10bfff04 	addi	r2,r2,-4
 200059c:	11000017 	ldw	r4,0(r2)
 20005a0:	01401904 	movi	r5,100
 20005a4:	200d0cc0 	call	200d0cc <__mulsi3>
 20005a8:	80800015 	stw	r2,0(r16)
	uiValues[uiChannelCount-1] /= 1311;
 20005ac:	e0bffd03 	ldbu	r2,-12(fp)
 20005b0:	1085883a 	add	r2,r2,r2
 20005b4:	1085883a 	add	r2,r2,r2
 20005b8:	1007883a 	mov	r3,r2
 20005bc:	e0bffe17 	ldw	r2,-8(fp)
 20005c0:	1885883a 	add	r2,r3,r2
 20005c4:	143fff04 	addi	r16,r2,-4
 20005c8:	e0bffd03 	ldbu	r2,-12(fp)
 20005cc:	1085883a 	add	r2,r2,r2
 20005d0:	1085883a 	add	r2,r2,r2
 20005d4:	1007883a 	mov	r3,r2
 20005d8:	e0bffe17 	ldw	r2,-8(fp)
 20005dc:	1885883a 	add	r2,r3,r2
 20005e0:	10bfff04 	addi	r2,r2,-4
 20005e4:	11000017 	ldw	r4,0(r2)
 20005e8:	014147c4 	movi	r5,1311
 20005ec:	200d0bc0 	call	200d0bc <__udivsi3>
 20005f0:	80800015 	stw	r2,0(r16)

	return true;
 20005f4:	00800044 	movi	r2,1
 20005f8:	e0bfff15 	stw	r2,-4(fp)
 20005fc:	e0bfff17 	ldw	r2,-4(fp)
}
 2000600:	e037883a 	mov	sp,fp
 2000604:	dfc00217 	ldw	ra,8(sp)
 2000608:	df000117 	ldw	fp,4(sp)
 200060c:	dc000017 	ldw	r16,0(sp)
 2000610:	dec00304 	addi	sp,sp,12
 2000614:	f800283a 	ret

02000618 <_ZN16CEth_UART_SocketD2Ev>:
	m_pDevice = alt_up_rs232_open_dev(UARTNAME);

	m_iTxFrameNr = 0;
}

CEth_UART_Socket::~CEth_UART_Socket()
 2000618:	defffe04 	addi	sp,sp,-8
 200061c:	df000115 	stw	fp,4(sp)
 2000620:	df000104 	addi	fp,sp,4
 2000624:	e13fff15 	stw	r4,-4(fp)
{


}
 2000628:	e037883a 	mov	sp,fp
 200062c:	df000017 	ldw	fp,0(sp)
 2000630:	dec00104 	addi	sp,sp,4
 2000634:	f800283a 	ret

02000638 <_ZN16CEth_UART_SocketD1Ev>:
	m_pDevice = alt_up_rs232_open_dev(UARTNAME);

	m_iTxFrameNr = 0;
}

CEth_UART_Socket::~CEth_UART_Socket()
 2000638:	defffe04 	addi	sp,sp,-8
 200063c:	df000115 	stw	fp,4(sp)
 2000640:	df000104 	addi	fp,sp,4
 2000644:	e13fff15 	stw	r4,-4(fp)
{


}
 2000648:	e037883a 	mov	sp,fp
 200064c:	df000017 	ldw	fp,0(sp)
 2000650:	dec00104 	addi	sp,sp,4
 2000654:	f800283a 	ret

02000658 <_ZN16CEth_UART_Socket5ResetEv>:
	}

	return i;
}

bool CEth_UART_Socket::Reset()
 2000658:	defffe04 	addi	sp,sp,-8
 200065c:	df000115 	stw	fp,4(sp)
 2000660:	df000104 	addi	fp,sp,4
 2000664:	e13fff15 	stw	r4,-4(fp)
{
	m_iTxFrameNr = 0;
 2000668:	e0bfff17 	ldw	r2,-4(fp)
 200066c:	10000115 	stw	zero,4(r2)
	return true;
 2000670:	00800044 	movi	r2,1
}
 2000674:	e037883a 	mov	sp,fp
 2000678:	df000017 	ldw	fp,0(sp)
 200067c:	dec00104 	addi	sp,sp,4
 2000680:	f800283a 	ret

02000684 <_ZN16CEth_UART_Socket16ReceiveImmediateEPhm>:
	}

	return i;
}

alt_32 CEth_UART_Socket::ReceiveImmediate(data_t *p_Data, alt_u32 iLength)
 2000684:	defff804 	addi	sp,sp,-32
 2000688:	dfc00715 	stw	ra,28(sp)
 200068c:	df000615 	stw	fp,24(sp)
 2000690:	df000604 	addi	fp,sp,24
 2000694:	e13ffd15 	stw	r4,-12(fp)
 2000698:	e17ffe15 	stw	r5,-8(fp)
 200069c:	e1bfff15 	stw	r6,-4(fp)
{
	alt_u32 uiCount = 0;
 20006a0:	e03ffb15 	stw	zero,-20(fp)
	alt_u8 uiParity = 0;
 20006a4:	e03ffc05 	stb	zero,-16(fp)
	alt_u32 i = 0;
 20006a8:	e03ffa15 	stw	zero,-24(fp)

	uiCount = alt_up_rs232_get_used_space_in_read_FIFO(m_pDevice);
 20006ac:	e0bffd17 	ldw	r2,-12(fp)
 20006b0:	11000017 	ldw	r4,0(r2)
 20006b4:	2019a2c0 	call	2019a2c <alt_up_rs232_get_used_space_in_read_FIFO>
 20006b8:	e0bffb15 	stw	r2,-20(fp)

	while(uiCount > 0 && iLength > 0)
 20006bc:	00001a06 	br	2000728 <_ZN16CEth_UART_Socket16ReceiveImmediateEPhm+0xa4>
	{
		while(uiCount > 0 && iLength > 0)
		{
			alt_up_rs232_read_data(m_pDevice, (alt_u8*) p_Data+i, &uiParity);
 20006c0:	e0bffd17 	ldw	r2,-12(fp)
 20006c4:	11000017 	ldw	r4,0(r2)
 20006c8:	e0fffa17 	ldw	r3,-24(fp)
 20006cc:	e0bffe17 	ldw	r2,-8(fp)
 20006d0:	188b883a 	add	r5,r3,r2
 20006d4:	e1bffc04 	addi	r6,fp,-16
 20006d8:	2019b400 	call	2019b40 <alt_up_rs232_read_data>
			uiCount--;
 20006dc:	e0bffb17 	ldw	r2,-20(fp)
 20006e0:	10bfffc4 	addi	r2,r2,-1
 20006e4:	e0bffb15 	stw	r2,-20(fp)
			iLength--;
 20006e8:	e0bfff17 	ldw	r2,-4(fp)
 20006ec:	10bfffc4 	addi	r2,r2,-1
 20006f0:	e0bfff15 	stw	r2,-4(fp)
			i++;
 20006f4:	e0bffa17 	ldw	r2,-24(fp)
 20006f8:	10800044 	addi	r2,r2,1
 20006fc:	e0bffa15 	stw	r2,-24(fp)

	uiCount = alt_up_rs232_get_used_space_in_read_FIFO(m_pDevice);

	while(uiCount > 0 && iLength > 0)
	{
		while(uiCount > 0 && iLength > 0)
 2000700:	e0bffb17 	ldw	r2,-20(fp)
 2000704:	1005003a 	cmpeq	r2,r2,zero
 2000708:	1000031e 	bne	r2,zero,2000718 <_ZN16CEth_UART_Socket16ReceiveImmediateEPhm+0x94>
 200070c:	e0bfff17 	ldw	r2,-4(fp)
 2000710:	1004c03a 	cmpne	r2,r2,zero
 2000714:	103fea1e 	bne	r2,zero,20006c0 <_ZN16CEth_UART_Socket16ReceiveImmediateEPhm+0x3c>
			alt_up_rs232_read_data(m_pDevice, (alt_u8*) p_Data+i, &uiParity);
			uiCount--;
			iLength--;
			i++;
		}
		uiCount = alt_up_rs232_get_used_space_in_read_FIFO(m_pDevice);
 2000718:	e0bffd17 	ldw	r2,-12(fp)
 200071c:	11000017 	ldw	r4,0(r2)
 2000720:	2019a2c0 	call	2019a2c <alt_up_rs232_get_used_space_in_read_FIFO>
 2000724:	e0bffb15 	stw	r2,-20(fp)
	alt_u8 uiParity = 0;
	alt_u32 i = 0;

	uiCount = alt_up_rs232_get_used_space_in_read_FIFO(m_pDevice);

	while(uiCount > 0 && iLength > 0)
 2000728:	e0bffb17 	ldw	r2,-20(fp)
 200072c:	1005003a 	cmpeq	r2,r2,zero
 2000730:	1000031e 	bne	r2,zero,2000740 <_ZN16CEth_UART_Socket16ReceiveImmediateEPhm+0xbc>
 2000734:	e0bfff17 	ldw	r2,-4(fp)
 2000738:	1004c03a 	cmpne	r2,r2,zero
 200073c:	103ff01e 	bne	r2,zero,2000700 <_ZN16CEth_UART_Socket16ReceiveImmediateEPhm+0x7c>
			i++;
		}
		uiCount = alt_up_rs232_get_used_space_in_read_FIFO(m_pDevice);
	}

	return i;
 2000740:	e0bffa17 	ldw	r2,-24(fp)
}
 2000744:	e037883a 	mov	sp,fp
 2000748:	dfc00117 	ldw	ra,4(sp)
 200074c:	df000017 	ldw	fp,0(sp)
 2000750:	dec00204 	addi	sp,sp,8
 2000754:	f800283a 	ret

02000758 <_ZN16CEth_UART_Socket7ReceiveEPhmm>:


	return !fail;
}

alt_32 CEth_UART_Socket::Receive(data_t *p_Data, alt_u32 iLength, alt_u32 iTimeOut)
 2000758:	defff504 	addi	sp,sp,-44
 200075c:	dfc00a15 	stw	ra,40(sp)
 2000760:	df000915 	stw	fp,36(sp)
 2000764:	df000904 	addi	fp,sp,36
 2000768:	e13ffb15 	stw	r4,-20(fp)
 200076c:	e17ffc15 	stw	r5,-16(fp)
 2000770:	e1bffd15 	stw	r6,-12(fp)
 2000774:	e1fffe15 	stw	r7,-8(fp)
{
	alt_u32 iTime = 10;
 2000778:	00800284 	movi	r2,10
 200077c:	e0bff915 	stw	r2,-28(fp)
	alt_u32 uiCount = 0;
 2000780:	e03ff815 	stw	zero,-32(fp)
	alt_u8 uiParity = 0;
 2000784:	e03ffa05 	stb	zero,-24(fp)
	alt_u32 i = 0;
 2000788:	e03ff715 	stw	zero,-36(fp)

	iTimeOut *= 400;
 200078c:	e13ffe17 	ldw	r4,-8(fp)
 2000790:	01406404 	movi	r5,400
 2000794:	200d0cc0 	call	200d0cc <__mulsi3>
 2000798:	e0bffe15 	stw	r2,-8(fp)

	do
	{
		uiCount = alt_up_rs232_get_used_space_in_read_FIFO(m_pDevice);
 200079c:	e0bffb17 	ldw	r2,-20(fp)
 20007a0:	11000017 	ldw	r4,0(r2)
 20007a4:	2019a2c0 	call	2019a2c <alt_up_rs232_get_used_space_in_read_FIFO>
 20007a8:	e0bff815 	stw	r2,-32(fp)
		iTime += 5;
 20007ac:	e0bff917 	ldw	r2,-28(fp)
 20007b0:	10800144 	addi	r2,r2,5
 20007b4:	e0bff915 	stw	r2,-28(fp)
		if(iTime > iTimeOut)
 20007b8:	e0fff917 	ldw	r3,-28(fp)
 20007bc:	e0bffe17 	ldw	r2,-8(fp)
 20007c0:	10c0022e 	bgeu	r2,r3,20007cc <_ZN16CEth_UART_Socket7ReceiveEPhmm+0x74>
			return 0;
 20007c4:	e03fff15 	stw	zero,-4(fp)
 20007c8:	00002806 	br	200086c <_ZN16CEth_UART_Socket7ReceiveEPhmm+0x114>
	alt_u8 uiParity = 0;
	alt_u32 i = 0;

	iTimeOut *= 400;

	do
 20007cc:	e0bff817 	ldw	r2,-32(fp)
 20007d0:	1005003a 	cmpeq	r2,r2,zero
 20007d4:	103ff11e 	bne	r2,zero,200079c <_ZN16CEth_UART_Socket7ReceiveEPhmm+0x44>
		iTime += 5;
		if(iTime > iTimeOut)
			return 0;
	}while(uiCount == 0);

	while(uiCount > 0 && iLength > 0)
 20007d8:	00001c06 	br	200084c <_ZN16CEth_UART_Socket7ReceiveEPhmm+0xf4>
	{
		while(uiCount > 0 && iLength > 0)
		{
			alt_up_rs232_read_data(m_pDevice, (alt_u8*) p_Data+i, &uiParity);
 20007dc:	e0bffb17 	ldw	r2,-20(fp)
 20007e0:	11000017 	ldw	r4,0(r2)
 20007e4:	e0fff717 	ldw	r3,-36(fp)
 20007e8:	e0bffc17 	ldw	r2,-16(fp)
 20007ec:	188b883a 	add	r5,r3,r2
 20007f0:	e1bffa04 	addi	r6,fp,-24
 20007f4:	2019b400 	call	2019b40 <alt_up_rs232_read_data>
			uiCount--;
 20007f8:	e0bff817 	ldw	r2,-32(fp)
 20007fc:	10bfffc4 	addi	r2,r2,-1
 2000800:	e0bff815 	stw	r2,-32(fp)
			iLength--;
 2000804:	e0bffd17 	ldw	r2,-12(fp)
 2000808:	10bfffc4 	addi	r2,r2,-1
 200080c:	e0bffd15 	stw	r2,-12(fp)
			i++;
 2000810:	e0bff717 	ldw	r2,-36(fp)
 2000814:	10800044 	addi	r2,r2,1
 2000818:	e0bff715 	stw	r2,-36(fp)
			return 0;
	}while(uiCount == 0);

	while(uiCount > 0 && iLength > 0)
	{
		while(uiCount > 0 && iLength > 0)
 200081c:	e0bff817 	ldw	r2,-32(fp)
 2000820:	1005003a 	cmpeq	r2,r2,zero
 2000824:	1000031e 	bne	r2,zero,2000834 <_ZN16CEth_UART_Socket7ReceiveEPhmm+0xdc>
 2000828:	e0bffd17 	ldw	r2,-12(fp)
 200082c:	1004c03a 	cmpne	r2,r2,zero
 2000830:	103fea1e 	bne	r2,zero,20007dc <_ZN16CEth_UART_Socket7ReceiveEPhmm+0x84>
			alt_up_rs232_read_data(m_pDevice, (alt_u8*) p_Data+i, &uiParity);
			uiCount--;
			iLength--;
			i++;
		}
		delay(1);
 2000834:	01000044 	movi	r4,1
 2000838:	20001f40 	call	20001f4 <_Z5delayj>
		uiCount = alt_up_rs232_get_used_space_in_read_FIFO(m_pDevice);
 200083c:	e0bffb17 	ldw	r2,-20(fp)
 2000840:	11000017 	ldw	r4,0(r2)
 2000844:	2019a2c0 	call	2019a2c <alt_up_rs232_get_used_space_in_read_FIFO>
 2000848:	e0bff815 	stw	r2,-32(fp)
		iTime += 5;
		if(iTime > iTimeOut)
			return 0;
	}while(uiCount == 0);

	while(uiCount > 0 && iLength > 0)
 200084c:	e0bff817 	ldw	r2,-32(fp)
 2000850:	1005003a 	cmpeq	r2,r2,zero
 2000854:	1000031e 	bne	r2,zero,2000864 <_ZN16CEth_UART_Socket7ReceiveEPhmm+0x10c>
 2000858:	e0bffd17 	ldw	r2,-12(fp)
 200085c:	1004c03a 	cmpne	r2,r2,zero
 2000860:	103fee1e 	bne	r2,zero,200081c <_ZN16CEth_UART_Socket7ReceiveEPhmm+0xc4>
		}
		delay(1);
		uiCount = alt_up_rs232_get_used_space_in_read_FIFO(m_pDevice);
	}

	return i;
 2000864:	e0bff717 	ldw	r2,-36(fp)
 2000868:	e0bfff15 	stw	r2,-4(fp)
 200086c:	e0bfff17 	ldw	r2,-4(fp)
}
 2000870:	e037883a 	mov	sp,fp
 2000874:	dfc00117 	ldw	ra,4(sp)
 2000878:	df000017 	ldw	fp,0(sp)
 200087c:	dec00204 	addi	sp,sp,8
 2000880:	f800283a 	ret

02000884 <_ZN16CEth_UART_Socket4SendEPhm>:


}


bool CEth_UART_Socket::Send(data_t *p_Data, alt_u32 iLength)
 2000884:	defff704 	addi	sp,sp,-36
 2000888:	dfc00815 	stw	ra,32(sp)
 200088c:	df000715 	stw	fp,28(sp)
 2000890:	df000704 	addi	fp,sp,28
 2000894:	e13ffc15 	stw	r4,-16(fp)
 2000898:	e17ffd15 	stw	r5,-12(fp)
 200089c:	e1bffe15 	stw	r6,-8(fp)
{
	alt_u32 uiFreeSpace = 0;
 20008a0:	e03ffb15 	stw	zero,-20(fp)
	bool fail = false;
 20008a4:	e03ffa05 	stb	zero,-24(fp)

	while(iLength > 0)
 20008a8:	00002906 	br	2000950 <_ZN16CEth_UART_Socket4SendEPhm+0xcc>
	{
		uiFreeSpace = alt_up_rs232_get_available_space_in_write_FIFO(m_pDevice);
 20008ac:	e0bffc17 	ldw	r2,-16(fp)
 20008b0:	11000017 	ldw	r4,0(r2)
 20008b4:	2019a680 	call	2019a68 <alt_up_rs232_get_available_space_in_write_FIFO>
 20008b8:	e0bffb15 	stw	r2,-20(fp)

		if(uiFreeSpace > iLength)
 20008bc:	e0fffb17 	ldw	r3,-20(fp)
 20008c0:	e0bffe17 	ldw	r2,-8(fp)
 20008c4:	10c0022e 	bgeu	r2,r3,20008d0 <_ZN16CEth_UART_Socket4SendEPhm+0x4c>
			uiFreeSpace = iLength;
 20008c8:	e0bffe17 	ldw	r2,-8(fp)
 20008cc:	e0bffb15 	stw	r2,-20(fp)

		for (alt_u32 i = 0; i < uiFreeSpace; i++)
 20008d0:	e03ff915 	stw	zero,-28(fp)
 20008d4:	00001706 	br	2000934 <_ZN16CEth_UART_Socket4SendEPhm+0xb0>
		{
			fail = fail || (alt_up_rs232_write_data(m_pDevice, *p_Data) < 0);
 20008d8:	e0bffa03 	ldbu	r2,-24(fp)
 20008dc:	1004c03a 	cmpne	r2,r2,zero
 20008e0:	1000081e 	bne	r2,zero,2000904 <_ZN16CEth_UART_Socket4SendEPhm+0x80>
 20008e4:	e0bffc17 	ldw	r2,-16(fp)
 20008e8:	11000017 	ldw	r4,0(r2)
 20008ec:	e0bffd17 	ldw	r2,-12(fp)
 20008f0:	10800003 	ldbu	r2,0(r2)
 20008f4:	11403fcc 	andi	r5,r2,255
 20008f8:	2019af80 	call	2019af8 <alt_up_rs232_write_data>
 20008fc:	1004403a 	cmpge	r2,r2,zero
 2000900:	1000031e 	bne	r2,zero,2000910 <_ZN16CEth_UART_Socket4SendEPhm+0x8c>
 2000904:	00800044 	movi	r2,1
 2000908:	e0bfff05 	stb	r2,-4(fp)
 200090c:	00000106 	br	2000914 <_ZN16CEth_UART_Socket4SendEPhm+0x90>
 2000910:	e03fff05 	stb	zero,-4(fp)
 2000914:	e0bfff03 	ldbu	r2,-4(fp)
 2000918:	e0bffa05 	stb	r2,-24(fp)
			p_Data++;
 200091c:	e0bffd17 	ldw	r2,-12(fp)
 2000920:	10800044 	addi	r2,r2,1
 2000924:	e0bffd15 	stw	r2,-12(fp)
		uiFreeSpace = alt_up_rs232_get_available_space_in_write_FIFO(m_pDevice);

		if(uiFreeSpace > iLength)
			uiFreeSpace = iLength;

		for (alt_u32 i = 0; i < uiFreeSpace; i++)
 2000928:	e0bff917 	ldw	r2,-28(fp)
 200092c:	10800044 	addi	r2,r2,1
 2000930:	e0bff915 	stw	r2,-28(fp)
 2000934:	e0fff917 	ldw	r3,-28(fp)
 2000938:	e0bffb17 	ldw	r2,-20(fp)
 200093c:	18bfe636 	bltu	r3,r2,20008d8 <_ZN16CEth_UART_Socket4SendEPhm+0x54>
		{
			fail = fail || (alt_up_rs232_write_data(m_pDevice, *p_Data) < 0);
			p_Data++;
		}
		iLength = iLength - uiFreeSpace;
 2000940:	e0bffe17 	ldw	r2,-8(fp)
 2000944:	e0fffb17 	ldw	r3,-20(fp)
 2000948:	10c5c83a 	sub	r2,r2,r3
 200094c:	e0bffe15 	stw	r2,-8(fp)
bool CEth_UART_Socket::Send(data_t *p_Data, alt_u32 iLength)
{
	alt_u32 uiFreeSpace = 0;
	bool fail = false;

	while(iLength > 0)
 2000950:	e0bffe17 	ldw	r2,-8(fp)
 2000954:	1004c03a 	cmpne	r2,r2,zero
 2000958:	103fd41e 	bne	r2,zero,20008ac <_ZN16CEth_UART_Socket4SendEPhm+0x28>
		}
		iLength = iLength - uiFreeSpace;
	}


	return !fail;
 200095c:	e0bffa03 	ldbu	r2,-24(fp)
 2000960:	1080005c 	xori	r2,r2,1
 2000964:	10803fcc 	andi	r2,r2,255
}
 2000968:	e037883a 	mov	sp,fp
 200096c:	dfc00117 	ldw	ra,4(sp)
 2000970:	df000017 	ldw	fp,0(sp)
 2000974:	dec00204 	addi	sp,sp,8
 2000978:	f800283a 	ret

0200097c <_ZN16CEth_UART_SocketC1Ev>:
#include <system.h>
#include "..\etc\utility.h"

#define UARTNAME "/dev/uart_0"

CEth_UART_Socket::CEth_UART_Socket()
 200097c:	defffd04 	addi	sp,sp,-12
 2000980:	dfc00215 	stw	ra,8(sp)
 2000984:	df000115 	stw	fp,4(sp)
 2000988:	df000104 	addi	fp,sp,4
 200098c:	e13fff15 	stw	r4,-4(fp)
{
	m_pDevice = alt_up_rs232_open_dev(UARTNAME);
 2000990:	010080b4 	movhi	r4,514
 2000994:	212e0b04 	addi	r4,r4,-18388
 2000998:	2019cd80 	call	2019cd8 <alt_up_rs232_open_dev>
 200099c:	e0ffff17 	ldw	r3,-4(fp)
 20009a0:	18800015 	stw	r2,0(r3)

	m_iTxFrameNr = 0;
 20009a4:	e0bfff17 	ldw	r2,-4(fp)
 20009a8:	10000115 	stw	zero,4(r2)
}
 20009ac:	e037883a 	mov	sp,fp
 20009b0:	dfc00117 	ldw	ra,4(sp)
 20009b4:	df000017 	ldw	fp,0(sp)
 20009b8:	dec00204 	addi	sp,sp,8
 20009bc:	f800283a 	ret

020009c0 <_ZN16CEth_UART_SocketC2Ev>:
#include <system.h>
#include "..\etc\utility.h"

#define UARTNAME "/dev/uart_0"

CEth_UART_Socket::CEth_UART_Socket()
 20009c0:	defffd04 	addi	sp,sp,-12
 20009c4:	dfc00215 	stw	ra,8(sp)
 20009c8:	df000115 	stw	fp,4(sp)
 20009cc:	df000104 	addi	fp,sp,4
 20009d0:	e13fff15 	stw	r4,-4(fp)
{
	m_pDevice = alt_up_rs232_open_dev(UARTNAME);
 20009d4:	010080b4 	movhi	r4,514
 20009d8:	212e0b04 	addi	r4,r4,-18388
 20009dc:	2019cd80 	call	2019cd8 <alt_up_rs232_open_dev>
 20009e0:	e0ffff17 	ldw	r3,-4(fp)
 20009e4:	18800015 	stw	r2,0(r3)

	m_iTxFrameNr = 0;
 20009e8:	e0bfff17 	ldw	r2,-4(fp)
 20009ec:	10000115 	stw	zero,4(r2)
}
 20009f0:	e037883a 	mov	sp,fp
 20009f4:	dfc00117 	ldw	ra,4(sp)
 20009f8:	df000017 	ldw	fp,0(sp)
 20009fc:	dec00204 	addi	sp,sp,8
 2000a00:	f800283a 	ret

02000a04 <_Z13motor_settingmmmmmm>:
#include <sys/time.h>



void motor_setting(unsigned long phase1, unsigned long duty1,unsigned long phase2, unsigned long duty2,
		unsigned long period,unsigned long enable)
 2000a04:	defff504 	addi	sp,sp,-44
 2000a08:	df000a15 	stw	fp,40(sp)
 2000a0c:	df000a04 	addi	fp,sp,40
 2000a10:	e13ffc15 	stw	r4,-16(fp)
 2000a14:	e17ffd15 	stw	r5,-12(fp)
 2000a18:	e1bffe15 	stw	r6,-8(fp)
 2000a1c:	e1ffff15 	stw	r7,-4(fp)
{
	volatile unsigned int * pwm_en		=(volatile unsigned int *)	PWM_EN;
 2000a20:	00a18034 	movhi	r2,34304
 2000a24:	10844004 	addi	r2,r2,4352
 2000a28:	e0bffb15 	stw	r2,-20(fp)
	volatile unsigned int * pwm_period	=(volatile unsigned int *)	PWM_PERIOD;
 2000a2c:	00a18034 	movhi	r2,34304
 2000a30:	10844104 	addi	r2,r2,4356
 2000a34:	e0bffa15 	stw	r2,-24(fp)
	volatile unsigned int * pwm_phase1	=(volatile unsigned int *)	PWM_PHASE1;
 2000a38:	00a18034 	movhi	r2,34304
 2000a3c:	10844404 	addi	r2,r2,4368
 2000a40:	e0bff915 	stw	r2,-28(fp)
	volatile unsigned int * pwm_phase2	=(volatile unsigned int *)	PWM_PHASE2;
 2000a44:	00a18034 	movhi	r2,34304
 2000a48:	10844504 	addi	r2,r2,4372
 2000a4c:	e0bff815 	stw	r2,-32(fp)
	volatile unsigned int * pwm_duty1	=(volatile unsigned int *)	PWM_DUTY1;
 2000a50:	00a18034 	movhi	r2,34304
 2000a54:	10844204 	addi	r2,r2,4360
 2000a58:	e0bff715 	stw	r2,-36(fp)
	volatile unsigned int * pwm_duty2	=(volatile unsigned int *)	PWM_DUTY2;
 2000a5c:	00a18034 	movhi	r2,34304
 2000a60:	10844304 	addi	r2,r2,4364
 2000a64:	e0bff615 	stw	r2,-40(fp)

	// Check for invalid parameters
	if(enable > 2)
 2000a68:	e0800217 	ldw	r2,8(fp)
 2000a6c:	108000f0 	cmpltui	r2,r2,3
 2000a70:	1000011e 	bne	r2,zero,2000a78 <_Z13motor_settingmmmmmm+0x74>
		enable = 0;
 2000a74:	e0000215 	stw	zero,8(fp)

	if(duty1 > 100000)
 2000a78:	e0fffd17 	ldw	r3,-12(fp)
 2000a7c:	008000b4 	movhi	r2,2
 2000a80:	10a1a804 	addi	r2,r2,-31072
 2000a84:	10c0032e 	bgeu	r2,r3,2000a94 <_Z13motor_settingmmmmmm+0x90>
		duty1 = 100000;
 2000a88:	008000b4 	movhi	r2,2
 2000a8c:	10a1a804 	addi	r2,r2,-31072
 2000a90:	e0bffd15 	stw	r2,-12(fp)

	if(duty2 > 100000)
 2000a94:	e0ffff17 	ldw	r3,-4(fp)
 2000a98:	008000b4 	movhi	r2,2
 2000a9c:	10a1a804 	addi	r2,r2,-31072
 2000aa0:	10c0032e 	bgeu	r2,r3,2000ab0 <_Z13motor_settingmmmmmm+0xac>
		duty2 = 100000;
 2000aa4:	008000b4 	movhi	r2,2
 2000aa8:	10a1a804 	addi	r2,r2,-31072
 2000aac:	e0bfff15 	stw	r2,-4(fp)

	// Write settings to PWM-generator
	* pwm_en		= enable;
 2000ab0:	e0fffb17 	ldw	r3,-20(fp)
 2000ab4:	e0800217 	ldw	r2,8(fp)
 2000ab8:	18800015 	stw	r2,0(r3)
	* pwm_period	= period;
 2000abc:	e0fffa17 	ldw	r3,-24(fp)
 2000ac0:	e0800117 	ldw	r2,4(fp)
 2000ac4:	18800015 	stw	r2,0(r3)
	* pwm_phase1	= phase1;
 2000ac8:	e0fff917 	ldw	r3,-28(fp)
 2000acc:	e0bffc17 	ldw	r2,-16(fp)
 2000ad0:	18800015 	stw	r2,0(r3)
	* pwm_phase2	= phase2;
 2000ad4:	e0fff817 	ldw	r3,-32(fp)
 2000ad8:	e0bffe17 	ldw	r2,-8(fp)
 2000adc:	18800015 	stw	r2,0(r3)
	* pwm_duty1		= duty1;
 2000ae0:	e0fff717 	ldw	r3,-36(fp)
 2000ae4:	e0bffd17 	ldw	r2,-12(fp)
 2000ae8:	18800015 	stw	r2,0(r3)
	* pwm_duty2		= duty2;
 2000aec:	e0fff617 	ldw	r3,-40(fp)
 2000af0:	e0bfff17 	ldw	r2,-4(fp)
 2000af4:	18800015 	stw	r2,0(r3)

}
 2000af8:	e037883a 	mov	sp,fp
 2000afc:	df000017 	ldw	fp,0(sp)
 2000b00:	dec00104 	addi	sp,sp,4
 2000b04:	f800283a 	ret

02000b08 <_Z8setSpeedl>:

void setSpeed(alt_32 uiSpeed)
 2000b08:	defffb04 	addi	sp,sp,-20
 2000b0c:	dfc00415 	stw	ra,16(sp)
 2000b10:	df000315 	stw	fp,12(sp)
 2000b14:	df000304 	addi	fp,sp,12
 2000b18:	e13fff15 	stw	r4,-4(fp)
{
	if(uiSpeed > 0)
 2000b1c:	e0bfff17 	ldw	r2,-4(fp)
 2000b20:	10800050 	cmplti	r2,r2,1
 2000b24:	10000b1e 	bne	r2,zero,2000b54 <_Z8setSpeedl+0x4c>
	{
		motor_setting(0,uiSpeed,0,0,100000,1);
 2000b28:	e17fff17 	ldw	r5,-4(fp)
 2000b2c:	008000b4 	movhi	r2,2
 2000b30:	10a1a804 	addi	r2,r2,-31072
 2000b34:	d8800015 	stw	r2,0(sp)
 2000b38:	00800044 	movi	r2,1
 2000b3c:	d8800115 	stw	r2,4(sp)
 2000b40:	0009883a 	mov	r4,zero
 2000b44:	000d883a 	mov	r6,zero
 2000b48:	000f883a 	mov	r7,zero
 2000b4c:	2000a040 	call	2000a04 <_Z13motor_settingmmmmmm>
 2000b50:	00000c06 	br	2000b84 <_Z8setSpeedl+0x7c>
	}
	else
	{
		motor_setting(0,0,0,-1 * uiSpeed,100000,2);
 2000b54:	e0bfff17 	ldw	r2,-4(fp)
 2000b58:	0085c83a 	sub	r2,zero,r2
 2000b5c:	100f883a 	mov	r7,r2
 2000b60:	008000b4 	movhi	r2,2
 2000b64:	10a1a804 	addi	r2,r2,-31072
 2000b68:	d8800015 	stw	r2,0(sp)
 2000b6c:	00800084 	movi	r2,2
 2000b70:	d8800115 	stw	r2,4(sp)
 2000b74:	0009883a 	mov	r4,zero
 2000b78:	000b883a 	mov	r5,zero
 2000b7c:	000d883a 	mov	r6,zero
 2000b80:	2000a040 	call	2000a04 <_Z13motor_settingmmmmmm>
	}

}
 2000b84:	e037883a 	mov	sp,fp
 2000b88:	dfc00117 	ldw	ra,4(sp)
 2000b8c:	df000017 	ldw	fp,0(sp)
 2000b90:	dec00204 	addi	sp,sp,8
 2000b94:	f800283a 	ret

02000b98 <_Z22measureSpeedUnblockingv>:
		return current_speed;
	else
		return current_speed * -1;
}

alt_32 measureSpeedUnblocking(void)
 2000b98:	defff904 	addi	sp,sp,-28
 2000b9c:	dfc00615 	stw	ra,24(sp)
 2000ba0:	df000515 	stw	fp,20(sp)
 2000ba4:	df000504 	addi	fp,sp,20
{
	volatile alt_u32 * pEnc = (volatile alt_u32 *) (0x80000000 | MOTOR_ENCODER_0_BASE);
 2000ba8:	00a18034 	movhi	r2,34304
 2000bac:	10844c04 	addi	r2,r2,4400
 2000bb0:	e0bffc15 	stw	r2,-16(fp)
	volatile alt_u32 * pDir = (volatile alt_u32 *) (0x80000000 | MOTOR_ENCODER_0_BASE + 4);
 2000bb4:	00a18034 	movhi	r2,34304
 2000bb8:	10844d04 	addi	r2,r2,4404
 2000bbc:	e0bffb15 	stw	r2,-20(fp)
	volatile alt_u32 pDirOld;
	volatile alt_u32 current_speed;

	// NOTE: Call every 10 ms!!!!
	current_speed = *pEnc;
 2000bc0:	e0bffc17 	ldw	r2,-16(fp)
 2000bc4:	10800017 	ldw	r2,0(r2)
 2000bc8:	e0bffe15 	stw	r2,-8(fp)
	pDirOld = *pDir;
 2000bcc:	e0bffb17 	ldw	r2,-20(fp)
 2000bd0:	10800017 	ldw	r2,0(r2)
 2000bd4:	e0bffd15 	stw	r2,-12(fp)
	*pEnc =  1;
 2000bd8:	e0fffc17 	ldw	r3,-16(fp)
 2000bdc:	00800044 	movi	r2,1
 2000be0:	18800015 	stw	r2,0(r3)

	current_speed *= 100;
 2000be4:	e13ffe17 	ldw	r4,-8(fp)
 2000be8:	01401904 	movi	r5,100
 2000bec:	200d0cc0 	call	200d0cc <__mulsi3>
 2000bf0:	e0bffe15 	stw	r2,-8(fp)
	current_speed *= WHEEL_SCALE;
 2000bf4:	e13ffe17 	ldw	r4,-8(fp)
 2000bf8:	01405cc4 	movi	r5,371
 2000bfc:	200d0cc0 	call	200d0cc <__mulsi3>
 2000c00:	e0bffe15 	stw	r2,-8(fp)
	current_speed /= 4288;
 2000c04:	e13ffe17 	ldw	r4,-8(fp)
 2000c08:	01443004 	movi	r5,4288
 2000c0c:	200d0bc0 	call	200d0bc <__udivsi3>
 2000c10:	e0bffe15 	stw	r2,-8(fp)

	if(pDirOld == INVERTED)
 2000c14:	e0bffd17 	ldw	r2,-12(fp)
 2000c18:	108000a0 	cmpeqi	r2,r2,2
 2000c1c:	10803fcc 	andi	r2,r2,255
 2000c20:	1005003a 	cmpeq	r2,r2,zero
 2000c24:	1000031e 	bne	r2,zero,2000c34 <_Z22measureSpeedUnblockingv+0x9c>
		return current_speed;
 2000c28:	e0bffe17 	ldw	r2,-8(fp)
 2000c2c:	e0bfff15 	stw	r2,-4(fp)
 2000c30:	00000306 	br	2000c40 <_Z22measureSpeedUnblockingv+0xa8>
	else
		return current_speed * -1;
 2000c34:	e0bffe17 	ldw	r2,-8(fp)
 2000c38:	0085c83a 	sub	r2,zero,r2
 2000c3c:	e0bfff15 	stw	r2,-4(fp)
 2000c40:	e0bfff17 	ldw	r2,-4(fp)
}
 2000c44:	e037883a 	mov	sp,fp
 2000c48:	dfc00117 	ldw	ra,4(sp)
 2000c4c:	df000017 	ldw	fp,0(sp)
 2000c50:	dec00204 	addi	sp,sp,8
 2000c54:	f800283a 	ret

02000c58 <_Z12measureSpeedv>:
		motor_setting(0,0,0,-1 * uiSpeed,100000,2);
	}

}

alt_32 measureSpeed(void)
 2000c58:	defffa04 	addi	sp,sp,-24
 2000c5c:	dfc00515 	stw	ra,20(sp)
 2000c60:	df000415 	stw	fp,16(sp)
 2000c64:	df000404 	addi	fp,sp,16
{
	volatile alt_u32 * pEnc = (volatile alt_u32 *) (0x80000000 | MOTOR_ENCODER_0_BASE);
 2000c68:	00a18034 	movhi	r2,34304
 2000c6c:	10844c04 	addi	r2,r2,4400
 2000c70:	e0bffd15 	stw	r2,-12(fp)
	volatile alt_u32 * pDir = (volatile alt_u32 *) (0x80000000 | MOTOR_ENCODER_0_BASE + 4);
 2000c74:	00a18034 	movhi	r2,34304
 2000c78:	10844d04 	addi	r2,r2,4404
 2000c7c:	e0bffc15 	stw	r2,-16(fp)
	volatile alt_u32 current_speed;

	*pEnc =  1;
 2000c80:	e0fffd17 	ldw	r3,-12(fp)
 2000c84:	00800044 	movi	r2,1
 2000c88:	18800015 	stw	r2,0(r3)
	delay(10);
 2000c8c:	01000284 	movi	r4,10
 2000c90:	20001f40 	call	20001f4 <_Z5delayj>
	current_speed = *pEnc;
 2000c94:	e0bffd17 	ldw	r2,-12(fp)
 2000c98:	10800017 	ldw	r2,0(r2)
 2000c9c:	e0bffe15 	stw	r2,-8(fp)



	current_speed *= 100;
 2000ca0:	e13ffe17 	ldw	r4,-8(fp)
 2000ca4:	01401904 	movi	r5,100
 2000ca8:	200d0cc0 	call	200d0cc <__mulsi3>
 2000cac:	e0bffe15 	stw	r2,-8(fp)
	current_speed *= WHEEL_SCALE;
 2000cb0:	e13ffe17 	ldw	r4,-8(fp)
 2000cb4:	01405cc4 	movi	r5,371
 2000cb8:	200d0cc0 	call	200d0cc <__mulsi3>
 2000cbc:	e0bffe15 	stw	r2,-8(fp)
	current_speed /= 4288;
 2000cc0:	e13ffe17 	ldw	r4,-8(fp)
 2000cc4:	01443004 	movi	r5,4288
 2000cc8:	200d0bc0 	call	200d0bc <__udivsi3>
 2000ccc:	e0bffe15 	stw	r2,-8(fp)

	if(*pDir == INVERTED)
 2000cd0:	e0bffc17 	ldw	r2,-16(fp)
 2000cd4:	10800017 	ldw	r2,0(r2)
 2000cd8:	108000a0 	cmpeqi	r2,r2,2
 2000cdc:	10803fcc 	andi	r2,r2,255
 2000ce0:	1005003a 	cmpeq	r2,r2,zero
 2000ce4:	1000031e 	bne	r2,zero,2000cf4 <_Z12measureSpeedv+0x9c>
		return current_speed;
 2000ce8:	e0bffe17 	ldw	r2,-8(fp)
 2000cec:	e0bfff15 	stw	r2,-4(fp)
 2000cf0:	00000306 	br	2000d00 <_Z12measureSpeedv+0xa8>
	else
		return current_speed * -1;
 2000cf4:	e0bffe17 	ldw	r2,-8(fp)
 2000cf8:	0085c83a 	sub	r2,zero,r2
 2000cfc:	e0bfff15 	stw	r2,-4(fp)
 2000d00:	e0bfff17 	ldw	r2,-4(fp)
}
 2000d04:	e037883a 	mov	sp,fp
 2000d08:	dfc00117 	ldw	ra,4(sp)
 2000d0c:	df000017 	ldw	fp,0(sp)
 2000d10:	dec00204 	addi	sp,sp,8
 2000d14:	f800283a 	ret

02000d18 <_Z15measuredistancem>:
 *      Author: Florian
 */

#include "ultrasound_interface.h"

alt_32 measuredistance(const alt_u32 base_address)
 2000d18:	defff904 	addi	sp,sp,-28
 2000d1c:	dfc00615 	stw	ra,24(sp)
 2000d20:	df000515 	stw	fp,20(sp)
 2000d24:	df000504 	addi	fp,sp,20
 2000d28:	e13fff15 	stw	r4,-4(fp)
{
	alt_u32 state;
	alt_u32 measure_data;
	alt_32 distance;
	alt_u32 iTimeout = 0;
 2000d2c:	e03ffb15 	stw	zero,-20(fp)

	state = get_sensor_state(base_address);
 2000d30:	e0bfff17 	ldw	r2,-4(fp)
 2000d34:	10800204 	addi	r2,r2,8
 2000d38:	10800037 	ldwio	r2,0(r2)
 2000d3c:	e0bffe15 	stw	r2,-8(fp)
	while (state == 1)
 2000d40:	00000706 	br	2000d60 <_Z15measuredistancem+0x48>
	{
		state = get_sensor_state(base_address);
 2000d44:	e0bfff17 	ldw	r2,-4(fp)
 2000d48:	10800204 	addi	r2,r2,8
 2000d4c:	10800037 	ldwio	r2,0(r2)
 2000d50:	e0bffe15 	stw	r2,-8(fp)
		iTimeout++;
 2000d54:	e0bffb17 	ldw	r2,-20(fp)
 2000d58:	10800044 	addi	r2,r2,1
 2000d5c:	e0bffb15 	stw	r2,-20(fp)
	alt_u32 measure_data;
	alt_32 distance;
	alt_u32 iTimeout = 0;

	state = get_sensor_state(base_address);
	while (state == 1)
 2000d60:	e0bffe17 	ldw	r2,-8(fp)
 2000d64:	10800060 	cmpeqi	r2,r2,1
 2000d68:	103ff61e 	bne	r2,zero,2000d44 <_Z15measuredistancem+0x2c>
		iTimeout++;
		//if(iTimeout > 20)
		//	return -1;
	}

	trigger_clear(base_address);
 2000d6c:	e0bfff17 	ldw	r2,-4(fp)
 2000d70:	10000035 	stwio	zero,0(r2)
	trigger_sensor(base_address);
 2000d74:	e0bfff17 	ldw	r2,-4(fp)
 2000d78:	1007883a 	mov	r3,r2
 2000d7c:	00800044 	movi	r2,1
 2000d80:	18800035 	stwio	r2,0(r3)
	trigger_clear(base_address);
 2000d84:	e0bfff17 	ldw	r2,-4(fp)
 2000d88:	10000035 	stwio	zero,0(r2)

	state = get_sensor_state(base_address);
 2000d8c:	e0bfff17 	ldw	r2,-4(fp)
 2000d90:	10800204 	addi	r2,r2,8
 2000d94:	10800037 	ldwio	r2,0(r2)
 2000d98:	e0bffe15 	stw	r2,-8(fp)
	iTimeout = 0;
 2000d9c:	e03ffb15 	stw	zero,-20(fp)
	while (state != 2)
 2000da0:	00000706 	br	2000dc0 <_Z15measuredistancem+0xa8>
	{
		state = get_sensor_state(base_address);
 2000da4:	e0bfff17 	ldw	r2,-4(fp)
 2000da8:	10800204 	addi	r2,r2,8
 2000dac:	10800037 	ldwio	r2,0(r2)
 2000db0:	e0bffe15 	stw	r2,-8(fp)
		iTimeout++;
 2000db4:	e0bffb17 	ldw	r2,-20(fp)
 2000db8:	10800044 	addi	r2,r2,1
 2000dbc:	e0bffb15 	stw	r2,-20(fp)
	trigger_sensor(base_address);
	trigger_clear(base_address);

	state = get_sensor_state(base_address);
	iTimeout = 0;
	while (state != 2)
 2000dc0:	e0bffe17 	ldw	r2,-8(fp)
 2000dc4:	10800098 	cmpnei	r2,r2,2
 2000dc8:	103ff61e 	bne	r2,zero,2000da4 <_Z15measuredistancem+0x8c>
		iTimeout++;
		//if(iTimeout > 20)
		//	return -1;
	}

	measure_data = get_sensor_data(base_address);
 2000dcc:	e0bfff17 	ldw	r2,-4(fp)
 2000dd0:	10800104 	addi	r2,r2,4
 2000dd4:	10800037 	ldwio	r2,0(r2)
 2000dd8:	e0bffd15 	stw	r2,-12(fp)
	if (measure_data == -1)
 2000ddc:	e0bffd17 	ldw	r2,-12(fp)
 2000de0:	10bfffd8 	cmpnei	r2,r2,-1
 2000de4:	1000031e 	bne	r2,zero,2000df4 <_Z15measuredistancem+0xdc>
		distance = -1;
 2000de8:	00bfffc4 	movi	r2,-1
 2000dec:	e0bffc15 	stw	r2,-16(fp)
 2000df0:	00000406 	br	2000e04 <_Z15measuredistancem+0xec>
	else
	{
		distance = measure_data / 588;
 2000df4:	e13ffd17 	ldw	r4,-12(fp)
 2000df8:	01409304 	movi	r5,588
 2000dfc:	200d0bc0 	call	200d0bc <__udivsi3>
 2000e00:	e0bffc15 	stw	r2,-16(fp)
	}

	return distance;
 2000e04:	e0bffc17 	ldw	r2,-16(fp)
}
 2000e08:	e037883a 	mov	sp,fp
 2000e0c:	dfc00117 	ldw	ra,4(sp)
 2000e10:	df000017 	ldw	fp,0(sp)
 2000e14:	dec00204 	addi	sp,sp,8
 2000e18:	f800283a 	ret

02000e1c <_Z14alarm_callbackPv>:
 * Alarm callback. This function is called by the timer after 10ms. The return value will be
 * the next timer value.
 * This function will simply set the bCycleFinished to true. Thereby the WaitForEndOfCycle function
 * will not block anymore.
 */
alt_u32 alarm_callback(void* context)
 2000e1c:	defffe04 	addi	sp,sp,-8
 2000e20:	df000115 	stw	fp,4(sp)
 2000e24:	df000104 	addi	fp,sp,4
 2000e28:	e13fff15 	stw	r4,-4(fp)
{
	bCycleFinished = true;
 2000e2c:	00800044 	movi	r2,1
 2000e30:	d0a70805 	stb	r2,-25568(gp)
	return 10;
 2000e34:	00800284 	movi	r2,10
}
 2000e38:	e037883a 	mov	sp,fp
 2000e3c:	df000017 	ldw	fp,0(sp)
 2000e40:	dec00104 	addi	sp,sp,4
 2000e44:	f800283a 	ret

02000e48 <_Z17waitForEndOfCyclev>:
	}

	return true;
}

bool waitForEndOfCycle()
 2000e48:	deffff04 	addi	sp,sp,-4
 2000e4c:	df000015 	stw	fp,0(sp)
 2000e50:	d839883a 	mov	fp,sp
{
	while(!bCycleFinished)
 2000e54:	00000306 	br	2000e64 <_Z17waitForEndOfCyclev+0x1c>
	{
		*pLED = 0x08;
 2000e58:	d0e00017 	ldw	r3,-32768(gp)
 2000e5c:	00800204 	movi	r2,8
 2000e60:	18800015 	stw	r2,0(r3)
	return true;
}

bool waitForEndOfCycle()
{
	while(!bCycleFinished)
 2000e64:	d0a70803 	ldbu	r2,-25568(gp)
 2000e68:	1080005c 	xori	r2,r2,1
 2000e6c:	10803fcc 	andi	r2,r2,255
 2000e70:	1004c03a 	cmpne	r2,r2,zero
 2000e74:	103ff81e 	bne	r2,zero,2000e58 <_Z17waitForEndOfCyclev+0x10>
	{
		*pLED = 0x08;
	}
	*pLED = *pLED & 0xF7;
 2000e78:	d0e00017 	ldw	r3,-32768(gp)
 2000e7c:	d0a00017 	ldw	r2,-32768(gp)
 2000e80:	10800017 	ldw	r2,0(r2)
 2000e84:	10803dcc 	andi	r2,r2,247
 2000e88:	18800015 	stw	r2,0(r3)

	bCycleFinished = false;
 2000e8c:	d0270805 	stb	zero,-25568(gp)
	return true;
 2000e90:	00800044 	movi	r2,1
}
 2000e94:	e037883a 	mov	sp,fp
 2000e98:	df000017 	ldw	fp,0(sp)
 2000e9c:	dec00104 	addi	sp,sp,4
 2000ea0:	f800283a 	ret

02000ea4 <_Z17setUpPIControllerv>:
	}

	return true;
}

bool setUpPIController()
 2000ea4:	deffb904 	addi	sp,sp,-284
 2000ea8:	dfc04615 	stw	ra,280(sp)
 2000eac:	df004515 	stw	fp,276(sp)
 2000eb0:	ddc04415 	stw	r23,272(sp)
 2000eb4:	dd804315 	stw	r22,268(sp)
 2000eb8:	dd404215 	stw	r21,264(sp)
 2000ebc:	dd004115 	stw	r20,260(sp)
 2000ec0:	dcc04015 	stw	r19,256(sp)
 2000ec4:	dc803f15 	stw	r18,252(sp)
 2000ec8:	dc403e15 	stw	r17,248(sp)
 2000ecc:	dc003d15 	stw	r16,244(sp)
 2000ed0:	df003d04 	addi	fp,sp,244
 2000ed4:	00808074 	movhi	r2,513
 2000ed8:	10ae5a04 	addi	r2,r2,-18072
 2000edc:	e0bfef15 	stw	r2,-68(fp)
 2000ee0:	008080b4 	movhi	r2,514
 2000ee4:	10ada904 	addi	r2,r2,-18780
 2000ee8:	e0bff015 	stw	r2,-64(fp)
 2000eec:	e0bff104 	addi	r2,fp,-60
 2000ef0:	e0ffc504 	addi	r3,fp,-236
 2000ef4:	10c00015 	stw	r3,0(r2)
 2000ef8:	00c08034 	movhi	r3,512
 2000efc:	18c44404 	addi	r3,r3,4368
 2000f00:	10c00115 	stw	r3,4(r2)
 2000f04:	16c00215 	stw	sp,8(r2)
 2000f08:	e13fe904 	addi	r4,fp,-92
 2000f0c:	200d1040 	call	200d104 <_Unwind_SjLj_Register>
{
	CCarMessage *pMessage = 0;
 2000f10:	e03fc815 	stw	zero,-224(fp)
	alt_u32 uiTries = 0;
 2000f14:	e03fc715 	stw	zero,-228(fp)
	alt_u8 cBuffer[128];
	alt_u32 uiReceivedCount = 0;
 2000f18:	e03fc615 	stw	zero,-232(fp)

	alt_32 uiT;

	// Stop
	iDesiredSpeed = 0;
 2000f1c:	d0270315 	stw	zero,-25588(gp)
	iCurrentSpeed = 0;
 2000f20:	d0270215 	stw	zero,-25592(gp)

	// set speed to 0
	setSpeed(0);
 2000f24:	00bfffc4 	movi	r2,-1
 2000f28:	e0bfea15 	stw	r2,-88(fp)
 2000f2c:	0009883a 	mov	r4,zero
 2000f30:	2000b080 	call	2000b08 <_Z8setSpeedl>
	delay (250);
 2000f34:	01003e84 	movi	r4,250
 2000f38:	20001f40 	call	20001f4 <_Z5delayj>

	// Full speed forward
	setSpeed(30000);
 2000f3c:	011d4c04 	movi	r4,30000
 2000f40:	2000b080 	call	2000b08 <_Z8setSpeedl>
	delay (500);
 2000f44:	01007d04 	movi	r4,500
 2000f48:	20001f40 	call	20001f4 <_Z5delayj>
	// Measure speed at T1 (=10ns)
	uiT = measureSpeed();
 2000f4c:	2000c580 	call	2000c58 <_Z12measureSpeedv>
 2000f50:	e0bfc515 	stw	r2,-236(fp)
	// reset speed to 0
	setSpeed(0);
 2000f54:	0009883a 	mov	r4,zero
 2000f58:	2000b080 	call	2000b08 <_Z8setSpeedl>
	delay(250);
 2000f5c:	01003e84 	movi	r4,250
 2000f60:	20001f40 	call	20001f4 <_Z5delayj>
	// Full speed backwards
	setSpeed(-30000);
 2000f64:	0122b404 	movi	r4,-30000
 2000f68:	2000b080 	call	2000b08 <_Z8setSpeedl>
	delay (500);
 2000f6c:	01007d04 	movi	r4,500
 2000f70:	20001f40 	call	20001f4 <_Z5delayj>

	// Measure speed at Tk (=10020ns) which should be the VMax
	uiMaxSpeed = measureSpeed();
 2000f74:	2000c580 	call	2000c58 <_Z12measureSpeedv>
 2000f78:	d0a70415 	stw	r2,-25584(gp)

	setSpeed(0);
 2000f7c:	0009883a 	mov	r4,zero
 2000f80:	2000b080 	call	2000b08 <_Z8setSpeedl>
	delay(250);
 2000f84:	01003e84 	movi	r4,250
 2000f88:	20001f40 	call	20001f4 <_Z5delayj>
	// Reset the controller if exists
	if(pController){
 2000f8c:	d0a70517 	ldw	r2,-25580(gp)
 2000f90:	1005003a 	cmpeq	r2,r2,zero
 2000f94:	1000091e 	bne	r2,zero,2000fbc <_Z17setUpPIControllerv+0x118>
		delete(pController);
 2000f98:	d0a70517 	ldw	r2,-25580(gp)
 2000f9c:	e0bffd15 	stw	r2,-12(fp)
 2000fa0:	e0fffd17 	ldw	r3,-12(fp)
 2000fa4:	1805003a 	cmpeq	r2,r3,zero
 2000fa8:	1000041e 	bne	r2,zero,2000fbc <_Z17setUpPIControllerv+0x118>
 2000fac:	e13ffd17 	ldw	r4,-12(fp)
 2000fb0:	20021780 	call	2002178 <_ZN13CPIControllerD1Ev>
 2000fb4:	e13ffd17 	ldw	r4,-12(fp)
 2000fb8:	200c1380 	call	200c138 <_ZdlPv>
	}
	//preset values for PI Controller, to allow skipping of control init
	uiMaxSpeed=500;
 2000fbc:	00807d04 	movi	r2,500
 2000fc0:	d0a70415 	stw	r2,-25584(gp)
	uiT=3;
 2000fc4:	008000c4 	movi	r2,3
 2000fc8:	e0bfc515 	stw	r2,-236(fp)
	pController = new CPIController(uiMaxSpeed, uiT, -1*uiMaxSpeed, uiMaxSpeed);
 2000fcc:	00bfffc4 	movi	r2,-1
 2000fd0:	e0bfea15 	stw	r2,-88(fp)
 2000fd4:	01000704 	movi	r4,28
 2000fd8:	200c6200 	call	200c620 <_Znwm>
 2000fdc:	e0bffc15 	stw	r2,-16(fp)
 2000fe0:	d0a70417 	ldw	r2,-25584(gp)
 2000fe4:	100b883a 	mov	r5,r2
 2000fe8:	d0a70417 	ldw	r2,-25584(gp)
 2000fec:	0085c83a 	sub	r2,zero,r2
 2000ff0:	100f883a 	mov	r7,r2
 2000ff4:	d0a70417 	ldw	r2,-25584(gp)
 2000ff8:	d8800015 	stw	r2,0(sp)
 2000ffc:	00800084 	movi	r2,2
 2001000:	e0bfea15 	stw	r2,-88(fp)
 2001004:	e13ffc17 	ldw	r4,-16(fp)
 2001008:	e1bfc517 	ldw	r6,-236(fp)
 200100c:	20020e80 	call	20020e8 <_ZN13CPIControllerC1Ellll>
 2001010:	e0bffc17 	ldw	r2,-16(fp)
 2001014:	d0a70515 	stw	r2,-25580(gp)
 2001018:	00000a06 	br	2001044 <_Z17setUpPIControllerv+0x1a0>
 200101c:	e0ffff17 	ldw	r3,-4(fp)
 2001020:	e0fff715 	stw	r3,-36(fp)
 2001024:	e13ffc17 	ldw	r4,-16(fp)
 2001028:	200c1380 	call	200c138 <_ZdlPv>
 200102c:	e0bff717 	ldw	r2,-36(fp)
 2001030:	e0bfff15 	stw	r2,-4(fp)
 2001034:	00bfffc4 	movi	r2,-1
 2001038:	e0bfea15 	stw	r2,-88(fp)
 200103c:	e13fff17 	ldw	r4,-4(fp)
 2001040:	200d3d00 	call	200d3d0 <_Unwind_SjLj_Resume>

	// Get the MeasurementRequestMessage
	while(true)
	{
		if(uiTries >= 5)
 2001044:	e0bfc717 	ldw	r2,-228(fp)
 2001048:	10800170 	cmpltui	r2,r2,5
 200104c:	1000071e 	bne	r2,zero,200106c <_Z17setUpPIControllerv+0x1c8>
		{
			*pLED = *pLED | 0x04;
 2001050:	d0e00017 	ldw	r3,-32768(gp)
 2001054:	d0a00017 	ldw	r2,-32768(gp)
 2001058:	10800017 	ldw	r2,0(r2)
 200105c:	10800114 	ori	r2,r2,4
 2001060:	18800015 	stw	r2,0(r3)
			return false;
 2001064:	e03ffb15 	stw	zero,-20(fp)
 2001068:	00009d06 	br	20012e0 <_Z17setUpPIControllerv+0x43c>
		}

		uiReceivedCount = pSocket->Receive(cBuffer, 128, 10);
 200106c:	d1270617 	ldw	r4,-25576(gp)
 2001070:	e17fc904 	addi	r5,fp,-220
 2001074:	00bfffc4 	movi	r2,-1
 2001078:	e0bfea15 	stw	r2,-88(fp)
 200107c:	01802004 	movi	r6,128
 2001080:	01c00284 	movi	r7,10
 2001084:	20007580 	call	2000758 <_ZN16CEth_UART_Socket7ReceiveEPhmm>
 2001088:	e0bfc615 	stw	r2,-232(fp)
		if(uiReceivedCount <= 0)
 200108c:	e0bfc617 	ldw	r2,-232(fp)
 2001090:	1005003a 	cmpeq	r2,r2,zero
 2001094:	103feb1e 	bne	r2,zero,2001044 <_Z17setUpPIControllerv+0x1a0>
			continue;

		if(pProtocol)
 2001098:	d0a70717 	ldw	r2,-25572(gp)
 200109c:	1005003a 	cmpeq	r2,r2,zero
 20010a0:	10000a1e 	bne	r2,zero,20010cc <_Z17setUpPIControllerv+0x228>
		{
			delete(pProtocol);
 20010a4:	d0a70717 	ldw	r2,-25572(gp)
 20010a8:	1005003a 	cmpeq	r2,r2,zero
 20010ac:	1000061e 	bne	r2,zero,20010c8 <_Z17setUpPIControllerv+0x224>
 20010b0:	d0a70717 	ldw	r2,-25572(gp)
 20010b4:	10800017 	ldw	r2,0(r2)
 20010b8:	10800104 	addi	r2,r2,4
 20010bc:	10800017 	ldw	r2,0(r2)
 20010c0:	d1270717 	ldw	r4,-25572(gp)
 20010c4:	103ee83a 	callr	r2
			pProtocol = 0;
 20010c8:	d0270715 	stw	zero,-25572(gp)
		}
		pProtocol = new CCarProtocol(cBuffer, uiReceivedCount);
 20010cc:	00bfffc4 	movi	r2,-1
 20010d0:	e0bfea15 	stw	r2,-88(fp)
 20010d4:	01000b04 	movi	r4,44
 20010d8:	200c6200 	call	200c620 <_Znwm>
 20010dc:	e0bffa15 	stw	r2,-24(fp)
 20010e0:	e1bfc617 	ldw	r6,-232(fp)
 20010e4:	e17fc904 	addi	r5,fp,-220
 20010e8:	00800044 	movi	r2,1
 20010ec:	e0bfea15 	stw	r2,-88(fp)
 20010f0:	e13ffa17 	ldw	r4,-24(fp)
 20010f4:	2008b8c0 	call	2008b8c <_ZN12CCarProtocolC1EPhi>
 20010f8:	e0fffa17 	ldw	r3,-24(fp)
 20010fc:	d0e70715 	stw	r3,-25572(gp)
		if(pProtocol == 0 || !pProtocol->isValid() || pProtocol->getMessageCount() != 1)
 2001100:	d0a70717 	ldw	r2,-25572(gp)
 2001104:	1005003a 	cmpeq	r2,r2,zero
 2001108:	10001d1e 	bne	r2,zero,2001180 <_Z17setUpPIControllerv+0x2dc>
 200110c:	00001006 	br	2001150 <_Z17setUpPIControllerv+0x2ac>
 2001110:	e7003b04 	addi	fp,fp,236
 2001114:	e0bfea17 	ldw	r2,-88(fp)
 2001118:	e0ffeb17 	ldw	r3,-84(fp)
 200111c:	e0ffff15 	stw	r3,-4(fp)
 2001120:	10800060 	cmpeqi	r2,r2,1
 2001124:	103fbd1e 	bne	r2,zero,200101c <_Z17setUpPIControllerv+0x178>
 2001128:	e0bfff17 	ldw	r2,-4(fp)
 200112c:	e0bff615 	stw	r2,-40(fp)
		if(pProtocol)
		{
			delete(pProtocol);
			pProtocol = 0;
		}
		pProtocol = new CCarProtocol(cBuffer, uiReceivedCount);
 2001130:	e13ffa17 	ldw	r4,-24(fp)
 2001134:	200c1380 	call	200c138 <_ZdlPv>
 2001138:	e0fff617 	ldw	r3,-40(fp)
 200113c:	e0ffff15 	stw	r3,-4(fp)
 2001140:	00bfffc4 	movi	r2,-1
 2001144:	e0bfea15 	stw	r2,-88(fp)
 2001148:	e13fff17 	ldw	r4,-4(fp)
 200114c:	200d3d00 	call	200d3d0 <_Unwind_SjLj_Resume>
		if(pProtocol == 0 || !pProtocol->isValid() || pProtocol->getMessageCount() != 1)
 2001150:	d1270717 	ldw	r4,-25572(gp)
 2001154:	00bfffc4 	movi	r2,-1
 2001158:	e0bfea15 	stw	r2,-88(fp)
 200115c:	20076080 	call	2007608 <_ZN12CCarProtocol7isValidEv>
 2001160:	1080005c 	xori	r2,r2,1
 2001164:	10803fcc 	andi	r2,r2,255
 2001168:	1004c03a 	cmpne	r2,r2,zero
 200116c:	1000041e 	bne	r2,zero,2001180 <_Z17setUpPIControllerv+0x2dc>
 2001170:	d1270717 	ldw	r4,-25572(gp)
 2001174:	20077440 	call	2007744 <_ZN12CCarProtocol15getMessageCountEv>
 2001178:	10800060 	cmpeqi	r2,r2,1
 200117c:	1000031e 	bne	r2,zero,200118c <_Z17setUpPIControllerv+0x2e8>
 2001180:	00800044 	movi	r2,1
 2001184:	e0bff945 	stb	r2,-27(fp)
 2001188:	00000106 	br	2001190 <_Z17setUpPIControllerv+0x2ec>
 200118c:	e03ff945 	stb	zero,-27(fp)
 2001190:	e0bff943 	ldbu	r2,-27(fp)
 2001194:	10803fcc 	andi	r2,r2,255
 2001198:	1005003a 	cmpeq	r2,r2,zero
 200119c:	1000041e 	bne	r2,zero,20011b0 <_Z17setUpPIControllerv+0x30c>
		{
			uiTries++;
 20011a0:	e0bfc717 	ldw	r2,-228(fp)
 20011a4:	10800044 	addi	r2,r2,1
 20011a8:	e0bfc715 	stw	r2,-228(fp)
			continue;
 20011ac:	003fa506 	br	2001044 <_Z17setUpPIControllerv+0x1a0>
		}

		pMessage = pProtocol->getNthMessage(0);
 20011b0:	d1270717 	ldw	r4,-25572(gp)
 20011b4:	00bfffc4 	movi	r2,-1
 20011b8:	e0bfea15 	stw	r2,-88(fp)
 20011bc:	000b883a 	mov	r5,zero
 20011c0:	20076e40 	call	20076e4 <_ZN12CCarProtocol13getNthMessageEm>
 20011c4:	e0bfc815 	stw	r2,-224(fp)
		if(pMessage->isValid() && pMessage->getType() == 0x05)
 20011c8:	e13fc817 	ldw	r4,-224(fp)
 20011cc:	200701c0 	call	200701c <_ZN11CCarMessage7isValidEv>
 20011d0:	1080005c 	xori	r2,r2,1
 20011d4:	10803fcc 	andi	r2,r2,255
 20011d8:	1004c03a 	cmpne	r2,r2,zero
 20011dc:	1000081e 	bne	r2,zero,2001200 <_Z17setUpPIControllerv+0x35c>
 20011e0:	e13fc817 	ldw	r4,-224(fp)
 20011e4:	2006fc40 	call	2006fc4 <_ZN11CCarMessage7getTypeEv>
 20011e8:	10803fcc 	andi	r2,r2,255
 20011ec:	10800158 	cmpnei	r2,r2,5
 20011f0:	1000031e 	bne	r2,zero,2001200 <_Z17setUpPIControllerv+0x35c>
 20011f4:	00c00044 	movi	r3,1
 20011f8:	e0fff905 	stb	r3,-28(fp)
 20011fc:	00000106 	br	2001204 <_Z17setUpPIControllerv+0x360>
 2001200:	e03ff905 	stb	zero,-28(fp)
 2001204:	e0bff903 	ldbu	r2,-28(fp)
 2001208:	10803fcc 	andi	r2,r2,255
 200120c:	1004c03a 	cmpne	r2,r2,zero
 2001210:	1000011e 	bne	r2,zero,2001218 <_Z17setUpPIControllerv+0x374>
	uiMaxSpeed=500;
	uiT=3;
	pController = new CPIController(uiMaxSpeed, uiT, -1*uiMaxSpeed, uiMaxSpeed);

	// Get the MeasurementRequestMessage
	while(true)
 2001214:	003f8b06 	br	2001044 <_Z17setUpPIControllerv+0x1a0>
		pMessage = pProtocol->getNthMessage(0);
		if(pMessage->isValid() && pMessage->getType() == 0x05)
			break;
	}

	*pLED = *pLED & 0xFE;
 2001218:	d0e00017 	ldw	r3,-32768(gp)
 200121c:	d0a00017 	ldw	r2,-32768(gp)
 2001220:	10800017 	ldw	r2,0(r2)
 2001224:	10803f8c 	andi	r2,r2,254
 2001228:	18800015 	stw	r2,0(r3)
	((CMotorMeasurementMessage*) pMessage)->answerMessage((alt_16) uiMaxSpeed, WHEEL_SCALE, (alt_16) uiMaxSpeed, (alt_16) uiT, 0);
 200122c:	e13fc817 	ldw	r4,-224(fp)
 2001230:	d0a70417 	ldw	r2,-25584(gp)
 2001234:	117fffcc 	andi	r5,r2,65535
 2001238:	2960001c 	xori	r5,r5,32768
 200123c:	29600004 	addi	r5,r5,-32768
 2001240:	d0a70417 	ldw	r2,-25584(gp)
 2001244:	11ffffcc 	andi	r7,r2,65535
 2001248:	39e0001c 	xori	r7,r7,32768
 200124c:	39e00004 	addi	r7,r7,-32768
 2001250:	e0bfc517 	ldw	r2,-236(fp)
 2001254:	10bfffcc 	andi	r2,r2,65535
 2001258:	10a0001c 	xori	r2,r2,32768
 200125c:	10a00004 	addi	r2,r2,-32768
 2001260:	d8800015 	stw	r2,0(sp)
 2001264:	d8000115 	stw	zero,4(sp)
 2001268:	00bfffc4 	movi	r2,-1
 200126c:	e0bfea15 	stw	r2,-88(fp)
 2001270:	01805cc4 	movi	r6,371
 2001274:	2008c900 	call	2008c90 <_ZN24CMotorMeasurementMessage13answerMessageEstsss>

	pProtocol->getBytes(cBuffer);
 2001278:	d1270717 	ldw	r4,-25572(gp)
 200127c:	e17fc904 	addi	r5,fp,-220
 2001280:	200776c0 	call	200776c <_ZN12CCarProtocol8getBytesEPh>
	pSocket->Send(cBuffer, pProtocol->getLength());
 2001284:	d0a70617 	ldw	r2,-25576(gp)
 2001288:	e0bff815 	stw	r2,-32(fp)
 200128c:	d1270717 	ldw	r4,-25572(gp)
 2001290:	20076340 	call	2007634 <_ZN12CCarProtocol9getLengthEv>
 2001294:	100d883a 	mov	r6,r2
 2001298:	e17fc904 	addi	r5,fp,-220
 200129c:	e13ff817 	ldw	r4,-32(fp)
 20012a0:	20008840 	call	2000884 <_ZN16CEth_UART_Socket4SendEPhm>

	if(pProtocol){
 20012a4:	d0a70717 	ldw	r2,-25572(gp)
 20012a8:	1005003a 	cmpeq	r2,r2,zero
 20012ac:	10000a1e 	bne	r2,zero,20012d8 <_Z17setUpPIControllerv+0x434>
		delete(pProtocol);
 20012b0:	d0a70717 	ldw	r2,-25572(gp)
 20012b4:	1005003a 	cmpeq	r2,r2,zero
 20012b8:	1000061e 	bne	r2,zero,20012d4 <_Z17setUpPIControllerv+0x430>
 20012bc:	d0a70717 	ldw	r2,-25572(gp)
 20012c0:	10800017 	ldw	r2,0(r2)
 20012c4:	10800104 	addi	r2,r2,4
 20012c8:	10800017 	ldw	r2,0(r2)
 20012cc:	d1270717 	ldw	r4,-25572(gp)
 20012d0:	103ee83a 	callr	r2
		pProtocol = 0;
 20012d4:	d0270715 	stw	zero,-25572(gp)
	}

	return true;
 20012d8:	00c00044 	movi	r3,1
 20012dc:	e0fffb15 	stw	r3,-20(fp)
 20012e0:	e0bffb17 	ldw	r2,-20(fp)
 20012e4:	e0bffe15 	stw	r2,-8(fp)
 20012e8:	e13fe904 	addi	r4,fp,-92
 20012ec:	200d1140 	call	200d114 <_Unwind_SjLj_Unregister>
}
 20012f0:	e0bffe17 	ldw	r2,-8(fp)
 20012f4:	e037883a 	mov	sp,fp
 20012f8:	dfc00917 	ldw	ra,36(sp)
 20012fc:	df000817 	ldw	fp,32(sp)
 2001300:	ddc00717 	ldw	r23,28(sp)
 2001304:	dd800617 	ldw	r22,24(sp)
 2001308:	dd400517 	ldw	r21,20(sp)
 200130c:	dd000417 	ldw	r20,16(sp)
 2001310:	dcc00317 	ldw	r19,12(sp)
 2001314:	dc800217 	ldw	r18,8(sp)
 2001318:	dc400117 	ldw	r17,4(sp)
 200131c:	dc000017 	ldw	r16,0(sp)
 2001320:	dec00a04 	addi	sp,sp,40
 2001324:	f800283a 	ret

02001328 <_Z17waitForNextPacketv>:
	}

	return true;
}

bool waitForNextPacket()
 2001328:	deffbe04 	addi	sp,sp,-264
 200132c:	dfc04115 	stw	ra,260(sp)
 2001330:	df004015 	stw	fp,256(sp)
 2001334:	ddc03f15 	stw	r23,252(sp)
 2001338:	dd803e15 	stw	r22,248(sp)
 200133c:	dd403d15 	stw	r21,244(sp)
 2001340:	dd003c15 	stw	r20,240(sp)
 2001344:	dcc03b15 	stw	r19,236(sp)
 2001348:	dc803a15 	stw	r18,232(sp)
 200134c:	dc403915 	stw	r17,228(sp)
 2001350:	dc003815 	stw	r16,224(sp)
 2001354:	df003804 	addi	fp,sp,224
 2001358:	00808074 	movhi	r2,513
 200135c:	10ae5a04 	addi	r2,r2,-18072
 2001360:	e0bff115 	stw	r2,-60(fp)
 2001364:	008080b4 	movhi	r2,514
 2001368:	10adab04 	addi	r2,r2,-18772
 200136c:	e0bff215 	stw	r2,-56(fp)
 2001370:	e0bff304 	addi	r2,fp,-52
 2001374:	e0ffc804 	addi	r3,fp,-224
 2001378:	10c00015 	stw	r3,0(r2)
 200137c:	00c08034 	movhi	r3,512
 2001380:	18c50604 	addi	r3,r3,5144
 2001384:	10c00115 	stw	r3,4(r2)
 2001388:	16c00215 	stw	sp,8(r2)
 200138c:	e13feb04 	addi	r4,fp,-84
 2001390:	200d1040 	call	200d104 <_Unwind_SjLj_Register>
{
	CCarProtocol *pNewProtocol = 0;
 2001394:	e03fca15 	stw	zero,-216(fp)
	CCarMessage *pMessage = 0;
 2001398:	e03fc915 	stw	zero,-220(fp)
	alt_u8 cBuffer[128];
	alt_u32 uiReceivedCount = 0;
 200139c:	e03fc815 	stw	zero,-224(fp)

	// Get new package
	uiReceivedCount = pSocket->ReceiveImmediate(cBuffer, 128);
 20013a0:	d1270617 	ldw	r4,-25576(gp)
 20013a4:	e17fcb04 	addi	r5,fp,-212
 20013a8:	00bfffc4 	movi	r2,-1
 20013ac:	e0bfec15 	stw	r2,-80(fp)
 20013b0:	01802004 	movi	r6,128
 20013b4:	20006840 	call	2000684 <_ZN16CEth_UART_Socket16ReceiveImmediateEPhm>
 20013b8:	e0bfc815 	stw	r2,-224(fp)
	if(uiReceivedCount > 0)
 20013bc:	e0bfc817 	ldw	r2,-224(fp)
 20013c0:	1005003a 	cmpeq	r2,r2,zero
 20013c4:	1000581e 	bne	r2,zero,2001528 <_Z17waitForNextPacketv+0x200>
	{
		*pLED = *pLED & 0xEF;
 20013c8:	d0e00017 	ldw	r3,-32768(gp)
 20013cc:	d0a00017 	ldw	r2,-32768(gp)
 20013d0:	10800017 	ldw	r2,0(r2)
 20013d4:	10803bcc 	andi	r2,r2,239
 20013d8:	18800015 	stw	r2,0(r3)

		pNewProtocol = new CCarProtocol(cBuffer, uiReceivedCount);
 20013dc:	01000b04 	movi	r4,44
 20013e0:	200c6200 	call	200c620 <_Znwm>
 20013e4:	e0bffd15 	stw	r2,-12(fp)
 20013e8:	e1bfc817 	ldw	r6,-224(fp)
 20013ec:	e17fcb04 	addi	r5,fp,-212
 20013f0:	00800044 	movi	r2,1
 20013f4:	e0bfec15 	stw	r2,-80(fp)
 20013f8:	e13ffd17 	ldw	r4,-12(fp)
 20013fc:	2008b8c0 	call	2008b8c <_ZN12CCarProtocolC1EPhi>
 2001400:	e0bffd17 	ldw	r2,-12(fp)
 2001404:	e0bfca15 	stw	r2,-216(fp)
		//LOG_DEBUG("cBuffer: '%c%c%c%c' 0x%0X%0X%0X%0X 0x%0X%0X%0X%0X", cBuffer[0], cBuffer[1],
				//cBuffer[2], cBuffer[3], cBuffer[4], cBuffer[5], cBuffer[6], cBuffer[7],
				//cBuffer[8], cBuffer[9], cBuffer[10], cBuffer[11]);

		// Is there a VelocityMessage then set the desired speed along with the message
		if(pNewProtocol != 0 && pNewProtocol->isValid() && pNewProtocol->getMessageCount() > 0)
 2001408:	e0bfca17 	ldw	r2,-216(fp)
 200140c:	1005003a 	cmpeq	r2,r2,zero
 2001410:	10001d1e 	bne	r2,zero,2001488 <_Z17waitForNextPacketv+0x160>
 2001414:	00000d06 	br	200144c <_Z17waitForNextPacketv+0x124>
 2001418:	e7003804 	addi	fp,fp,224
 200141c:	e0ffed17 	ldw	r3,-76(fp)
 2001420:	e0ffff15 	stw	r3,-4(fp)
 2001424:	e0bfff17 	ldw	r2,-4(fp)
 2001428:	e0bff815 	stw	r2,-32(fp)
	uiReceivedCount = pSocket->ReceiveImmediate(cBuffer, 128);
	if(uiReceivedCount > 0)
	{
		*pLED = *pLED & 0xEF;

		pNewProtocol = new CCarProtocol(cBuffer, uiReceivedCount);
 200142c:	e13ffd17 	ldw	r4,-12(fp)
 2001430:	200c1380 	call	200c138 <_ZdlPv>
 2001434:	e0fff817 	ldw	r3,-32(fp)
 2001438:	e0ffff15 	stw	r3,-4(fp)
 200143c:	00bfffc4 	movi	r2,-1
 2001440:	e0bfec15 	stw	r2,-80(fp)
 2001444:	e13fff17 	ldw	r4,-4(fp)
 2001448:	200d3d00 	call	200d3d0 <_Unwind_SjLj_Resume>
		//LOG_DEBUG("cBuffer: '%c%c%c%c' 0x%0X%0X%0X%0X 0x%0X%0X%0X%0X", cBuffer[0], cBuffer[1],
				//cBuffer[2], cBuffer[3], cBuffer[4], cBuffer[5], cBuffer[6], cBuffer[7],
				//cBuffer[8], cBuffer[9], cBuffer[10], cBuffer[11]);

		// Is there a VelocityMessage then set the desired speed along with the message
		if(pNewProtocol != 0 && pNewProtocol->isValid() && pNewProtocol->getMessageCount() > 0)
 200144c:	00bfffc4 	movi	r2,-1
 2001450:	e0bfec15 	stw	r2,-80(fp)
 2001454:	e13fca17 	ldw	r4,-216(fp)
 2001458:	20076080 	call	2007608 <_ZN12CCarProtocol7isValidEv>
 200145c:	1080005c 	xori	r2,r2,1
 2001460:	10803fcc 	andi	r2,r2,255
 2001464:	1004c03a 	cmpne	r2,r2,zero
 2001468:	1000071e 	bne	r2,zero,2001488 <_Z17waitForNextPacketv+0x160>
 200146c:	e13fca17 	ldw	r4,-216(fp)
 2001470:	20077440 	call	2007744 <_ZN12CCarProtocol15getMessageCountEv>
 2001474:	1005003a 	cmpeq	r2,r2,zero
 2001478:	1000031e 	bne	r2,zero,2001488 <_Z17waitForNextPacketv+0x160>
 200147c:	00800044 	movi	r2,1
 2001480:	e0bffc85 	stb	r2,-14(fp)
 2001484:	00000106 	br	200148c <_Z17waitForNextPacketv+0x164>
 2001488:	e03ffc85 	stb	zero,-14(fp)
 200148c:	e0bffc83 	ldbu	r2,-14(fp)
 2001490:	10803fcc 	andi	r2,r2,255
 2001494:	1005003a 	cmpeq	r2,r2,zero
 2001498:	1000281e 	bne	r2,zero,200153c <_Z17waitForNextPacketv+0x214>
		{
			pMessage = pNewProtocol->getNthMessage(0);
 200149c:	00bfffc4 	movi	r2,-1
 20014a0:	e0bfec15 	stw	r2,-80(fp)
 20014a4:	e13fca17 	ldw	r4,-216(fp)
 20014a8:	000b883a 	mov	r5,zero
 20014ac:	20076e40 	call	20076e4 <_ZN12CCarProtocol13getNthMessageEm>
 20014b0:	e0bfc915 	stw	r2,-220(fp)
			if(pMessage != 0 && pMessage->isValid() && pMessage->getType() == 4)
 20014b4:	e0bfc917 	ldw	r2,-220(fp)
 20014b8:	1005003a 	cmpeq	r2,r2,zero
 20014bc:	10000e1e 	bne	r2,zero,20014f8 <_Z17waitForNextPacketv+0x1d0>
 20014c0:	e13fc917 	ldw	r4,-220(fp)
 20014c4:	200701c0 	call	200701c <_ZN11CCarMessage7isValidEv>
 20014c8:	1080005c 	xori	r2,r2,1
 20014cc:	10803fcc 	andi	r2,r2,255
 20014d0:	1004c03a 	cmpne	r2,r2,zero
 20014d4:	1000081e 	bne	r2,zero,20014f8 <_Z17waitForNextPacketv+0x1d0>
 20014d8:	e13fc917 	ldw	r4,-220(fp)
 20014dc:	2006fc40 	call	2006fc4 <_ZN11CCarMessage7getTypeEv>
 20014e0:	10803fcc 	andi	r2,r2,255
 20014e4:	10800118 	cmpnei	r2,r2,4
 20014e8:	1000031e 	bne	r2,zero,20014f8 <_Z17waitForNextPacketv+0x1d0>
 20014ec:	00c00044 	movi	r3,1
 20014f0:	e0fffc45 	stb	r3,-15(fp)
 20014f4:	00000106 	br	20014fc <_Z17waitForNextPacketv+0x1d4>
 20014f8:	e03ffc45 	stb	zero,-15(fp)
 20014fc:	e0bffc43 	ldbu	r2,-15(fp)
 2001500:	10803fcc 	andi	r2,r2,255
 2001504:	1005003a 	cmpeq	r2,r2,zero
 2001508:	10000c1e 	bne	r2,zero,200153c <_Z17waitForNextPacketv+0x214>
			{
				iDesiredSpeed = ((CMotorVelocityMessage*) pMessage)->getIDesiredSpeed();
 200150c:	e13fc917 	ldw	r4,-220(fp)
 2001510:	20020440 	call	2002044 <_ZNK21CMotorVelocityMessage16getIDesiredSpeedEv>
 2001514:	10bfffcc 	andi	r2,r2,65535
 2001518:	10a0001c 	xori	r2,r2,32768
 200151c:	10a00004 	addi	r2,r2,-32768
 2001520:	d0a70315 	stw	r2,-25588(gp)
 2001524:	00000506 	br	200153c <_Z17waitForNextPacketv+0x214>
			}
		}
	}
	else
	{
		*pLED = *pLED | 0x10;
 2001528:	d0e00017 	ldw	r3,-32768(gp)
 200152c:	d0a00017 	ldw	r2,-32768(gp)
 2001530:	10800017 	ldw	r2,0(r2)
 2001534:	10800414 	ori	r2,r2,16
 2001538:	18800015 	stw	r2,0(r3)
	}
	//LOG_DEBUG("send answer of last packet");

	// Send answer of the last packet
	if(pProtocol != 0 && pProtocol->isValid())
 200153c:	d0a70717 	ldw	r2,-25572(gp)
 2001540:	1005003a 	cmpeq	r2,r2,zero
 2001544:	10000b1e 	bne	r2,zero,2001574 <_Z17waitForNextPacketv+0x24c>
 2001548:	d1270717 	ldw	r4,-25572(gp)
 200154c:	00bfffc4 	movi	r2,-1
 2001550:	e0bfec15 	stw	r2,-80(fp)
 2001554:	20076080 	call	2007608 <_ZN12CCarProtocol7isValidEv>
 2001558:	1080005c 	xori	r2,r2,1
 200155c:	10803fcc 	andi	r2,r2,255
 2001560:	1004c03a 	cmpne	r2,r2,zero
 2001564:	1000031e 	bne	r2,zero,2001574 <_Z17waitForNextPacketv+0x24c>
 2001568:	00800044 	movi	r2,1
 200156c:	e0bffc05 	stb	r2,-16(fp)
 2001570:	00000106 	br	2001578 <_Z17waitForNextPacketv+0x250>
 2001574:	e03ffc05 	stb	zero,-16(fp)
 2001578:	e0bffc03 	ldbu	r2,-16(fp)
 200157c:	10803fcc 	andi	r2,r2,255
 2001580:	1005003a 	cmpeq	r2,r2,zero
 2001584:	1000101e 	bne	r2,zero,20015c8 <_Z17waitForNextPacketv+0x2a0>
	{
		if(!pProtocol->getBytes(cBuffer))
 2001588:	d1270717 	ldw	r4,-25572(gp)
 200158c:	e17fcb04 	addi	r5,fp,-212
 2001590:	00bfffc4 	movi	r2,-1
 2001594:	e0bfec15 	stw	r2,-80(fp)
 2001598:	200776c0 	call	200776c <_ZN12CCarProtocol8getBytesEPh>
 200159c:	1080005c 	xori	r2,r2,1
 20015a0:	10803fcc 	andi	r2,r2,255
 20015a4:	1005003a 	cmpeq	r2,r2,zero
 20015a8:	1000071e 	bne	r2,zero,20015c8 <_Z17waitForNextPacketv+0x2a0>
		{
			*pLED = *pLED | 0x02;
 20015ac:	d0e00017 	ldw	r3,-32768(gp)
 20015b0:	d0a00017 	ldw	r2,-32768(gp)
 20015b4:	10800017 	ldw	r2,0(r2)
 20015b8:	10800094 	ori	r2,r2,2
 20015bc:	18800015 	stw	r2,0(r3)
			return false;
 20015c0:	e03ffb15 	stw	zero,-20(fp)
 20015c4:	00003806 	br	20016a8 <_Z17waitForNextPacketv+0x380>
		}
	}
	//LOG_DEBUG("delete old protokol");

	if(pNewProtocol != 0 && pNewProtocol->isValid() && pNewProtocol->getMessageCount() > 0)
 20015c8:	e0bfca17 	ldw	r2,-216(fp)
 20015cc:	1005003a 	cmpeq	r2,r2,zero
 20015d0:	10000f1e 	bne	r2,zero,2001610 <_Z17waitForNextPacketv+0x2e8>
 20015d4:	00bfffc4 	movi	r2,-1
 20015d8:	e0bfec15 	stw	r2,-80(fp)
 20015dc:	e13fca17 	ldw	r4,-216(fp)
 20015e0:	20076080 	call	2007608 <_ZN12CCarProtocol7isValidEv>
 20015e4:	1080005c 	xori	r2,r2,1
 20015e8:	10803fcc 	andi	r2,r2,255
 20015ec:	1004c03a 	cmpne	r2,r2,zero
 20015f0:	1000071e 	bne	r2,zero,2001610 <_Z17waitForNextPacketv+0x2e8>
 20015f4:	e13fca17 	ldw	r4,-216(fp)
 20015f8:	20077440 	call	2007744 <_ZN12CCarProtocol15getMessageCountEv>
 20015fc:	1005003a 	cmpeq	r2,r2,zero
 2001600:	1000031e 	bne	r2,zero,2001610 <_Z17waitForNextPacketv+0x2e8>
 2001604:	00c00044 	movi	r3,1
 2001608:	e0fffa05 	stb	r3,-24(fp)
 200160c:	00000106 	br	2001614 <_Z17waitForNextPacketv+0x2ec>
 2001610:	e03ffa05 	stb	zero,-24(fp)
 2001614:	e0bffa03 	ldbu	r2,-24(fp)
 2001618:	10803fcc 	andi	r2,r2,255
 200161c:	1005003a 	cmpeq	r2,r2,zero
 2001620:	10001f1e 	bne	r2,zero,20016a0 <_Z17waitForNextPacketv+0x378>
	{
		pNewProtocol->getBytes(cBuffer);
 2001624:	e17fcb04 	addi	r5,fp,-212
 2001628:	00bfffc4 	movi	r2,-1
 200162c:	e0bfec15 	stw	r2,-80(fp)
 2001630:	e13fca17 	ldw	r4,-216(fp)
 2001634:	200776c0 	call	200776c <_ZN12CCarProtocol8getBytesEPh>
		pSocket->Send(cBuffer, pNewProtocol->getLength());
 2001638:	d0a70617 	ldw	r2,-25576(gp)
 200163c:	e0bff915 	stw	r2,-28(fp)
 2001640:	e13fca17 	ldw	r4,-216(fp)
 2001644:	20076340 	call	2007634 <_ZN12CCarProtocol9getLengthEv>
 2001648:	100d883a 	mov	r6,r2
 200164c:	e17fcb04 	addi	r5,fp,-212
 2001650:	e13ff917 	ldw	r4,-28(fp)
 2001654:	20008840 	call	2000884 <_ZN16CEth_UART_Socket4SendEPhm>
		printf("send NewProtocol\n");
 2001658:	010080b4 	movhi	r4,514
 200165c:	212e0e04 	addi	r4,r4,-18376
 2001660:	200df7c0 	call	200df7c <puts>
		// Delete old Packet
		if(pProtocol)
 2001664:	d0a70717 	ldw	r2,-25572(gp)
 2001668:	1005003a 	cmpeq	r2,r2,zero
 200166c:	10000a1e 	bne	r2,zero,2001698 <_Z17waitForNextPacketv+0x370>
		{
			delete(pProtocol);
 2001670:	d0a70717 	ldw	r2,-25572(gp)
 2001674:	1005003a 	cmpeq	r2,r2,zero
 2001678:	1000061e 	bne	r2,zero,2001694 <_Z17waitForNextPacketv+0x36c>
 200167c:	d0a70717 	ldw	r2,-25572(gp)
 2001680:	10800017 	ldw	r2,0(r2)
 2001684:	10800104 	addi	r2,r2,4
 2001688:	10800017 	ldw	r2,0(r2)
 200168c:	d1270717 	ldw	r4,-25572(gp)
 2001690:	103ee83a 	callr	r2
			pProtocol = 0;
 2001694:	d0270715 	stw	zero,-25572(gp)
		}

		pProtocol = pNewProtocol;
 2001698:	e0bfca17 	ldw	r2,-216(fp)
 200169c:	d0a70715 	stw	r2,-25572(gp)
	}

	return true;
 20016a0:	00c00044 	movi	r3,1
 20016a4:	e0fffb15 	stw	r3,-20(fp)
 20016a8:	e0bffb17 	ldw	r2,-20(fp)
 20016ac:	e0bffe15 	stw	r2,-8(fp)
 20016b0:	e13feb04 	addi	r4,fp,-84
 20016b4:	200d1140 	call	200d114 <_Unwind_SjLj_Unregister>
}
 20016b8:	e0bffe17 	ldw	r2,-8(fp)
 20016bc:	e037883a 	mov	sp,fp
 20016c0:	dfc00917 	ldw	ra,36(sp)
 20016c4:	df000817 	ldw	fp,32(sp)
 20016c8:	ddc00717 	ldw	r23,28(sp)
 20016cc:	dd800617 	ldw	r22,24(sp)
 20016d0:	dd400517 	ldw	r21,20(sp)
 20016d4:	dd000417 	ldw	r20,16(sp)
 20016d8:	dcc00317 	ldw	r19,12(sp)
 20016dc:	dc800217 	ldw	r18,8(sp)
 20016e0:	dc400117 	ldw	r17,4(sp)
 20016e4:	dc000017 	ldw	r16,0(sp)
 20016e8:	dec00a04 	addi	sp,sp,40
 20016ec:	f800283a 	ret

020016f0 <_Z12controlSpeedv>:


	return false;
}

bool controlSpeed()
 20016f0:	defffb04 	addi	sp,sp,-20
 20016f4:	dfc00415 	stw	ra,16(sp)
 20016f8:	df000315 	stw	fp,12(sp)
 20016fc:	df000304 	addi	fp,sp,12
{
	alt_32 iNextSpeed = 0;
 2001700:	e03ffe15 	stw	zero,-8(fp)

	// Finish running speed measurement
	iCurrentSpeed = measureSpeedUnblocking();
 2001704:	2000b980 	call	2000b98 <_Z22measureSpeedUnblockingv>
 2001708:	d0a70215 	stw	r2,-25592(gp)
	// Call PI-Controller with speed error
	iNextSpeed = pController->control(iDesiredSpeed - iCurrentSpeed);
 200170c:	d1270517 	ldw	r4,-25580(gp)
 2001710:	d0e70317 	ldw	r3,-25588(gp)
 2001714:	d0a70217 	ldw	r2,-25592(gp)
 2001718:	188bc83a 	sub	r5,r3,r2
 200171c:	20021980 	call	2002198 <_ZN13CPIController7controlEl>
 2001720:	e0bffe15 	stw	r2,-8(fp)
	// Set new speed
	setSpeed(iNextSpeed);
 2001724:	e13ffe17 	ldw	r4,-8(fp)
 2001728:	2000b080 	call	2000b08 <_Z8setSpeedl>
	//LOG_DEBUG("iNextSpeed: %hd iCurrentSpeed: %hd",iNextSpeed,iCurrentSpeed);

	// Is there a VelocityMessage then set the current speed as an answer
	if(pProtocol != 0 && pProtocol->isValid() && pProtocol->getMessageCount() > 0)
 200172c:	d0a70717 	ldw	r2,-25572(gp)
 2001730:	1005003a 	cmpeq	r2,r2,zero
 2001734:	10000d1e 	bne	r2,zero,200176c <_Z12controlSpeedv+0x7c>
 2001738:	d1270717 	ldw	r4,-25572(gp)
 200173c:	20076080 	call	2007608 <_ZN12CCarProtocol7isValidEv>
 2001740:	1080005c 	xori	r2,r2,1
 2001744:	10803fcc 	andi	r2,r2,255
 2001748:	1004c03a 	cmpne	r2,r2,zero
 200174c:	1000071e 	bne	r2,zero,200176c <_Z12controlSpeedv+0x7c>
 2001750:	d1270717 	ldw	r4,-25572(gp)
 2001754:	20077440 	call	2007744 <_ZN12CCarProtocol15getMessageCountEv>
 2001758:	1005003a 	cmpeq	r2,r2,zero
 200175c:	1000031e 	bne	r2,zero,200176c <_Z12controlSpeedv+0x7c>
 2001760:	00800044 	movi	r2,1
 2001764:	e0bfff45 	stb	r2,-3(fp)
 2001768:	00000106 	br	2001770 <_Z12controlSpeedv+0x80>
 200176c:	e03fff45 	stb	zero,-3(fp)
 2001770:	e0bfff43 	ldbu	r2,-3(fp)
 2001774:	10803fcc 	andi	r2,r2,255
 2001778:	1005003a 	cmpeq	r2,r2,zero
 200177c:	1000201e 	bne	r2,zero,2001800 <_Z12controlSpeedv+0x110>
	{
		CCarMessage *pMessage = pProtocol->getNthMessage(0);
 2001780:	d1270717 	ldw	r4,-25572(gp)
 2001784:	000b883a 	mov	r5,zero
 2001788:	20076e40 	call	20076e4 <_ZN12CCarProtocol13getNthMessageEm>
 200178c:	e0bffd15 	stw	r2,-12(fp)
		if(pMessage != 0 && pMessage->isValid() && pMessage->getType() == 4)
 2001790:	e0bffd17 	ldw	r2,-12(fp)
 2001794:	1005003a 	cmpeq	r2,r2,zero
 2001798:	10000e1e 	bne	r2,zero,20017d4 <_Z12controlSpeedv+0xe4>
 200179c:	e13ffd17 	ldw	r4,-12(fp)
 20017a0:	200701c0 	call	200701c <_ZN11CCarMessage7isValidEv>
 20017a4:	1080005c 	xori	r2,r2,1
 20017a8:	10803fcc 	andi	r2,r2,255
 20017ac:	1004c03a 	cmpne	r2,r2,zero
 20017b0:	1000081e 	bne	r2,zero,20017d4 <_Z12controlSpeedv+0xe4>
 20017b4:	e13ffd17 	ldw	r4,-12(fp)
 20017b8:	2006fc40 	call	2006fc4 <_ZN11CCarMessage7getTypeEv>
 20017bc:	10803fcc 	andi	r2,r2,255
 20017c0:	10800118 	cmpnei	r2,r2,4
 20017c4:	1000031e 	bne	r2,zero,20017d4 <_Z12controlSpeedv+0xe4>
 20017c8:	00800044 	movi	r2,1
 20017cc:	e0bfff05 	stb	r2,-4(fp)
 20017d0:	00000106 	br	20017d8 <_Z12controlSpeedv+0xe8>
 20017d4:	e03fff05 	stb	zero,-4(fp)
 20017d8:	e0bfff03 	ldbu	r2,-4(fp)
 20017dc:	10803fcc 	andi	r2,r2,255
 20017e0:	1005003a 	cmpeq	r2,r2,zero
 20017e4:	1000061e 	bne	r2,zero,2001800 <_Z12controlSpeedv+0x110>
		{
			((CMotorVelocityMessage*) pMessage)->answerMessage(iCurrentSpeed);
 20017e8:	e13ffd17 	ldw	r4,-12(fp)
 20017ec:	d0a70217 	ldw	r2,-25592(gp)
 20017f0:	117fffcc 	andi	r5,r2,65535
 20017f4:	2960001c 	xori	r5,r5,32768
 20017f8:	29600004 	addi	r5,r5,-32768
 20017fc:	20096700 	call	2009670 <_ZN21CMotorVelocityMessage13answerMessageEs>
		}
	}

	return true;
 2001800:	00800044 	movi	r2,1
}
 2001804:	e037883a 	mov	sp,fp
 2001808:	dfc00117 	ldw	ra,4(sp)
 200180c:	df000017 	ldw	fp,0(sp)
 2001810:	dec00204 	addi	sp,sp,8
 2001814:	f800283a 	ret

02001818 <_Z11sendWelcomev>:

	// This function is always successful
	return true;
}

bool sendWelcome()
 2001818:	deffb504 	addi	sp,sp,-300
 200181c:	dfc04a15 	stw	ra,296(sp)
 2001820:	df004915 	stw	fp,292(sp)
 2001824:	ddc04815 	stw	r23,288(sp)
 2001828:	dd804715 	stw	r22,284(sp)
 200182c:	dd404615 	stw	r21,280(sp)
 2001830:	dd004515 	stw	r20,276(sp)
 2001834:	dcc04415 	stw	r19,272(sp)
 2001838:	dc804315 	stw	r18,268(sp)
 200183c:	dc404215 	stw	r17,264(sp)
 2001840:	dc004115 	stw	r16,260(sp)
 2001844:	df004104 	addi	fp,sp,260
 2001848:	00808074 	movhi	r2,513
 200184c:	10ae5a04 	addi	r2,r2,-18072
 2001850:	e0bfeb15 	stw	r2,-84(fp)
 2001854:	008080b4 	movhi	r2,514
 2001858:	10adac84 	addi	r2,r2,-18766
 200185c:	e0bfec15 	stw	r2,-80(fp)
 2001860:	e0bfed04 	addi	r2,fp,-76
 2001864:	e0ffc004 	addi	r3,fp,-256
 2001868:	10c00015 	stw	r3,0(r2)
 200186c:	00c08034 	movhi	r3,512
 2001870:	18c6b104 	addi	r3,r3,6852
 2001874:	10c00115 	stw	r3,4(r2)
 2001878:	16c00215 	stw	sp,8(r2)
 200187c:	e13fe504 	addi	r4,fp,-108
 2001880:	200d1040 	call	200d104 <_Unwind_SjLj_Register>
{
	//LOG_DEBUG("wait entry");

	CCarMessage * pMessage = 0;
 2001884:	e03fc315 	stw	zero,-244(fp)
	alt_u32 uiTries = 0;         // Counts the tries, if >= 5 return
 2001888:	e03fc215 	stw	zero,-248(fp)
	alt_u8 cBuffer[128];         // Standard byte buffer
	alt_u32 uiReceivedCount = 0; // Count of received bytes (further: iLength)
 200188c:	e03fc115 	stw	zero,-252(fp)

	// Prepare welcome message
	//LOG_DEBUG("allocate msg");

	// set led on
	*pLED |= 0x01;
 2001890:	d0e00017 	ldw	r3,-32768(gp)
 2001894:	d0a00017 	ldw	r2,-32768(gp)
 2001898:	10800017 	ldw	r2,0(r2)
 200189c:	10800054 	ori	r2,r2,1
 20018a0:	18800015 	stw	r2,0(r3)
 20018a4:	00000006 	br	20018a8 <_Z11sendWelcomev+0x90>
	while(true)
	{
		//LOG_DEBUG("loop %d",  (int) uiTries);

		// Put the WelcomeMessage into the protocol wrapper.
		if(pProtocol) {
 20018a8:	d0a70717 	ldw	r2,-25572(gp)
 20018ac:	1005003a 	cmpeq	r2,r2,zero
 20018b0:	10000c1e 	bne	r2,zero,20018e4 <_Z11sendWelcomev+0xcc>
			delete(pProtocol);
 20018b4:	d0a70717 	ldw	r2,-25572(gp)
 20018b8:	1005003a 	cmpeq	r2,r2,zero
 20018bc:	1000081e 	bne	r2,zero,20018e0 <_Z11sendWelcomev+0xc8>
 20018c0:	d0a70717 	ldw	r2,-25572(gp)
 20018c4:	10800017 	ldw	r2,0(r2)
 20018c8:	10800104 	addi	r2,r2,4
 20018cc:	10c00017 	ldw	r3,0(r2)
 20018d0:	d1270717 	ldw	r4,-25572(gp)
 20018d4:	00bfffc4 	movi	r2,-1
 20018d8:	e0bfe615 	stw	r2,-104(fp)
 20018dc:	183ee83a 	callr	r3
			pProtocol = 0;
 20018e0:	d0270715 	stw	zero,-25572(gp)
		}
		wMsg = new CWelcomeMessage(FIRMWARE_VERSION, COMPONENT_TYPE, COMPONENT_ID, uiAvailableOperations);
 20018e4:	00bfffc4 	movi	r2,-1
 20018e8:	e0bfe615 	stw	r2,-104(fp)
 20018ec:	01000504 	movi	r4,20
 20018f0:	200c6200 	call	200c620 <_Znwm>
 20018f4:	e0bffc15 	stw	r2,-16(fp)
 20018f8:	d0a70104 	addi	r2,gp,-25596
 20018fc:	d8800015 	stw	r2,0(sp)
 2001900:	008000c4 	movi	r2,3
 2001904:	e0bfe615 	stw	r2,-104(fp)
 2001908:	e13ffc17 	ldw	r4,-16(fp)
 200190c:	01400404 	movi	r5,16
 2001910:	01800044 	movi	r6,1
 2001914:	01c000c4 	movi	r7,3
 2001918:	200aa800 	call	200aa80 <_ZN15CWelcomeMessageC1EhhhPh>
 200191c:	e0bffc17 	ldw	r2,-16(fp)
 2001920:	e0bfc415 	stw	r2,-240(fp)
		pProtocol = new CCarProtocol(0, (CCarMessage **) &wMsg, 1);
 2001924:	00bfffc4 	movi	r2,-1
 2001928:	e0bfe615 	stw	r2,-104(fp)
 200192c:	01000b04 	movi	r4,44
 2001930:	200c6200 	call	200c620 <_Znwm>
 2001934:	e0bffb15 	stw	r2,-20(fp)
 2001938:	e1bfc404 	addi	r6,fp,-240
 200193c:	00800084 	movi	r2,2
 2001940:	e0bfe615 	stw	r2,-104(fp)
 2001944:	e13ffb17 	ldw	r4,-20(fp)
 2001948:	000b883a 	mov	r5,zero
 200194c:	01c00044 	movi	r7,1
 2001950:	20075480 	call	2007548 <_ZN12CCarProtocolC1EtPP11CCarMessagem>
 2001954:	00000a06 	br	2001980 <_Z11sendWelcomev+0x168>
 2001958:	e0fffe17 	ldw	r3,-8(fp)
 200195c:	e0fff415 	stw	r3,-48(fp)
		// Put the WelcomeMessage into the protocol wrapper.
		if(pProtocol) {
			delete(pProtocol);
			pProtocol = 0;
		}
		wMsg = new CWelcomeMessage(FIRMWARE_VERSION, COMPONENT_TYPE, COMPONENT_ID, uiAvailableOperations);
 2001960:	e13ffc17 	ldw	r4,-16(fp)
 2001964:	200c1380 	call	200c138 <_ZdlPv>
 2001968:	e0bff417 	ldw	r2,-48(fp)
 200196c:	e0bffe15 	stw	r2,-8(fp)
 2001970:	00bfffc4 	movi	r2,-1
 2001974:	e0bfe615 	stw	r2,-104(fp)
 2001978:	e13ffe17 	ldw	r4,-8(fp)
 200197c:	200d3d00 	call	200d3d0 <_Unwind_SjLj_Resume>
		pProtocol = new CCarProtocol(0, (CCarMessage **) &wMsg, 1);
 2001980:	e0fffb17 	ldw	r3,-20(fp)
 2001984:	d0e70715 	stw	r3,-25572(gp)
		pProtocol->getBytes(cBuffer);
 2001988:	d1270717 	ldw	r4,-25572(gp)
 200198c:	e17fc504 	addi	r5,fp,-236
 2001990:	00bfffc4 	movi	r2,-1
 2001994:	e0bfe615 	stw	r2,-104(fp)
 2001998:	200776c0 	call	200776c <_ZN12CCarProtocol8getBytesEPh>
		//LOG_DEBUG("cBuffer: '%c%c%c%c' 0x%02X%02X%02X%02X 0x%02X%02X%02X%02X", cBuffer[0], cBuffer[1],
				//cBuffer[2], cBuffer[3], cBuffer[4], cBuffer[5], cBuffer[6], cBuffer[7],
				//cBuffer[8], cBuffer[9], cBuffer[10], cBuffer[11]);

		// Send out the packet.
		if(uiTries % 50 == 0)
 200199c:	e13fc217 	ldw	r4,-248(fp)
 20019a0:	01400c84 	movi	r5,50
 20019a4:	200d0c40 	call	200d0c4 <__umodsi3>
 20019a8:	1005003a 	cmpeq	r2,r2,zero
 20019ac:	10000b1e 	bne	r2,zero,20019dc <_Z11sendWelcomev+0x1c4>
 20019b0:	00001506 	br	2001a08 <_Z11sendWelcomev+0x1f0>
 20019b4:	e0bffe17 	ldw	r2,-8(fp)
 20019b8:	e0bff315 	stw	r2,-52(fp)
		if(pProtocol) {
			delete(pProtocol);
			pProtocol = 0;
		}
		wMsg = new CWelcomeMessage(FIRMWARE_VERSION, COMPONENT_TYPE, COMPONENT_ID, uiAvailableOperations);
		pProtocol = new CCarProtocol(0, (CCarMessage **) &wMsg, 1);
 20019bc:	e13ffb17 	ldw	r4,-20(fp)
 20019c0:	200c1380 	call	200c138 <_ZdlPv>
 20019c4:	e0fff317 	ldw	r3,-52(fp)
 20019c8:	e0fffe15 	stw	r3,-8(fp)
 20019cc:	00bfffc4 	movi	r2,-1
 20019d0:	e0bfe615 	stw	r2,-104(fp)
 20019d4:	e13ffe17 	ldw	r4,-8(fp)
 20019d8:	200d3d00 	call	200d3d0 <_Unwind_SjLj_Resume>
				//cBuffer[8], cBuffer[9], cBuffer[10], cBuffer[11]);

		// Send out the packet.
		if(uiTries % 50 == 0)
		{
			success = pSocket->Send(cBuffer, pProtocol->getLength());
 20019dc:	d0a70617 	ldw	r2,-25576(gp)
 20019e0:	e0bffa15 	stw	r2,-24(fp)
 20019e4:	d1270717 	ldw	r4,-25572(gp)
 20019e8:	00bfffc4 	movi	r2,-1
 20019ec:	e0bfe615 	stw	r2,-104(fp)
 20019f0:	20076340 	call	2007634 <_ZN12CCarProtocol9getLengthEv>
 20019f4:	100d883a 	mov	r6,r2
 20019f8:	e17fc504 	addi	r5,fp,-236
 20019fc:	e13ffa17 	ldw	r4,-24(fp)
 2001a00:	20008840 	call	2000884 <_ZN16CEth_UART_Socket4SendEPhm>
 2001a04:	e0bfc005 	stb	r2,-256(fp)
		}
		//LOG_DEBUG("sent? %x", success);

		// Receive bytes from socket (timed blocking)
		uiReceivedCount = pSocket->Receive(cBuffer, 128, 10);
 2001a08:	d1270617 	ldw	r4,-25576(gp)
 2001a0c:	e17fc504 	addi	r5,fp,-236
 2001a10:	00bfffc4 	movi	r2,-1
 2001a14:	e0bfe615 	stw	r2,-104(fp)
 2001a18:	01802004 	movi	r6,128
 2001a1c:	01c00284 	movi	r7,10
 2001a20:	20007580 	call	2000758 <_ZN16CEth_UART_Socket7ReceiveEPhmm>
 2001a24:	e0bfc115 	stw	r2,-252(fp)
		if(uiReceivedCount <= 0)
 2001a28:	e0bfc117 	ldw	r2,-252(fp)
 2001a2c:	1004c03a 	cmpne	r2,r2,zero
 2001a30:	1000041e 	bne	r2,zero,2001a44 <_Z11sendWelcomev+0x22c>
		{
			//LOG_DEBUG("incomplete packet");
			uiTries++;
 2001a34:	e0bfc217 	ldw	r2,-248(fp)
 2001a38:	10800044 	addi	r2,r2,1
 2001a3c:	e0bfc215 	stw	r2,-248(fp)
			continue; // If nothing was received
 2001a40:	003f9906 	br	20018a8 <_Z11sendWelcomev+0x90>
		}
		
		// Is there a current protocol, delete it and generate a new one out of received data
		if(pProtocol){
 2001a44:	d0a70717 	ldw	r2,-25572(gp)
 2001a48:	1005003a 	cmpeq	r2,r2,zero
 2001a4c:	10000c1e 	bne	r2,zero,2001a80 <_Z11sendWelcomev+0x268>
			delete(pProtocol);
 2001a50:	d0a70717 	ldw	r2,-25572(gp)
 2001a54:	1005003a 	cmpeq	r2,r2,zero
 2001a58:	1000081e 	bne	r2,zero,2001a7c <_Z11sendWelcomev+0x264>
 2001a5c:	d0a70717 	ldw	r2,-25572(gp)
 2001a60:	10800017 	ldw	r2,0(r2)
 2001a64:	10800104 	addi	r2,r2,4
 2001a68:	10c00017 	ldw	r3,0(r2)
 2001a6c:	d1270717 	ldw	r4,-25572(gp)
 2001a70:	00bfffc4 	movi	r2,-1
 2001a74:	e0bfe615 	stw	r2,-104(fp)
 2001a78:	183ee83a 	callr	r3
			pProtocol = 0;
 2001a7c:	d0270715 	stw	zero,-25572(gp)
		}
		pProtocol = new CCarProtocol(cBuffer, uiReceivedCount);
 2001a80:	00bfffc4 	movi	r2,-1
 2001a84:	e0bfe615 	stw	r2,-104(fp)
 2001a88:	01000b04 	movi	r4,44
 2001a8c:	200c6200 	call	200c620 <_Znwm>
 2001a90:	e0bff915 	stw	r2,-28(fp)
 2001a94:	e1bfc117 	ldw	r6,-252(fp)
 2001a98:	e17fc504 	addi	r5,fp,-236
 2001a9c:	00800044 	movi	r2,1
 2001aa0:	e0bfe615 	stw	r2,-104(fp)
 2001aa4:	e13ff917 	ldw	r4,-28(fp)
 2001aa8:	2008b8c0 	call	2008b8c <_ZN12CCarProtocolC1EPhi>
 2001aac:	e0fff917 	ldw	r3,-28(fp)
 2001ab0:	d0e70715 	stw	r3,-25572(gp)

		// Was the protocol generation unsuccessful then count one more try and continue
		if(pProtocol == 0 || !pProtocol->isValid() || pProtocol->getMessageCount() < 1u)
 2001ab4:	d0a70717 	ldw	r2,-25572(gp)
 2001ab8:	1005003a 	cmpeq	r2,r2,zero
 2001abc:	1000221e 	bne	r2,zero,2001b48 <_Z11sendWelcomev+0x330>
 2001ac0:	00001506 	br	2001b18 <_Z11sendWelcomev+0x300>
 2001ac4:	e7004004 	addi	fp,fp,256
 2001ac8:	e0bfe617 	ldw	r2,-104(fp)
 2001acc:	e0bfff15 	stw	r2,-4(fp)
 2001ad0:	e0ffe717 	ldw	r3,-100(fp)
 2001ad4:	e0fffe15 	stw	r3,-8(fp)
 2001ad8:	e0ffff17 	ldw	r3,-4(fp)
 2001adc:	18800060 	cmpeqi	r2,r3,1
 2001ae0:	103fb41e 	bne	r2,zero,20019b4 <_Z11sendWelcomev+0x19c>
 2001ae4:	e0ffff17 	ldw	r3,-4(fp)
 2001ae8:	188000a0 	cmpeqi	r2,r3,2
 2001aec:	103f9a1e 	bne	r2,zero,2001958 <_Z11sendWelcomev+0x140>
 2001af0:	e0bffe17 	ldw	r2,-8(fp)
 2001af4:	e0bff215 	stw	r2,-56(fp)
		// Is there a current protocol, delete it and generate a new one out of received data
		if(pProtocol){
			delete(pProtocol);
			pProtocol = 0;
		}
		pProtocol = new CCarProtocol(cBuffer, uiReceivedCount);
 2001af8:	e13ff917 	ldw	r4,-28(fp)
 2001afc:	200c1380 	call	200c138 <_ZdlPv>
 2001b00:	e0fff217 	ldw	r3,-56(fp)
 2001b04:	e0fffe15 	stw	r3,-8(fp)
 2001b08:	00bfffc4 	movi	r2,-1
 2001b0c:	e0bfe615 	stw	r2,-104(fp)
 2001b10:	e13ffe17 	ldw	r4,-8(fp)
 2001b14:	200d3d00 	call	200d3d0 <_Unwind_SjLj_Resume>

		// Was the protocol generation unsuccessful then count one more try and continue
		if(pProtocol == 0 || !pProtocol->isValid() || pProtocol->getMessageCount() < 1u)
 2001b18:	d1270717 	ldw	r4,-25572(gp)
 2001b1c:	00bfffc4 	movi	r2,-1
 2001b20:	e0bfe615 	stw	r2,-104(fp)
 2001b24:	20076080 	call	2007608 <_ZN12CCarProtocol7isValidEv>
 2001b28:	1080005c 	xori	r2,r2,1
 2001b2c:	10803fcc 	andi	r2,r2,255
 2001b30:	1004c03a 	cmpne	r2,r2,zero
 2001b34:	1000041e 	bne	r2,zero,2001b48 <_Z11sendWelcomev+0x330>
 2001b38:	d1270717 	ldw	r4,-25572(gp)
 2001b3c:	20077440 	call	2007744 <_ZN12CCarProtocol15getMessageCountEv>
 2001b40:	1004c03a 	cmpne	r2,r2,zero
 2001b44:	1000031e 	bne	r2,zero,2001b54 <_Z11sendWelcomev+0x33c>
 2001b48:	00800044 	movi	r2,1
 2001b4c:	e0bff805 	stb	r2,-32(fp)
 2001b50:	00000106 	br	2001b58 <_Z11sendWelcomev+0x340>
 2001b54:	e03ff805 	stb	zero,-32(fp)
 2001b58:	e0bff803 	ldbu	r2,-32(fp)
 2001b5c:	10803fcc 	andi	r2,r2,255
 2001b60:	1005003a 	cmpeq	r2,r2,zero
 2001b64:	1000151e 	bne	r2,zero,2001bbc <_Z11sendWelcomev+0x3a4>
		{
			printf("invalid packet pProtocol %u isValid %d messageCount %1u\n", pProtocol, !pProtocol->isValid(), pProtocol->getMessageCount());
 2001b68:	d0e70717 	ldw	r3,-25572(gp)
 2001b6c:	e0fff715 	stw	r3,-36(fp)
 2001b70:	d1270717 	ldw	r4,-25572(gp)
 2001b74:	00bfffc4 	movi	r2,-1
 2001b78:	e0bfe615 	stw	r2,-104(fp)
 2001b7c:	20076080 	call	2007608 <_ZN12CCarProtocol7isValidEv>
 2001b80:	1080005c 	xori	r2,r2,1
 2001b84:	10803fcc 	andi	r2,r2,255
 2001b88:	e0bff615 	stw	r2,-40(fp)
 2001b8c:	d1270717 	ldw	r4,-25572(gp)
 2001b90:	20077440 	call	2007744 <_ZN12CCarProtocol15getMessageCountEv>
 2001b94:	100f883a 	mov	r7,r2
 2001b98:	010080b4 	movhi	r4,514
 2001b9c:	212e1304 	addi	r4,r4,-18356
 2001ba0:	e17ff717 	ldw	r5,-36(fp)
 2001ba4:	e1bff617 	ldw	r6,-40(fp)
 2001ba8:	200de640 	call	200de64 <printf>
			uiTries++;
 2001bac:	e0bfc217 	ldw	r2,-248(fp)
 2001bb0:	10800044 	addi	r2,r2,1
 2001bb4:	e0bfc215 	stw	r2,-248(fp)
			continue;
 2001bb8:	003f3b06 	br	20018a8 <_Z11sendWelcomev+0x90>
		}

		// Check if the first message was a WelcomeMessage then break
		pMessage = pProtocol->getNthMessage(0);
 2001bbc:	d1270717 	ldw	r4,-25572(gp)
 2001bc0:	00bfffc4 	movi	r2,-1
 2001bc4:	e0bfe615 	stw	r2,-104(fp)
 2001bc8:	000b883a 	mov	r5,zero
 2001bcc:	20076e40 	call	20076e4 <_ZN12CCarProtocol13getNthMessageEm>
 2001bd0:	e0bfc315 	stw	r2,-244(fp)
		if(pMessage->isValid() && pMessage->getType() == 0x01)
 2001bd4:	e13fc317 	ldw	r4,-244(fp)
 2001bd8:	200701c0 	call	200701c <_ZN11CCarMessage7isValidEv>
 2001bdc:	1080005c 	xori	r2,r2,1
 2001be0:	10803fcc 	andi	r2,r2,255
 2001be4:	1004c03a 	cmpne	r2,r2,zero
 2001be8:	1000081e 	bne	r2,zero,2001c0c <_Z11sendWelcomev+0x3f4>
 2001bec:	e13fc317 	ldw	r4,-244(fp)
 2001bf0:	2006fc40 	call	2006fc4 <_ZN11CCarMessage7getTypeEv>
 2001bf4:	10803fcc 	andi	r2,r2,255
 2001bf8:	10800058 	cmpnei	r2,r2,1
 2001bfc:	1000031e 	bne	r2,zero,2001c0c <_Z11sendWelcomev+0x3f4>
 2001c00:	00800044 	movi	r2,1
 2001c04:	e0bff505 	stb	r2,-44(fp)
 2001c08:	00000106 	br	2001c10 <_Z11sendWelcomev+0x3f8>
 2001c0c:	e03ff505 	stb	zero,-44(fp)
 2001c10:	e0bff503 	ldbu	r2,-44(fp)
 2001c14:	10803fcc 	andi	r2,r2,255
 2001c18:	1005003a 	cmpeq	r2,r2,zero
 2001c1c:	1000171e 	bne	r2,zero,2001c7c <_Z11sendWelcomev+0x464>
		{
			//LOG_DEBUG("valid message");
			*pLED &= 0xFE;
 2001c20:	d0e00017 	ldw	r3,-32768(gp)
 2001c24:	d0a00017 	ldw	r2,-32768(gp)
 2001c28:	10800017 	ldw	r2,0(r2)
 2001c2c:	10803f8c 	andi	r2,r2,254
 2001c30:	18800015 	stw	r2,0(r3)
			if(pProtocol) {
 2001c34:	d0a70717 	ldw	r2,-25572(gp)
 2001c38:	1005003a 	cmpeq	r2,r2,zero
 2001c3c:	10000c1e 	bne	r2,zero,2001c70 <_Z11sendWelcomev+0x458>
				delete(pProtocol);
 2001c40:	d0a70717 	ldw	r2,-25572(gp)
 2001c44:	1005003a 	cmpeq	r2,r2,zero
 2001c48:	1000081e 	bne	r2,zero,2001c6c <_Z11sendWelcomev+0x454>
 2001c4c:	d0a70717 	ldw	r2,-25572(gp)
 2001c50:	10800017 	ldw	r2,0(r2)
 2001c54:	10800104 	addi	r2,r2,4
 2001c58:	10c00017 	ldw	r3,0(r2)
 2001c5c:	d1270717 	ldw	r4,-25572(gp)
 2001c60:	00bfffc4 	movi	r2,-1
 2001c64:	e0bfe615 	stw	r2,-104(fp)
 2001c68:	183ee83a 	callr	r3
				pProtocol = 0;
 2001c6c:	d0270715 	stw	zero,-25572(gp)
			}
			return true;
 2001c70:	00800044 	movi	r2,1
 2001c74:	e0bffd15 	stw	r2,-12(fp)
 2001c78:	00000406 	br	2001c8c <_Z11sendWelcomev+0x474>
		}
		uiTries++;
 2001c7c:	e0bfc217 	ldw	r2,-248(fp)
 2001c80:	10800044 	addi	r2,r2,1
 2001c84:	e0bfc215 	stw	r2,-248(fp)
	// set led on
	*pLED |= 0x01;

	//LOG_DEBUG("pre while");

	while(true)
 2001c88:	003f0706 	br	20018a8 <_Z11sendWelcomev+0x90>
 2001c8c:	e13fe504 	addi	r4,fp,-108
 2001c90:	200d1140 	call	200d114 <_Unwind_SjLj_Unregister>

	}


	return false;
}
 2001c94:	e0bffd17 	ldw	r2,-12(fp)
 2001c98:	e037883a 	mov	sp,fp
 2001c9c:	dfc00917 	ldw	ra,36(sp)
 2001ca0:	df000817 	ldw	fp,32(sp)
 2001ca4:	ddc00717 	ldw	r23,28(sp)
 2001ca8:	dd800617 	ldw	r22,24(sp)
 2001cac:	dd400517 	ldw	r21,20(sp)
 2001cb0:	dd000417 	ldw	r20,16(sp)
 2001cb4:	dcc00317 	ldw	r19,12(sp)
 2001cb8:	dc800217 	ldw	r18,8(sp)
 2001cbc:	dc400117 	ldw	r17,4(sp)
 2001cc0:	dc000017 	ldw	r16,0(sp)
 2001cc4:	dec00a04 	addi	sp,sp,40
 2001cc8:	f800283a 	ret

02001ccc <_Z4initv>:
	return -1;
}



bool init()
 2001ccc:	deffe504 	addi	sp,sp,-108
 2001cd0:	dfc01a15 	stw	ra,104(sp)
 2001cd4:	df001915 	stw	fp,100(sp)
 2001cd8:	ddc01815 	stw	r23,96(sp)
 2001cdc:	dd801715 	stw	r22,92(sp)
 2001ce0:	dd401615 	stw	r21,88(sp)
 2001ce4:	dd001515 	stw	r20,84(sp)
 2001ce8:	dcc01415 	stw	r19,80(sp)
 2001cec:	dc801315 	stw	r18,76(sp)
 2001cf0:	dc401215 	stw	r17,72(sp)
 2001cf4:	dc001115 	stw	r16,68(sp)
 2001cf8:	df001104 	addi	fp,sp,68
 2001cfc:	00808074 	movhi	r2,513
 2001d00:	10ae5a04 	addi	r2,r2,-18072
 2001d04:	e0bff515 	stw	r2,-44(fp)
 2001d08:	008080b4 	movhi	r2,514
 2001d0c:	10adaf04 	addi	r2,r2,-18756
 2001d10:	e0bff615 	stw	r2,-40(fp)
 2001d14:	e0bff704 	addi	r2,fp,-36
 2001d18:	e0ffef04 	addi	r3,fp,-68
 2001d1c:	10c00015 	stw	r3,0(r2)
 2001d20:	00c08034 	movhi	r3,512
 2001d24:	18c76804 	addi	r3,r3,7584
 2001d28:	10c00115 	stw	r3,4(r2)
 2001d2c:	16c00215 	stw	sp,8(r2)
 2001d30:	e13fef04 	addi	r4,fp,-68
 2001d34:	200d1040 	call	200d104 <_Unwind_SjLj_Register>
{
	// Set speed to 0
	iDesiredSpeed = 0;
 2001d38:	d0270315 	stw	zero,-25588(gp)
	iCurrentSpeed = 0;
 2001d3c:	d0270215 	stw	zero,-25592(gp)
	setSpeed(0);
 2001d40:	00bfffc4 	movi	r2,-1
 2001d44:	e0bff015 	stw	r2,-64(fp)
 2001d48:	0009883a 	mov	r4,zero
 2001d4c:	2000b080 	call	2000b08 <_Z8setSpeedl>

	// Check LEDs
	*pLED = 0xFF;
 2001d50:	d0e00017 	ldw	r3,-32768(gp)
 2001d54:	00803fc4 	movi	r2,255
 2001d58:	18800015 	stw	r2,0(r3)
	delay(1000);
 2001d5c:	0100fa04 	movi	r4,1000
 2001d60:	20001f40 	call	20001f4 <_Z5delayj>
	*pLED = 0x00;
 2001d64:	d0a00017 	ldw	r2,-32768(gp)
 2001d68:	10000015 	stw	zero,0(r2)

	bCycleFinished = false;
 2001d6c:	d0270805 	stb	zero,-25568(gp)

	// Generate new socket object
	pSocket = new CEth_UART_Socket();
 2001d70:	01000204 	movi	r4,8
 2001d74:	200c6200 	call	200c620 <_Znwm>
 2001d78:	e0bffd15 	stw	r2,-12(fp)
 2001d7c:	00800044 	movi	r2,1
 2001d80:	e0bff015 	stw	r2,-64(fp)
 2001d84:	e13ffd17 	ldw	r4,-12(fp)
 2001d88:	200097c0 	call	200097c <_ZN16CEth_UART_SocketC1Ev>
 2001d8c:	e0bffd17 	ldw	r2,-12(fp)
 2001d90:	d0a70615 	stw	r2,-25576(gp)

	// This function is always successful
	return true;
 2001d94:	00800044 	movi	r2,1
 2001d98:	e0bffe15 	stw	r2,-8(fp)
 2001d9c:	00000d06 	br	2001dd4 <_Z4initv+0x108>
 2001da0:	e7001104 	addi	fp,fp,68
 2001da4:	e0fff117 	ldw	r3,-60(fp)
 2001da8:	e0ffff15 	stw	r3,-4(fp)
 2001dac:	e0bfff17 	ldw	r2,-4(fp)
 2001db0:	e0bffc15 	stw	r2,-16(fp)
	*pLED = 0x00;

	bCycleFinished = false;

	// Generate new socket object
	pSocket = new CEth_UART_Socket();
 2001db4:	e13ffd17 	ldw	r4,-12(fp)
 2001db8:	200c1380 	call	200c138 <_ZdlPv>
 2001dbc:	e0fffc17 	ldw	r3,-16(fp)
 2001dc0:	e0ffff15 	stw	r3,-4(fp)
 2001dc4:	00bfffc4 	movi	r2,-1
 2001dc8:	e0bff015 	stw	r2,-64(fp)
 2001dcc:	e13fff17 	ldw	r4,-4(fp)
 2001dd0:	200d3d00 	call	200d3d0 <_Unwind_SjLj_Resume>
 2001dd4:	e13fef04 	addi	r4,fp,-68
 2001dd8:	200d1140 	call	200d114 <_Unwind_SjLj_Unregister>

	// This function is always successful
	return true;
}
 2001ddc:	e0bffe17 	ldw	r2,-8(fp)
 2001de0:	e037883a 	mov	sp,fp
 2001de4:	dfc00917 	ldw	ra,36(sp)
 2001de8:	df000817 	ldw	fp,32(sp)
 2001dec:	ddc00717 	ldw	r23,28(sp)
 2001df0:	dd800617 	ldw	r22,24(sp)
 2001df4:	dd400517 	ldw	r21,20(sp)
 2001df8:	dd000417 	ldw	r20,16(sp)
 2001dfc:	dcc00317 	ldw	r19,12(sp)
 2001e00:	dc800217 	ldw	r18,8(sp)
 2001e04:	dc400117 	ldw	r17,4(sp)
 2001e08:	dc000017 	ldw	r16,0(sp)
 2001e0c:	dec00a04 	addi	sp,sp,40
 2001e10:	f800283a 	ret

02001e14 <main>:

// Export interface
#include "main.h"
#include "ErrHandler.h"

int main (void)
 2001e14:	defff804 	addi	sp,sp,-32
 2001e18:	dfc00715 	stw	ra,28(sp)
 2001e1c:	df000615 	stw	fp,24(sp)
 2001e20:	dc000515 	stw	r16,20(sp)
 2001e24:	df000504 	addi	fp,sp,20
{
	bool ret;
	alt_u16 state = 0; // State to distinguish between the small cycles
 2001e28:	e03ffe0d 	sth	zero,-8(fp)
	CCarMessage *pCurrentMessage = 0; // The current message
 2001e2c:	e03ffd15 	stw	zero,-12(fp)
	//LOG_DEBUG("init");
	if(!init())
 2001e30:	2001ccc0 	call	2001ccc <_Z4initv>
 2001e34:	1080005c 	xori	r2,r2,1
 2001e38:	10803fcc 	andi	r2,r2,255
 2001e3c:	1004c03a 	cmpne	r2,r2,zero
 2001e40:	1000721e 	bne	r2,zero,200200c <main+0x1f8>
	{
		goto fail;
	}

	*pLED = 0xAA;
 2001e44:	d0e00017 	ldw	r3,-32768(gp)
 2001e48:	00802a84 	movi	r2,170
 2001e4c:	18800015 	stw	r2,0(r3)

	//LOG_DEBUG("wait");
	ret = sendWelcome();
 2001e50:	20018180 	call	2001818 <_Z11sendWelcomev>
 2001e54:	e0bffe85 	stb	r2,-6(fp)
	if(!ret) {
 2001e58:	e0bffe83 	ldbu	r2,-6(fp)
 2001e5c:	1080005c 	xori	r2,r2,1
 2001e60:	10803fcc 	andi	r2,r2,255
 2001e64:	1004c03a 	cmpne	r2,r2,zero
 2001e68:	1000681e 	bne	r2,zero,200200c <main+0x1f8>
		goto fail;
	}
	*pLED = 0;
 2001e6c:	d0a00017 	ldw	r2,-32768(gp)
 2001e70:	10000015 	stw	zero,0(r2)

	//LOG_DEBUG("setuppid");
	ret = setUpPIController();
 2001e74:	2000ea40 	call	2000ea4 <_Z17setUpPIControllerv>
 2001e78:	e0bffe85 	stb	r2,-6(fp)
	if(!ret)
 2001e7c:	e0bffe83 	ldbu	r2,-6(fp)
 2001e80:	1080005c 	xori	r2,r2,1
 2001e84:	10803fcc 	andi	r2,r2,255
 2001e88:	1004c03a 	cmpne	r2,r2,zero
 2001e8c:	10005f1e 	bne	r2,zero,200200c <main+0x1f8>
	}
	//LOG_DEBUG("after setuppid");


	// Restore speed = 0
	iDesiredSpeed = 0;
 2001e90:	d0270315 	stw	zero,-25588(gp)
	iCurrentSpeed = 0;
 2001e94:	d0270215 	stw	zero,-25592(gp)
	setSpeed(0);
 2001e98:	0009883a 	mov	r4,zero
 2001e9c:	2000b080 	call	2000b08 <_Z8setSpeedl>

	// Set timer and start it
	alt_u32 (*callback) (void*);
	callback = alarm_callback;
 2001ea0:	00808034 	movhi	r2,512
 2001ea4:	10838704 	addi	r2,r2,3612
 2001ea8:	e0bffc15 	stw	r2,-16(fp)
	alt_alarm_start(&alarm, 10, callback, 0);
 2001eac:	010080b4 	movhi	r4,514
 2001eb0:	213e0704 	addi	r4,r4,-2020
 2001eb4:	01400284 	movi	r5,10
 2001eb8:	e1bffc17 	ldw	r6,-16(fp)
 2001ebc:	000f883a 	mov	r7,zero
 2001ec0:	20172c40 	call	20172c4 <alt_alarm_start>
 2001ec4:	00000006 	br	2001ec8 <main+0xb4>

	// Small cycle:
	while(true)
	{
		if(!waitForEndOfCycle())
 2001ec8:	2000e480 	call	2000e48 <_Z17waitForEndOfCyclev>
 2001ecc:	1080005c 	xori	r2,r2,1
 2001ed0:	10803fcc 	andi	r2,r2,255
 2001ed4:	1004c03a 	cmpne	r2,r2,zero
 2001ed8:	10004c1e 	bne	r2,zero,200200c <main+0x1f8>
			goto fail;
		//LOG_DEBUG("EndofCycle");
		if(!controlSpeed())
 2001edc:	20016f00 	call	20016f0 <_Z12controlSpeedv>
 2001ee0:	1080005c 	xori	r2,r2,1
 2001ee4:	10803fcc 	andi	r2,r2,255
 2001ee8:	1004c03a 	cmpne	r2,r2,zero
 2001eec:	1000471e 	bne	r2,zero,200200c <main+0x1f8>
			goto fail;
		//LOG_DEBUG("controlSpeed");
		if(state >= 9)
 2001ef0:	e0bffe0b 	ldhu	r2,-8(fp)
 2001ef4:	10800270 	cmpltui	r2,r2,9
 2001ef8:	1000071e 	bne	r2,zero,2001f18 <main+0x104>
		{
			if(!waitForNextPacket())
 2001efc:	20013280 	call	2001328 <_Z17waitForNextPacketv>
 2001f00:	1080005c 	xori	r2,r2,1
 2001f04:	10803fcc 	andi	r2,r2,255
 2001f08:	1004c03a 	cmpne	r2,r2,zero
 2001f0c:	10003f1e 	bne	r2,zero,200200c <main+0x1f8>
				goto fail;
			state = 0;
 2001f10:	e03ffe0d 	sth	zero,-8(fp)
 2001f14:	003fec06 	br	2001ec8 <main+0xb4>
			//LOG_DEBUG("NextPacket");
		}
		else
		{
			// Get current message and call doAction()
			if(pProtocol != 0 && pProtocol->isValid() && state < pProtocol->getMessageCount())
 2001f18:	d0a70717 	ldw	r2,-25572(gp)
 2001f1c:	1005003a 	cmpeq	r2,r2,zero
 2001f20:	10000d1e 	bne	r2,zero,2001f58 <main+0x144>
 2001f24:	d1270717 	ldw	r4,-25572(gp)
 2001f28:	20076080 	call	2007608 <_ZN12CCarProtocol7isValidEv>
 2001f2c:	1080005c 	xori	r2,r2,1
 2001f30:	10803fcc 	andi	r2,r2,255
 2001f34:	1004c03a 	cmpne	r2,r2,zero
 2001f38:	1000071e 	bne	r2,zero,2001f58 <main+0x144>
 2001f3c:	e43ffe0b 	ldhu	r16,-8(fp)
 2001f40:	d1270717 	ldw	r4,-25572(gp)
 2001f44:	20077440 	call	2007744 <_ZN12CCarProtocol15getMessageCountEv>
 2001f48:	8080032e 	bgeu	r16,r2,2001f58 <main+0x144>
 2001f4c:	00800044 	movi	r2,1
 2001f50:	e0bfff45 	stb	r2,-3(fp)
 2001f54:	00000106 	br	2001f5c <main+0x148>
 2001f58:	e03fff45 	stb	zero,-3(fp)
 2001f5c:	e0bfff43 	ldbu	r2,-3(fp)
 2001f60:	10803fcc 	andi	r2,r2,255
 2001f64:	1005003a 	cmpeq	r2,r2,zero
 2001f68:	1000241e 	bne	r2,zero,2001ffc <main+0x1e8>
			{
				alt_u32 count = pProtocol->getMessageCount();
 2001f6c:	d1270717 	ldw	r4,-25572(gp)
 2001f70:	20077440 	call	2007744 <_ZN12CCarProtocol15getMessageCountEv>
 2001f74:	e0bffb15 	stw	r2,-20(fp)
				count = count - state - 1;
 2001f78:	e0fffe0b 	ldhu	r3,-8(fp)
 2001f7c:	e0bffb17 	ldw	r2,-20(fp)
 2001f80:	10c5c83a 	sub	r2,r2,r3
 2001f84:	10bfffc4 	addi	r2,r2,-1
 2001f88:	e0bffb15 	stw	r2,-20(fp)
				pCurrentMessage = 0;
 2001f8c:	e03ffd15 	stw	zero,-12(fp)
				pCurrentMessage = pProtocol->getNthMessage(count);
 2001f90:	d1270717 	ldw	r4,-25572(gp)
 2001f94:	e17ffb17 	ldw	r5,-20(fp)
 2001f98:	20076e40 	call	20076e4 <_ZN12CCarProtocol13getNthMessageEm>
 2001f9c:	e0bffd15 	stw	r2,-12(fp)
				//LOG_DEBUG("getNthMessage");
				if(pCurrentMessage != 0 && pCurrentMessage->isValid())
 2001fa0:	e0bffd17 	ldw	r2,-12(fp)
 2001fa4:	1005003a 	cmpeq	r2,r2,zero
 2001fa8:	1000091e 	bne	r2,zero,2001fd0 <main+0x1bc>
 2001fac:	e13ffd17 	ldw	r4,-12(fp)
 2001fb0:	200701c0 	call	200701c <_ZN11CCarMessage7isValidEv>
 2001fb4:	1080005c 	xori	r2,r2,1
 2001fb8:	10803fcc 	andi	r2,r2,255
 2001fbc:	1004c03a 	cmpne	r2,r2,zero
 2001fc0:	1000031e 	bne	r2,zero,2001fd0 <main+0x1bc>
 2001fc4:	00800044 	movi	r2,1
 2001fc8:	e0bfff05 	stb	r2,-4(fp)
 2001fcc:	00000106 	br	2001fd4 <main+0x1c0>
 2001fd0:	e03fff05 	stb	zero,-4(fp)
 2001fd4:	e0bfff03 	ldbu	r2,-4(fp)
 2001fd8:	10803fcc 	andi	r2,r2,255
 2001fdc:	1005003a 	cmpeq	r2,r2,zero
 2001fe0:	1000061e 	bne	r2,zero,2001ffc <main+0x1e8>
					pCurrentMessage->doAction();
 2001fe4:	e0bffd17 	ldw	r2,-12(fp)
 2001fe8:	10800017 	ldw	r2,0(r2)
 2001fec:	10800204 	addi	r2,r2,8
 2001ff0:	10800017 	ldw	r2,0(r2)
 2001ff4:	e13ffd17 	ldw	r4,-12(fp)
 2001ff8:	103ee83a 	callr	r2
				//LOG_DEBUG("doAction");
			}
			state++;
 2001ffc:	e0bffe0b 	ldhu	r2,-8(fp)
 2002000:	10800044 	addi	r2,r2,1
 2002004:	e0bffe0d 	sth	r2,-8(fp)
	alt_u32 (*callback) (void*);
	callback = alarm_callback;
	alt_alarm_start(&alarm, 10, callback, 0);

	// Small cycle:
	while(true)
 2002008:	003faf06 	br	2001ec8 <main+0xb4>
	}

// Label for failure
fail:
	//LOG_DEBUG("fail");
	setSpeed(0);
 200200c:	0009883a 	mov	r4,zero
 2002010:	2000b080 	call	2000b08 <_Z8setSpeedl>
	*pLED = 0x80;
 2002014:	d0e00017 	ldw	r3,-32768(gp)
 2002018:	00802004 	movi	r2,128
 200201c:	18800015 	stw	r2,0(r3)
	delay(10000);
 2002020:	0109c404 	movi	r4,10000
 2002024:	20001f40 	call	20001f4 <_Z5delayj>
	return -1;
 2002028:	00bfffc4 	movi	r2,-1
}
 200202c:	e037883a 	mov	sp,fp
 2002030:	dfc00217 	ldw	ra,8(sp)
 2002034:	df000117 	ldw	fp,4(sp)
 2002038:	dc000017 	ldw	r16,0(sp)
 200203c:	dec00304 	addi	sp,sp,12
 2002040:	f800283a 	ret

02002044 <_ZNK21CMotorVelocityMessage16getIDesiredSpeedEv>:

	alt_16 getICurrentSpeed() const {
		return m_iCurrentSpeed;
	}

	alt_16 getIDesiredSpeed() const {
 2002044:	defffe04 	addi	sp,sp,-8
 2002048:	df000115 	stw	fp,4(sp)
 200204c:	df000104 	addi	fp,sp,4
 2002050:	e13fff15 	stw	r4,-4(fp)
		return m_iDesiredSpeed;
 2002054:	e0bfff17 	ldw	r2,-4(fp)
 2002058:	1080028b 	ldhu	r2,10(r2)
 200205c:	10bfffcc 	andi	r2,r2,65535
 2002060:	10a0001c 	xori	r2,r2,32768
 2002064:	10a00004 	addi	r2,r2,-32768
	}
 2002068:	e037883a 	mov	sp,fp
 200206c:	df000017 	ldw	fp,0(sp)
 2002070:	dec00104 	addi	sp,sp,4
 2002074:	f800283a 	ret

02002078 <_ZN13CPIControllerC2Ellll>:
#include "pidcontroller.h"
#include "ErrHandler.h"

CPIController::CPIController(alt_32 iPValue, alt_32 iIValue, alt_32 iMinimum, alt_32 iMaximum)
 2002078:	defffb04 	addi	sp,sp,-20
 200207c:	df000415 	stw	fp,16(sp)
 2002080:	df000404 	addi	fp,sp,16
 2002084:	e13ffc15 	stw	r4,-16(fp)
 2002088:	e17ffd15 	stw	r5,-12(fp)
 200208c:	e1bffe15 	stw	r6,-8(fp)
 2002090:	e1ffff15 	stw	r7,-4(fp)
{
	m_iPValue = iPValue;
 2002094:	e0fffc17 	ldw	r3,-16(fp)
 2002098:	e0bffd17 	ldw	r2,-12(fp)
 200209c:	18800015 	stw	r2,0(r3)
	m_iIValue = iIValue;
 20020a0:	e0fffc17 	ldw	r3,-16(fp)
 20020a4:	e0bffe17 	ldw	r2,-8(fp)
 20020a8:	18800115 	stw	r2,4(r3)

	m_iMinimum = iMinimum;
 20020ac:	e0fffc17 	ldw	r3,-16(fp)
 20020b0:	e0bfff17 	ldw	r2,-4(fp)
 20020b4:	18800215 	stw	r2,8(r3)
	m_iMaximum = iMaximum;
 20020b8:	e0fffc17 	ldw	r3,-16(fp)
 20020bc:	e0800117 	ldw	r2,4(fp)
 20020c0:	18800315 	stw	r2,12(r3)

	m_iErrorSum = 0;
 20020c4:	e0bffc17 	ldw	r2,-16(fp)
 20020c8:	10000415 	stw	zero,16(r2)
 20020cc:	10000515 	stw	zero,20(r2)
	m_iLastError = 0;
 20020d0:	e0bffc17 	ldw	r2,-16(fp)
 20020d4:	10000615 	stw	zero,24(r2)
	//LOG_DEBUG("Controller set up with P=%d, I=%d",m_iPValue,m_iIValue);
}
 20020d8:	e037883a 	mov	sp,fp
 20020dc:	df000017 	ldw	fp,0(sp)
 20020e0:	dec00104 	addi	sp,sp,4
 20020e4:	f800283a 	ret

020020e8 <_ZN13CPIControllerC1Ellll>:
#include "pidcontroller.h"
#include "ErrHandler.h"

CPIController::CPIController(alt_32 iPValue, alt_32 iIValue, alt_32 iMinimum, alt_32 iMaximum)
 20020e8:	defffb04 	addi	sp,sp,-20
 20020ec:	df000415 	stw	fp,16(sp)
 20020f0:	df000404 	addi	fp,sp,16
 20020f4:	e13ffc15 	stw	r4,-16(fp)
 20020f8:	e17ffd15 	stw	r5,-12(fp)
 20020fc:	e1bffe15 	stw	r6,-8(fp)
 2002100:	e1ffff15 	stw	r7,-4(fp)
{
	m_iPValue = iPValue;
 2002104:	e0fffc17 	ldw	r3,-16(fp)
 2002108:	e0bffd17 	ldw	r2,-12(fp)
 200210c:	18800015 	stw	r2,0(r3)
	m_iIValue = iIValue;
 2002110:	e0fffc17 	ldw	r3,-16(fp)
 2002114:	e0bffe17 	ldw	r2,-8(fp)
 2002118:	18800115 	stw	r2,4(r3)

	m_iMinimum = iMinimum;
 200211c:	e0fffc17 	ldw	r3,-16(fp)
 2002120:	e0bfff17 	ldw	r2,-4(fp)
 2002124:	18800215 	stw	r2,8(r3)
	m_iMaximum = iMaximum;
 2002128:	e0fffc17 	ldw	r3,-16(fp)
 200212c:	e0800117 	ldw	r2,4(fp)
 2002130:	18800315 	stw	r2,12(r3)

	m_iErrorSum = 0;
 2002134:	e0bffc17 	ldw	r2,-16(fp)
 2002138:	10000415 	stw	zero,16(r2)
 200213c:	10000515 	stw	zero,20(r2)
	m_iLastError = 0;
 2002140:	e0bffc17 	ldw	r2,-16(fp)
 2002144:	10000615 	stw	zero,24(r2)
	//LOG_DEBUG("Controller set up with P=%d, I=%d",m_iPValue,m_iIValue);
}
 2002148:	e037883a 	mov	sp,fp
 200214c:	df000017 	ldw	fp,0(sp)
 2002150:	dec00104 	addi	sp,sp,4
 2002154:	f800283a 	ret

02002158 <_ZN13CPIControllerD2Ev>:


CPIController::~CPIController(void){}
 2002158:	defffe04 	addi	sp,sp,-8
 200215c:	df000115 	stw	fp,4(sp)
 2002160:	df000104 	addi	fp,sp,4
 2002164:	e13fff15 	stw	r4,-4(fp)
 2002168:	e037883a 	mov	sp,fp
 200216c:	df000017 	ldw	fp,0(sp)
 2002170:	dec00104 	addi	sp,sp,4
 2002174:	f800283a 	ret

02002178 <_ZN13CPIControllerD1Ev>:
 2002178:	defffe04 	addi	sp,sp,-8
 200217c:	df000115 	stw	fp,4(sp)
 2002180:	df000104 	addi	fp,sp,4
 2002184:	e13fff15 	stw	r4,-4(fp)
 2002188:	e037883a 	mov	sp,fp
 200218c:	df000017 	ldw	fp,0(sp)
 2002190:	dec00104 	addi	sp,sp,4
 2002194:	f800283a 	ret

02002198 <_ZN13CPIController7controlEl>:

alt_32 CPIController::control(alt_32 iError)
 2002198:	defff904 	addi	sp,sp,-28
 200219c:	dfc00615 	stw	ra,24(sp)
 20021a0:	df000515 	stw	fp,20(sp)
 20021a4:	df000504 	addi	fp,sp,20
 20021a8:	e13ffe15 	stw	r4,-8(fp)
 20021ac:	e17fff15 	stw	r5,-4(fp)
{
	alt_32 iResultP, iResultI, iResult;

	// Compute P Type:
	iResultP = iError / m_iPValue;
 20021b0:	e0bffe17 	ldw	r2,-8(fp)
 20021b4:	11400017 	ldw	r5,0(r2)
 20021b8:	e13fff17 	ldw	r4,-4(fp)
 20021bc:	200cffc0 	call	200cffc <__divsi3>
 20021c0:	e0bffd15 	stw	r2,-12(fp)

	// Compute I Type:
	m_iErrorSum += iError;
 20021c4:	e0bffe17 	ldw	r2,-8(fp)
 20021c8:	11800417 	ldw	r6,16(r2)
 20021cc:	11c00517 	ldw	r7,20(r2)
 20021d0:	e0bfff17 	ldw	r2,-4(fp)
 20021d4:	1005d7fa 	srai	r2,r2,31
 20021d8:	e13fff17 	ldw	r4,-4(fp)
 20021dc:	100b883a 	mov	r5,r2
 20021e0:	3105883a 	add	r2,r6,r4
 20021e4:	1191803a 	cmpltu	r8,r2,r6
 20021e8:	3947883a 	add	r3,r7,r5
 20021ec:	40c9883a 	add	r4,r8,r3
 20021f0:	2007883a 	mov	r3,r4
 20021f4:	1009883a 	mov	r4,r2
 20021f8:	180b883a 	mov	r5,r3
 20021fc:	e0bffe17 	ldw	r2,-8(fp)
 2002200:	11000415 	stw	r4,16(r2)
 2002204:	11400515 	stw	r5,20(r2)
	iResultI = m_iErrorSum  / m_iIValue;
 2002208:	e0bffe17 	ldw	r2,-8(fp)
 200220c:	11400417 	ldw	r5,16(r2)
 2002210:	11800517 	ldw	r6,20(r2)
 2002214:	e0bffe17 	ldw	r2,-8(fp)
 2002218:	11000117 	ldw	r4,4(r2)
 200221c:	200fd7fa 	srai	r7,r4,31
 2002220:	2005883a 	mov	r2,r4
 2002224:	3807883a 	mov	r3,r7
 2002228:	2809883a 	mov	r4,r5
 200222c:	300b883a 	mov	r5,r6
 2002230:	100d883a 	mov	r6,r2
 2002234:	180f883a 	mov	r7,r3
 2002238:	200c8680 	call	200c868 <__divdi3>
 200223c:	1009883a 	mov	r4,r2
 2002240:	180b883a 	mov	r5,r3
 2002244:	2005883a 	mov	r2,r4
 2002248:	2807883a 	mov	r3,r5
 200224c:	e0bffc15 	stw	r2,-16(fp)
	m_iLastError = iError;
 2002250:	e0fffe17 	ldw	r3,-8(fp)
 2002254:	e0bfff17 	ldw	r2,-4(fp)
 2002258:	18800615 	stw	r2,24(r3)

	// Complete Controller
	iResult = iResultP + iResultI;
 200225c:	e0fffd17 	ldw	r3,-12(fp)
 2002260:	e0bffc17 	ldw	r2,-16(fp)
 2002264:	1885883a 	add	r2,r3,r2
 2002268:	e0bffb15 	stw	r2,-20(fp)

	// Check for bounds
	if(iResult < m_iMinimum)
 200226c:	e0bffe17 	ldw	r2,-8(fp)
 2002270:	10c00217 	ldw	r3,8(r2)
 2002274:	e0bffb17 	ldw	r2,-20(fp)
 2002278:	10c0040e 	bge	r2,r3,200228c <_ZN13CPIController7controlEl+0xf4>
		iResult = m_iMinimum;
 200227c:	e0bffe17 	ldw	r2,-8(fp)
 2002280:	10800217 	ldw	r2,8(r2)
 2002284:	e0bffb15 	stw	r2,-20(fp)
 2002288:	00000706 	br	20022a8 <_ZN13CPIController7controlEl+0x110>
	else if(iResult > m_iMaximum)
 200228c:	e0bffe17 	ldw	r2,-8(fp)
 2002290:	10c00317 	ldw	r3,12(r2)
 2002294:	e0bffb17 	ldw	r2,-20(fp)
 2002298:	1880030e 	bge	r3,r2,20022a8 <_ZN13CPIController7controlEl+0x110>
		iResult = m_iMaximum;
 200229c:	e0bffe17 	ldw	r2,-8(fp)
 20022a0:	10800317 	ldw	r2,12(r2)
 20022a4:	e0bffb15 	stw	r2,-20(fp)

	iResult  *= 100000;
 20022a8:	e13ffb17 	ldw	r4,-20(fp)
 20022ac:	014000b4 	movhi	r5,2
 20022b0:	2961a804 	addi	r5,r5,-31072
 20022b4:	200d0cc0 	call	200d0cc <__mulsi3>
 20022b8:	e0bffb15 	stw	r2,-20(fp)
	iResult  /= (m_iMaximum + 1);
 20022bc:	e0bffe17 	ldw	r2,-8(fp)
 20022c0:	10800317 	ldw	r2,12(r2)
 20022c4:	11400044 	addi	r5,r2,1
 20022c8:	e13ffb17 	ldw	r4,-20(fp)
 20022cc:	200cffc0 	call	200cffc <__divsi3>
 20022d0:	e0bffb15 	stw	r2,-20(fp)
	//LOG_DEBUG("iresult: %d",iResult);
	if(iResult < 10000 && iResult > -10000)
 20022d4:	e0bffb17 	ldw	r2,-20(fp)
 20022d8:	1089c408 	cmpgei	r2,r2,10000
 20022dc:	1000041e 	bne	r2,zero,20022f0 <_ZN13CPIController7controlEl+0x158>
 20022e0:	e0bffb17 	ldw	r2,-20(fp)
 20022e4:	10b63c50 	cmplti	r2,r2,-9999
 20022e8:	1000011e 	bne	r2,zero,20022f0 <_ZN13CPIController7controlEl+0x158>
		iResult = 0;
 20022ec:	e03ffb15 	stw	zero,-20(fp)

	return iResult;
 20022f0:	e0bffb17 	ldw	r2,-20(fp)
}
 20022f4:	e037883a 	mov	sp,fp
 20022f8:	dfc00117 	ldw	ra,4(sp)
 20022fc:	df000017 	ldw	fp,0(sp)
 2002300:	dec00204 	addi	sp,sp,8
 2002304:	f800283a 	ret

02002308 <_ZN13CPIController16changeControllerEll>:

void CPIController::changeController(alt_32 iPValue, alt_32 iIValue)
 2002308:	defffc04 	addi	sp,sp,-16
 200230c:	df000315 	stw	fp,12(sp)
 2002310:	df000304 	addi	fp,sp,12
 2002314:	e13ffd15 	stw	r4,-12(fp)
 2002318:	e17ffe15 	stw	r5,-8(fp)
 200231c:	e1bfff15 	stw	r6,-4(fp)
{
	m_iPValue = iPValue;
 2002320:	e0fffd17 	ldw	r3,-12(fp)
 2002324:	e0bffe17 	ldw	r2,-8(fp)
 2002328:	18800015 	stw	r2,0(r3)
	m_iIValue = iIValue;
 200232c:	e0fffd17 	ldw	r3,-12(fp)
 2002330:	e0bfff17 	ldw	r2,-4(fp)
 2002334:	18800115 	stw	r2,4(r3)
}
 2002338:	e037883a 	mov	sp,fp
 200233c:	df000017 	ldw	fp,0(sp)
 2002340:	dec00104 	addi	sp,sp,4
 2002344:	f800283a 	ret

02002348 <_ZN13CPIController13getControllerEPlS0_>:

void CPIController::getController(alt_32 *p_iPValue, alt_32 *p_iIValue)
 2002348:	defffc04 	addi	sp,sp,-16
 200234c:	df000315 	stw	fp,12(sp)
 2002350:	df000304 	addi	fp,sp,12
 2002354:	e13ffd15 	stw	r4,-12(fp)
 2002358:	e17ffe15 	stw	r5,-8(fp)
 200235c:	e1bfff15 	stw	r6,-4(fp)
{
	*p_iPValue = m_iPValue;
 2002360:	e0bffd17 	ldw	r2,-12(fp)
 2002364:	10c00017 	ldw	r3,0(r2)
 2002368:	e0bffe17 	ldw	r2,-8(fp)
 200236c:	10c00015 	stw	r3,0(r2)
	*p_iIValue = m_iIValue;
 2002370:	e0bffd17 	ldw	r2,-12(fp)
 2002374:	10c00117 	ldw	r3,4(r2)
 2002378:	e0bfff17 	ldw	r2,-4(fp)
 200237c:	10c00015 	stw	r3,0(r2)
}
 2002380:	e037883a 	mov	sp,fp
 2002384:	df000017 	ldw	fp,0(sp)
 2002388:	dec00104 	addi	sp,sp,4
 200238c:	f800283a 	ret

02002390 <_Z8i2c_stopmm>:
    SCL_LOW(clk_base); // clock low
    SCL_DELAY;
}

// SDA 0->1 while SCL=1
void i2c_stop(alt_u32 clk_base, alt_u32 data_base){
 2002390:	defffc04 	addi	sp,sp,-16
 2002394:	dfc00315 	stw	ra,12(sp)
 2002398:	df000215 	stw	fp,8(sp)
 200239c:	df000204 	addi	fp,sp,8
 20023a0:	e13ffe15 	stw	r4,-8(fp)
 20023a4:	e17fff15 	stw	r5,-4(fp)
    // assume SCL = 0
    
    SDA_DIR_OUT(data_base);  // data output enabled
 20023a8:	e0bfff17 	ldw	r2,-4(fp)
 20023ac:	10800104 	addi	r2,r2,4
 20023b0:	1007883a 	mov	r3,r2
 20023b4:	00800044 	movi	r2,1
 20023b8:	18800035 	stwio	r2,0(r3)
    SDA_LOW(data_base); // Data Low
 20023bc:	e0bfff17 	ldw	r2,-4(fp)
 20023c0:	10000035 	stwio	zero,0(r2)
    //SCL_DELAY; 
    SCL_HIGH(clk_base);  // clock high
 20023c4:	e0bffe17 	ldw	r2,-8(fp)
 20023c8:	1007883a 	mov	r3,r2
 20023cc:	00800044 	movi	r2,1
 20023d0:	18800035 	stwio	r2,0(r3)
    SCL_DELAY; // clock high long delay
 20023d4:	01000044 	movi	r4,1
 20023d8:	20181680 	call	2018168 <usleep>
    SDA_HIGH(data_base); // data high
 20023dc:	e0bfff17 	ldw	r2,-4(fp)
 20023e0:	1007883a 	mov	r3,r2
 20023e4:	00800044 	movi	r2,1
 20023e8:	18800035 	stwio	r2,0(r3)
    SCL_DELAY; // data high delay
 20023ec:	01000044 	movi	r4,1
 20023f0:	20181680 	call	2018168 <usleep>
    

    
}
 20023f4:	e037883a 	mov	sp,fp
 20023f8:	dfc00117 	ldw	ra,4(sp)
 20023fc:	df000017 	ldw	fp,0(sp)
 2002400:	dec00204 	addi	sp,sp,8
 2002404:	f800283a 	ret

02002408 <_Z9i2c_startmm>:
///////////// Interncal function (i2cXXX) body //////////////////////////////////////////////
/////////////////////////////////////////////////////////////////////////////////////////////


//SDA 1->0 while SCL=1
void i2c_start(alt_u32 clk_base, alt_u32 data_base){
 2002408:	defffc04 	addi	sp,sp,-16
 200240c:	dfc00315 	stw	ra,12(sp)
 2002410:	df000215 	stw	fp,8(sp)
 2002414:	df000204 	addi	fp,sp,8
 2002418:	e13ffe15 	stw	r4,-8(fp)
 200241c:	e17fff15 	stw	r5,-4(fp)
    
    // make sure it is in normal state
    SDA_DIR_OUT(data_base);  // data output enabled
 2002420:	e0bfff17 	ldw	r2,-4(fp)
 2002424:	10800104 	addi	r2,r2,4
 2002428:	1007883a 	mov	r3,r2
 200242c:	00800044 	movi	r2,1
 2002430:	18800035 	stwio	r2,0(r3)
    
    
    
    // start condition
    SDA_HIGH(data_base); // data high
 2002434:	e0bfff17 	ldw	r2,-4(fp)
 2002438:	1007883a 	mov	r3,r2
 200243c:	00800044 	movi	r2,1
 2002440:	18800035 	stwio	r2,0(r3)
    SCL_HIGH(clk_base);
 2002444:	e0bffe17 	ldw	r2,-8(fp)
 2002448:	1007883a 	mov	r3,r2
 200244c:	00800044 	movi	r2,1
 2002450:	18800035 	stwio	r2,0(r3)
    SCL_DELAY;
 2002454:	01000044 	movi	r4,1
 2002458:	20181680 	call	2018168 <usleep>
     
    SDA_LOW(data_base); // data low
 200245c:	e0bfff17 	ldw	r2,-4(fp)
 2002460:	10000035 	stwio	zero,0(r2)
    SCL_DELAY; 
 2002464:	01000044 	movi	r4,1
 2002468:	20181680 	call	2018168 <usleep>
    SCL_LOW(clk_base); // clock low
 200246c:	e0bffe17 	ldw	r2,-8(fp)
 2002470:	10000035 	stwio	zero,0(r2)
    SCL_DELAY;
 2002474:	01000044 	movi	r4,1
 2002478:	20181680 	call	2018168 <usleep>
}
 200247c:	e037883a 	mov	sp,fp
 2002480:	dfc00117 	ldw	ra,4(sp)
 2002484:	df000017 	ldw	fp,0(sp)
 2002488:	dec00204 	addi	sp,sp,8
 200248c:	f800283a 	ret

02002490 <_Z8i2c_readmmPhb>:
    SCL_LOW(clk_base); // clock low         
    SCL_DELAY; // clock low delay
    return bAck;
}    

void i2c_read(alt_u32 clk_base, alt_u32 data_base, alt_u8 *pData, bool bAck){ // return true if device response ack
 2002490:	defff804 	addi	sp,sp,-32
 2002494:	dfc00715 	stw	ra,28(sp)
 2002498:	df000615 	stw	fp,24(sp)
 200249c:	df000604 	addi	fp,sp,24
 20024a0:	e13ffc15 	stw	r4,-16(fp)
 20024a4:	e17ffd15 	stw	r5,-12(fp)
 20024a8:	e1bffe15 	stw	r6,-8(fp)
 20024ac:	e1ffff05 	stb	r7,-4(fp)
    alt_u8 Data=0;
 20024b0:	e03ffb05 	stb	zero,-20(fp)
    int i;
    
    // assume SCL = low
    
    SDA_DIR_IN(data_base);  // set data read mode
 20024b4:	e0bffd17 	ldw	r2,-12(fp)
 20024b8:	10800104 	addi	r2,r2,4
 20024bc:	10000035 	stwio	zero,0(r2)
    SCL_LOW(clk_base); // clock low
 20024c0:	e0bffc17 	ldw	r2,-16(fp)
 20024c4:	10000035 	stwio	zero,0(r2)
    SCL_DELAY; // clock low delay
 20024c8:	01000044 	movi	r4,1
 20024cc:	20181680 	call	2018168 <usleep>

    for(i=0;i<8;i++){
 20024d0:	e03ffa15 	stw	zero,-24(fp)
 20024d4:	00001906 	br	200253c <_Z8i2c_readmmPhb+0xac>
        Data <<= 1;
 20024d8:	e0bffb03 	ldbu	r2,-20(fp)
 20024dc:	1085883a 	add	r2,r2,r2
 20024e0:	e0bffb05 	stb	r2,-20(fp)
        SCL_HIGH(clk_base);  // clock high
 20024e4:	e0bffc17 	ldw	r2,-16(fp)
 20024e8:	1007883a 	mov	r3,r2
 20024ec:	00800044 	movi	r2,1
 20024f0:	18800035 	stwio	r2,0(r3)
        SCL_DELAY;
 20024f4:	01000044 	movi	r4,1
 20024f8:	20181680 	call	2018168 <usleep>
        if (SDA_READ(data_base))  // read data   
 20024fc:	e0bffd17 	ldw	r2,-12(fp)
 2002500:	10800037 	ldwio	r2,0(r2)
 2002504:	1004c03a 	cmpne	r2,r2,zero
 2002508:	10803fcc 	andi	r2,r2,255
 200250c:	1005003a 	cmpeq	r2,r2,zero
 2002510:	1000031e 	bne	r2,zero,2002520 <_Z8i2c_readmmPhb+0x90>
            Data |= 0x01;
 2002514:	e0bffb03 	ldbu	r2,-20(fp)
 2002518:	10800054 	ori	r2,r2,1
 200251c:	e0bffb05 	stb	r2,-20(fp)
        SCL_LOW(clk_base);  // clock log  
 2002520:	e0bffc17 	ldw	r2,-16(fp)
 2002524:	10000035 	stwio	zero,0(r2)
        SCL_DELAY;
 2002528:	01000044 	movi	r4,1
 200252c:	20181680 	call	2018168 <usleep>
    
    SDA_DIR_IN(data_base);  // set data read mode
    SCL_LOW(clk_base); // clock low
    SCL_DELAY; // clock low delay

    for(i=0;i<8;i++){
 2002530:	e0bffa17 	ldw	r2,-24(fp)
 2002534:	10800044 	addi	r2,r2,1
 2002538:	e0bffa15 	stw	r2,-24(fp)
 200253c:	e0bffa17 	ldw	r2,-24(fp)
 2002540:	10800210 	cmplti	r2,r2,8
 2002544:	103fe41e 	bne	r2,zero,20024d8 <_Z8i2c_readmmPhb+0x48>
        SCL_LOW(clk_base);  // clock log  
        SCL_DELAY;
    }
    
    // send ACK
    SCL_LOW(clk_base);  // new, make sure data change at clk low
 2002548:	e0bffc17 	ldw	r2,-16(fp)
 200254c:	10000035 	stwio	zero,0(r2)
    SDA_DIR_OUT(data_base);  // set data write mode
 2002550:	e0bffd17 	ldw	r2,-12(fp)
 2002554:	10800104 	addi	r2,r2,4
 2002558:	1007883a 	mov	r3,r2
 200255c:	00800044 	movi	r2,1
 2002560:	18800035 	stwio	r2,0(r3)
    if (bAck)
 2002564:	e0bfff03 	ldbu	r2,-4(fp)
 2002568:	1005003a 	cmpeq	r2,r2,zero
 200256c:	1000031e 	bne	r2,zero,200257c <_Z8i2c_readmmPhb+0xec>
        SDA_LOW(data_base);
 2002570:	e0bffd17 	ldw	r2,-12(fp)
 2002574:	10000035 	stwio	zero,0(r2)
 2002578:	00000406 	br	200258c <_Z8i2c_readmmPhb+0xfc>
    else
        SDA_HIGH(data_base);
 200257c:	e0bffd17 	ldw	r2,-12(fp)
 2002580:	1007883a 	mov	r3,r2
 2002584:	00800044 	movi	r2,1
 2002588:	18800035 	stwio	r2,0(r3)
    SCL_HIGH(clk_base); // clock high
 200258c:	e0bffc17 	ldw	r2,-16(fp)
 2002590:	1007883a 	mov	r3,r2
 2002594:	00800044 	movi	r2,1
 2002598:	18800035 	stwio	r2,0(r3)
    SCL_DELAY; // clock high  delay
 200259c:	01000044 	movi	r4,1
 20025a0:	20181680 	call	2018168 <usleep>
    SCL_LOW(clk_base); // clock low
 20025a4:	e0bffc17 	ldw	r2,-16(fp)
 20025a8:	10000035 	stwio	zero,0(r2)
    SCL_DELAY; // clock low delay
 20025ac:	01000044 	movi	r4,1
 20025b0:	20181680 	call	2018168 <usleep>
    SDA_LOW(data_base);  // data low
 20025b4:	e0bffd17 	ldw	r2,-12(fp)
 20025b8:	10000035 	stwio	zero,0(r2)
    SCL_DELAY; // data low delay
 20025bc:	01000044 	movi	r4,1
 20025c0:	20181680 	call	2018168 <usleep>
//    SDA_DIR_IN;  // set data read mode
    
    *pData = Data;
 20025c4:	e0fffe17 	ldw	r3,-8(fp)
 20025c8:	e0bffb03 	ldbu	r2,-20(fp)
 20025cc:	18800005 	stb	r2,0(r3)
}
 20025d0:	e037883a 	mov	sp,fp
 20025d4:	dfc00117 	ldw	ra,4(sp)
 20025d8:	df000017 	ldw	fp,0(sp)
 20025dc:	dec00204 	addi	sp,sp,8
 20025e0:	f800283a 	ret

020025e4 <_Z9i2c_writemmh>:
    

    
}

bool i2c_write(alt_u32 clk_base, alt_u32 data_base, alt_u8 Data){ // return true if device response ack
 20025e4:	defff904 	addi	sp,sp,-28
 20025e8:	dfc00615 	stw	ra,24(sp)
 20025ec:	df000515 	stw	fp,20(sp)
 20025f0:	df000504 	addi	fp,sp,20
 20025f4:	e13ffd15 	stw	r4,-12(fp)
 20025f8:	e17ffe15 	stw	r5,-8(fp)
 20025fc:	e1bfff05 	stb	r6,-4(fp)
    alt_u8 Mask = 0x80;
 2002600:	00bfe004 	movi	r2,-128
 2002604:	e0bffc45 	stb	r2,-15(fp)
    bool bAck;
    int i;
    
    // assume, SCL = 0
    
    SDA_DIR_OUT(data_base);  // data write mode
 2002608:	e0bffe17 	ldw	r2,-8(fp)
 200260c:	10800104 	addi	r2,r2,4
 2002610:	1007883a 	mov	r3,r2
 2002614:	00800044 	movi	r2,1
 2002618:	18800035 	stwio	r2,0(r3)
    
    for(i=0;i<8;i++){
 200261c:	e03ffb15 	stw	zero,-20(fp)
 2002620:	00001e06 	br	200269c <_Z9i2c_writemmh+0xb8>
        SCL_LOW(clk_base);  // new, make sure data change at clk low
 2002624:	e0bffd17 	ldw	r2,-12(fp)
 2002628:	10000035 	stwio	zero,0(r2)
        // output data on bus
        if (Data & Mask){ // there is a delay in this command
 200262c:	e0ffff03 	ldbu	r3,-4(fp)
 2002630:	e0bffc43 	ldbu	r2,-15(fp)
 2002634:	1884703a 	and	r2,r3,r2
 2002638:	1005003a 	cmpeq	r2,r2,zero
 200263c:	1000051e 	bne	r2,zero,2002654 <_Z9i2c_writemmh+0x70>
            SDA_HIGH(data_base);
 2002640:	e0bffe17 	ldw	r2,-8(fp)
 2002644:	1007883a 	mov	r3,r2
 2002648:	00800044 	movi	r2,1
 200264c:	18800035 	stwio	r2,0(r3)
 2002650:	00000206 	br	200265c <_Z9i2c_writemmh+0x78>
        }else{    
            SDA_LOW(data_base);
 2002654:	e0bffe17 	ldw	r2,-8(fp)
 2002658:	10000035 	stwio	zero,0(r2)
        }
        Mask >>= 1; // there is a delay in this command
 200265c:	e0bffc43 	ldbu	r2,-15(fp)
 2002660:	1004d07a 	srli	r2,r2,1
 2002664:	e0bffc45 	stb	r2,-15(fp)
        // clock high
        SCL_HIGH(clk_base);
 2002668:	e0bffd17 	ldw	r2,-12(fp)
 200266c:	1007883a 	mov	r3,r2
 2002670:	00800044 	movi	r2,1
 2002674:	18800035 	stwio	r2,0(r3)
        SCL_DELAY;
 2002678:	01000044 	movi	r4,1
 200267c:	20181680 	call	2018168 <usleep>
        SCL_LOW(clk_base);
 2002680:	e0bffd17 	ldw	r2,-12(fp)
 2002684:	10000035 	stwio	zero,0(r2)
        SCL_DELAY;
 2002688:	01000044 	movi	r4,1
 200268c:	20181680 	call	2018168 <usleep>
    
    // assume, SCL = 0
    
    SDA_DIR_OUT(data_base);  // data write mode
    
    for(i=0;i<8;i++){
 2002690:	e0bffb17 	ldw	r2,-20(fp)
 2002694:	10800044 	addi	r2,r2,1
 2002698:	e0bffb15 	stw	r2,-20(fp)
 200269c:	e0bffb17 	ldw	r2,-20(fp)
 20026a0:	10800210 	cmplti	r2,r2,8
 20026a4:	103fdf1e 	bne	r2,zero,2002624 <_Z9i2c_writemmh+0x40>
        SCL_LOW(clk_base);
        SCL_DELAY;
    }
    
    //===== get ack
    SDA_DIR_IN(data_base);  // data read mode
 20026a8:	e0bffe17 	ldw	r2,-8(fp)
 20026ac:	10800104 	addi	r2,r2,4
 20026b0:	10000035 	stwio	zero,0(r2)
    //SCL_DELAY;
    // clock high
    SCL_HIGH(clk_base);  // clock high
 20026b4:	e0bffd17 	ldw	r2,-12(fp)
 20026b8:	1007883a 	mov	r3,r2
 20026bc:	00800044 	movi	r2,1
 20026c0:	18800035 	stwio	r2,0(r3)
    SCL_DELAY;  // clock high delay
 20026c4:	01000044 	movi	r4,1
 20026c8:	20181680 	call	2018168 <usleep>
    bAck = SDA_READ(data_base)?FALSE:TRUE;  // get ack
 20026cc:	e0bffe17 	ldw	r2,-8(fp)
 20026d0:	10800037 	ldwio	r2,0(r2)
 20026d4:	1005003a 	cmpeq	r2,r2,zero
 20026d8:	e0bffc05 	stb	r2,-16(fp)
    //SCL_DELAY;
    //SDA_DIR_OUT;
    SCL_LOW(clk_base); // clock low         
 20026dc:	e0bffd17 	ldw	r2,-12(fp)
 20026e0:	10000035 	stwio	zero,0(r2)
    SCL_DELAY; // clock low delay
 20026e4:	01000044 	movi	r4,1
 20026e8:	20181680 	call	2018168 <usleep>
    return bAck;
 20026ec:	e0bffc03 	ldbu	r2,-16(fp)
}    
 20026f0:	e037883a 	mov	sp,fp
 20026f4:	dfc00117 	ldw	ra,4(sp)
 20026f8:	df000017 	ldw	fp,0(sp)
 20026fc:	dec00204 	addi	sp,sp,8
 2002700:	f800283a 	ret

02002704 <_Z16I2C_MultipleReadmmahPht>:
    return bSuccess;

    
}

bool I2C_MultipleRead(alt_u32 clk_base, alt_u32 data_base, alt_8 DeviceAddr, alt_u8 ControlAddr, alt_u8 *pBuf, alt_u16 len){
 2002704:	defff704 	addi	sp,sp,-36
 2002708:	dfc00815 	stw	ra,32(sp)
 200270c:	df000715 	stw	fp,28(sp)
 2002710:	df000704 	addi	fp,sp,28
 2002714:	e13ffb15 	stw	r4,-20(fp)
 2002718:	e17ffc15 	stw	r5,-16(fp)
 200271c:	e0800317 	ldw	r2,12(fp)
 2002720:	e1bffd05 	stb	r6,-12(fp)
 2002724:	e1fffe05 	stb	r7,-8(fp)
 2002728:	e0bfff0d 	sth	r2,-4(fp)
    int i;
    bool bSuccess = TRUE;
 200272c:	00800044 	movi	r2,1
 2002730:	e0bff905 	stb	r2,-28(fp)
    
   
    // device id
    //DeviceAddr = HMB_E2_I2C_ID;

    i2c_start(clk_base, data_base);
 2002734:	e13ffb17 	ldw	r4,-20(fp)
 2002738:	e17ffc17 	ldw	r5,-16(fp)
 200273c:	20024080 	call	2002408 <_Z9i2c_startmm>
    if (!i2c_write(clk_base, data_base, DeviceAddr)){  // send ID
 2002740:	e0bffd03 	ldbu	r2,-12(fp)
 2002744:	11803fcc 	andi	r6,r2,255
 2002748:	e13ffb17 	ldw	r4,-20(fp)
 200274c:	e17ffc17 	ldw	r5,-16(fp)
 2002750:	20025e40 	call	20025e4 <_Z9i2c_writemmh>
 2002754:	1080005c 	xori	r2,r2,1
 2002758:	10803fcc 	andi	r2,r2,255
 200275c:	1005003a 	cmpeq	r2,r2,zero
 2002760:	1000011e 	bne	r2,zero,2002768 <_Z16I2C_MultipleReadmmahPht+0x64>
        bSuccess = FALSE;
 2002764:	e03ff905 	stb	zero,-28(fp)
        I2C_DEBUG(("I2C HMB_E2 Fail: Address NACK!\n"));
    }
    if (bSuccess && !i2c_write(clk_base, data_base, ControlAddr)){ // send sub-address
 2002768:	e0bff903 	ldbu	r2,-28(fp)
 200276c:	1080005c 	xori	r2,r2,1
 2002770:	10803fcc 	andi	r2,r2,255
 2002774:	1004c03a 	cmpne	r2,r2,zero
 2002778:	10000c1e 	bne	r2,zero,20027ac <_Z16I2C_MultipleReadmmahPht+0xa8>
 200277c:	e1bffe03 	ldbu	r6,-8(fp)
 2002780:	e13ffb17 	ldw	r4,-20(fp)
 2002784:	e17ffc17 	ldw	r5,-16(fp)
 2002788:	20025e40 	call	20025e4 <_Z9i2c_writemmh>
 200278c:	1080005c 	xori	r2,r2,1
 2002790:	1080005c 	xori	r2,r2,1
 2002794:	10803fcc 	andi	r2,r2,255
 2002798:	1004c03a 	cmpne	r2,r2,zero
 200279c:	1000031e 	bne	r2,zero,20027ac <_Z16I2C_MultipleReadmmahPht+0xa8>
 20027a0:	00800044 	movi	r2,1
 20027a4:	e0bfffc5 	stb	r2,-1(fp)
 20027a8:	00000106 	br	20027b0 <_Z16I2C_MultipleReadmmahPht+0xac>
 20027ac:	e03fffc5 	stb	zero,-1(fp)
 20027b0:	e0bfffc3 	ldbu	r2,-1(fp)
 20027b4:	10803fcc 	andi	r2,r2,255
 20027b8:	1005003a 	cmpeq	r2,r2,zero
 20027bc:	1000011e 	bne	r2,zero,20027c4 <_Z16I2C_MultipleReadmmahPht+0xc0>
        bSuccess = FALSE;
 20027c0:	e03ff905 	stb	zero,-28(fp)
        I2C_DEBUG(("I2C HMB_E2 Fail: SubAddress NACK!\n"));
    }    
    if (bSuccess)        
 20027c4:	e0bff903 	ldbu	r2,-28(fp)
 20027c8:	1005003a 	cmpeq	r2,r2,zero
 20027cc:	1000031e 	bne	r2,zero,20027dc <_Z16I2C_MultipleReadmmahPht+0xd8>
        i2c_start(clk_base, data_base);  // restart
 20027d0:	e13ffb17 	ldw	r4,-20(fp)
 20027d4:	e17ffc17 	ldw	r5,-16(fp)
 20027d8:	20024080 	call	2002408 <_Z9i2c_startmm>
    DeviceAddr |= 1; // Read
 20027dc:	e0bffd03 	ldbu	r2,-12(fp)
 20027e0:	10800054 	ori	r2,r2,1
 20027e4:	e0bffd05 	stb	r2,-12(fp)
    if (bSuccess && !i2c_write(clk_base, data_base, DeviceAddr)){  // send id
 20027e8:	e0bff903 	ldbu	r2,-28(fp)
 20027ec:	1080005c 	xori	r2,r2,1
 20027f0:	10803fcc 	andi	r2,r2,255
 20027f4:	1004c03a 	cmpne	r2,r2,zero
 20027f8:	10000d1e 	bne	r2,zero,2002830 <_Z16I2C_MultipleReadmmahPht+0x12c>
 20027fc:	e0bffd03 	ldbu	r2,-12(fp)
 2002800:	11803fcc 	andi	r6,r2,255
 2002804:	e13ffb17 	ldw	r4,-20(fp)
 2002808:	e17ffc17 	ldw	r5,-16(fp)
 200280c:	20025e40 	call	20025e4 <_Z9i2c_writemmh>
 2002810:	1080005c 	xori	r2,r2,1
 2002814:	1080005c 	xori	r2,r2,1
 2002818:	10803fcc 	andi	r2,r2,255
 200281c:	1004c03a 	cmpne	r2,r2,zero
 2002820:	1000031e 	bne	r2,zero,2002830 <_Z16I2C_MultipleReadmmahPht+0x12c>
 2002824:	00800044 	movi	r2,1
 2002828:	e0bfff85 	stb	r2,-2(fp)
 200282c:	00000106 	br	2002834 <_Z16I2C_MultipleReadmmahPht+0x130>
 2002830:	e03fff85 	stb	zero,-2(fp)
 2002834:	e0bfff83 	ldbu	r2,-2(fp)
 2002838:	10803fcc 	andi	r2,r2,255
 200283c:	1005003a 	cmpeq	r2,r2,zero
 2002840:	1000011e 	bne	r2,zero,2002848 <_Z16I2C_MultipleReadmmahPht+0x144>
        bSuccess = FALSE;
 2002844:	e03ff905 	stb	zero,-28(fp)
        I2C_DEBUG(("I2C HMB_E2 Fail: Address+1 NACK!\n"));
    }
    
    if (bSuccess){
 2002848:	e0bff903 	ldbu	r2,-28(fp)
 200284c:	1005003a 	cmpeq	r2,r2,zero
 2002850:	1000161e 	bne	r2,zero,20028ac <_Z16I2C_MultipleReadmmahPht+0x1a8>
        for(i=0;i<len && bSuccess;i++){
 2002854:	e03ffa15 	stw	zero,-24(fp)
 2002858:	00000e06 	br	2002894 <_Z16I2C_MultipleReadmmahPht+0x190>
            i2c_read(clk_base, data_base, pBuf, (i==(len-1))?FALSE:TRUE);  // read
 200285c:	e0bfff0b 	ldhu	r2,-4(fp)
 2002860:	10ffffc4 	addi	r3,r2,-1
 2002864:	e0bffa17 	ldw	r2,-24(fp)
 2002868:	188ec03a 	cmpne	r7,r3,r2
 200286c:	e13ffb17 	ldw	r4,-20(fp)
 2002870:	e17ffc17 	ldw	r5,-16(fp)
 2002874:	e1800217 	ldw	r6,8(fp)
 2002878:	20024900 	call	2002490 <_Z8i2c_readmmPhb>
            pBuf++;
 200287c:	e0800217 	ldw	r2,8(fp)
 2002880:	10800044 	addi	r2,r2,1
 2002884:	e0800215 	stw	r2,8(fp)
        bSuccess = FALSE;
        I2C_DEBUG(("I2C HMB_E2 Fail: Address+1 NACK!\n"));
    }
    
    if (bSuccess){
        for(i=0;i<len && bSuccess;i++){
 2002888:	e0bffa17 	ldw	r2,-24(fp)
 200288c:	10800044 	addi	r2,r2,1
 2002890:	e0bffa15 	stw	r2,-24(fp)
 2002894:	e0ffff0b 	ldhu	r3,-4(fp)
 2002898:	e0bffa17 	ldw	r2,-24(fp)
 200289c:	10c0030e 	bge	r2,r3,20028ac <_Z16I2C_MultipleReadmmahPht+0x1a8>
 20028a0:	e0bff903 	ldbu	r2,-28(fp)
 20028a4:	1004c03a 	cmpne	r2,r2,zero
 20028a8:	103fec1e 	bne	r2,zero,200285c <_Z16I2C_MultipleReadmmahPht+0x158>
            i2c_read(clk_base, data_base, pBuf, (i==(len-1))?FALSE:TRUE);  // read
            pBuf++;
        }            
    }        
    i2c_stop(clk_base, data_base);
 20028ac:	e13ffb17 	ldw	r4,-20(fp)
 20028b0:	e17ffc17 	ldw	r5,-16(fp)
 20028b4:	20023900 	call	2002390 <_Z8i2c_stopmm>
    
    return bSuccess;    
 20028b8:	e0bff903 	ldbu	r2,-28(fp)
    
}
 20028bc:	e037883a 	mov	sp,fp
 20028c0:	dfc00117 	ldw	ra,4(sp)
 20028c4:	df000017 	ldw	fp,0(sp)
 20028c8:	dec00204 	addi	sp,sp,8
 20028cc:	f800283a 	ret

020028d0 <_Z17I2C_MultipleWritemmahPht>:
    
    return bSuccess;
}


bool I2C_MultipleWrite(alt_u32 clk_base, alt_u32 data_base, alt_8 DeviceAddr, alt_u8 ControlAddr, alt_u8 *pData, alt_u16 len){
 20028d0:	defff704 	addi	sp,sp,-36
 20028d4:	dfc00815 	stw	ra,32(sp)
 20028d8:	df000715 	stw	fp,28(sp)
 20028dc:	df000704 	addi	fp,sp,28
 20028e0:	e13ffb15 	stw	r4,-20(fp)
 20028e4:	e17ffc15 	stw	r5,-16(fp)
 20028e8:	e0800317 	ldw	r2,12(fp)
 20028ec:	e1bffd05 	stb	r6,-12(fp)
 20028f0:	e1fffe05 	stb	r7,-8(fp)
 20028f4:	e0bfff0d 	sth	r2,-4(fp)
    bool bSuccess = TRUE;
 20028f8:	00800044 	movi	r2,1
 20028fc:	e0bffa05 	stb	r2,-24(fp)
    int i;

    i2c_start(clk_base, data_base);
 2002900:	e13ffb17 	ldw	r4,-20(fp)
 2002904:	e17ffc17 	ldw	r5,-16(fp)
 2002908:	20024080 	call	2002408 <_Z9i2c_startmm>
    if (!i2c_write(clk_base, data_base, DeviceAddr)){  // send ID
 200290c:	e0bffd03 	ldbu	r2,-12(fp)
 2002910:	11803fcc 	andi	r6,r2,255
 2002914:	e13ffb17 	ldw	r4,-20(fp)
 2002918:	e17ffc17 	ldw	r5,-16(fp)
 200291c:	20025e40 	call	20025e4 <_Z9i2c_writemmh>
 2002920:	1080005c 	xori	r2,r2,1
 2002924:	10803fcc 	andi	r2,r2,255
 2002928:	1005003a 	cmpeq	r2,r2,zero
 200292c:	1000011e 	bne	r2,zero,2002934 <_Z17I2C_MultipleWritemmahPht+0x64>
        bSuccess = FALSE;
 2002930:	e03ffa05 	stb	zero,-24(fp)
        I2C_DEBUG(("I2C HMB_E2 Fail: Address NACK!\n"));
    }
    if (bSuccess && !i2c_write(clk_base, data_base, ControlAddr)){ // send sub-address
 2002934:	e0bffa03 	ldbu	r2,-24(fp)
 2002938:	1080005c 	xori	r2,r2,1
 200293c:	10803fcc 	andi	r2,r2,255
 2002940:	1004c03a 	cmpne	r2,r2,zero
 2002944:	10000c1e 	bne	r2,zero,2002978 <_Z17I2C_MultipleWritemmahPht+0xa8>
 2002948:	e1bffe03 	ldbu	r6,-8(fp)
 200294c:	e13ffb17 	ldw	r4,-20(fp)
 2002950:	e17ffc17 	ldw	r5,-16(fp)
 2002954:	20025e40 	call	20025e4 <_Z9i2c_writemmh>
 2002958:	1080005c 	xori	r2,r2,1
 200295c:	1080005c 	xori	r2,r2,1
 2002960:	10803fcc 	andi	r2,r2,255
 2002964:	1004c03a 	cmpne	r2,r2,zero
 2002968:	1000031e 	bne	r2,zero,2002978 <_Z17I2C_MultipleWritemmahPht+0xa8>
 200296c:	00800044 	movi	r2,1
 2002970:	e0bfff85 	stb	r2,-2(fp)
 2002974:	00000106 	br	200297c <_Z17I2C_MultipleWritemmahPht+0xac>
 2002978:	e03fff85 	stb	zero,-2(fp)
 200297c:	e0bfff83 	ldbu	r2,-2(fp)
 2002980:	10803fcc 	andi	r2,r2,255
 2002984:	1005003a 	cmpeq	r2,r2,zero
 2002988:	1000011e 	bne	r2,zero,2002990 <_Z17I2C_MultipleWritemmahPht+0xc0>
        bSuccess = FALSE;
 200298c:	e03ffa05 	stb	zero,-24(fp)
        I2C_DEBUG(("I2C HMB_E2 Fail: SubAddress NACK!\n"));
    }            
    if (bSuccess){
 2002990:	e0bffa03 	ldbu	r2,-24(fp)
 2002994:	1005003a 	cmpeq	r2,r2,zero
 2002998:	1000151e 	bne	r2,zero,20029f0 <_Z17I2C_MultipleWritemmahPht+0x120>
        for(i=0;i<len && bSuccess;i++){
 200299c:	e03ff915 	stw	zero,-28(fp)
 20029a0:	00000d06 	br	20029d8 <_Z17I2C_MultipleWritemmahPht+0x108>
            bSuccess = i2c_write(clk_base, data_base, *pData);
 20029a4:	e0800217 	ldw	r2,8(fp)
 20029a8:	10800003 	ldbu	r2,0(r2)
 20029ac:	11803fcc 	andi	r6,r2,255
 20029b0:	e13ffb17 	ldw	r4,-20(fp)
 20029b4:	e17ffc17 	ldw	r5,-16(fp)
 20029b8:	20025e40 	call	20025e4 <_Z9i2c_writemmh>
 20029bc:	e0bffa05 	stb	r2,-24(fp)
            pData++;
 20029c0:	e0800217 	ldw	r2,8(fp)
 20029c4:	10800044 	addi	r2,r2,1
 20029c8:	e0800215 	stw	r2,8(fp)
    if (bSuccess && !i2c_write(clk_base, data_base, ControlAddr)){ // send sub-address
        bSuccess = FALSE;
        I2C_DEBUG(("I2C HMB_E2 Fail: SubAddress NACK!\n"));
    }            
    if (bSuccess){
        for(i=0;i<len && bSuccess;i++){
 20029cc:	e0bff917 	ldw	r2,-28(fp)
 20029d0:	10800044 	addi	r2,r2,1
 20029d4:	e0bff915 	stw	r2,-28(fp)
 20029d8:	e0ffff0b 	ldhu	r3,-4(fp)
 20029dc:	e0bff917 	ldw	r2,-28(fp)
 20029e0:	10c0030e 	bge	r2,r3,20029f0 <_Z17I2C_MultipleWritemmahPht+0x120>
 20029e4:	e0bffa03 	ldbu	r2,-24(fp)
 20029e8:	1004c03a 	cmpne	r2,r2,zero
 20029ec:	103fed1e 	bne	r2,zero,20029a4 <_Z17I2C_MultipleWritemmahPht+0xd4>
            pData++;
        }
        if (!bSuccess)         
            I2C_DEBUG(("I2C HMB_E2 Fail: write NACK!\n"));
    }
    i2c_stop(clk_base, data_base);
 20029f0:	e13ffb17 	ldw	r4,-20(fp)
 20029f4:	e17ffc17 	ldw	r5,-16(fp)
 20029f8:	20023900 	call	2002390 <_Z8i2c_stopmm>
    
    usleep(7*1000); // delay to wait EE2 ready (at least 5 ms delay is required)
 20029fc:	0106d604 	movi	r4,7000
 2002a00:	20181680 	call	2018168 <usleep>
    
    return bSuccess;
 2002a04:	e0bffa03 	ldbu	r2,-24(fp)

    
}
 2002a08:	e037883a 	mov	sp,fp
 2002a0c:	dfc00117 	ldw	ra,4(sp)
 2002a10:	df000017 	ldw	fp,0(sp)
 2002a14:	dec00204 	addi	sp,sp,8
 2002a18:	f800283a 	ret

02002a1c <_Z8I2C_ReadmmahPh>:
    return bSuccess;

    
}

bool I2C_Read(alt_u32 clk_base, alt_u32 data_base, alt_8 DeviceAddr, alt_u8 ControlAddr, alt_u8 *pControlData){
 2002a1c:	defff904 	addi	sp,sp,-28
 2002a20:	dfc00615 	stw	ra,24(sp)
 2002a24:	df000515 	stw	fp,20(sp)
 2002a28:	df000504 	addi	fp,sp,20
 2002a2c:	e13ffc15 	stw	r4,-16(fp)
 2002a30:	e17ffd15 	stw	r5,-12(fp)
 2002a34:	e1bffe05 	stb	r6,-8(fp)
 2002a38:	e1ffff05 	stb	r7,-4(fp)
    bool bSuccess = TRUE;
 2002a3c:	00800044 	movi	r2,1
 2002a40:	e0bffb05 	stb	r2,-20(fp)
    //alt_u8 DeviceAddr;
   
    // device id
    //DeviceAddr = HMB_E2_I2C_ID;

    i2c_start(clk_base, data_base);
 2002a44:	e13ffc17 	ldw	r4,-16(fp)
 2002a48:	e17ffd17 	ldw	r5,-12(fp)
 2002a4c:	20024080 	call	2002408 <_Z9i2c_startmm>
    if (!i2c_write(clk_base, data_base, DeviceAddr)){  // send ID
 2002a50:	e0bffe03 	ldbu	r2,-8(fp)
 2002a54:	11803fcc 	andi	r6,r2,255
 2002a58:	e13ffc17 	ldw	r4,-16(fp)
 2002a5c:	e17ffd17 	ldw	r5,-12(fp)
 2002a60:	20025e40 	call	20025e4 <_Z9i2c_writemmh>
 2002a64:	1080005c 	xori	r2,r2,1
 2002a68:	10803fcc 	andi	r2,r2,255
 2002a6c:	1005003a 	cmpeq	r2,r2,zero
 2002a70:	1000011e 	bne	r2,zero,2002a78 <_Z8I2C_ReadmmahPh+0x5c>
        bSuccess = FALSE;
 2002a74:	e03ffb05 	stb	zero,-20(fp)
        I2C_DEBUG(("I2C HMB_E2 Fail: Address NACK!\n"));
    }
    if (bSuccess && !i2c_write(clk_base, data_base, ControlAddr)){ // send sub-address
 2002a78:	e0bffb03 	ldbu	r2,-20(fp)
 2002a7c:	1080005c 	xori	r2,r2,1
 2002a80:	10803fcc 	andi	r2,r2,255
 2002a84:	1004c03a 	cmpne	r2,r2,zero
 2002a88:	10000c1e 	bne	r2,zero,2002abc <_Z8I2C_ReadmmahPh+0xa0>
 2002a8c:	e1bfff03 	ldbu	r6,-4(fp)
 2002a90:	e13ffc17 	ldw	r4,-16(fp)
 2002a94:	e17ffd17 	ldw	r5,-12(fp)
 2002a98:	20025e40 	call	20025e4 <_Z9i2c_writemmh>
 2002a9c:	1080005c 	xori	r2,r2,1
 2002aa0:	1080005c 	xori	r2,r2,1
 2002aa4:	10803fcc 	andi	r2,r2,255
 2002aa8:	1004c03a 	cmpne	r2,r2,zero
 2002aac:	1000031e 	bne	r2,zero,2002abc <_Z8I2C_ReadmmahPh+0xa0>
 2002ab0:	00800044 	movi	r2,1
 2002ab4:	e0bfff85 	stb	r2,-2(fp)
 2002ab8:	00000106 	br	2002ac0 <_Z8I2C_ReadmmahPh+0xa4>
 2002abc:	e03fff85 	stb	zero,-2(fp)
 2002ac0:	e0bfff83 	ldbu	r2,-2(fp)
 2002ac4:	10803fcc 	andi	r2,r2,255
 2002ac8:	1005003a 	cmpeq	r2,r2,zero
 2002acc:	1000011e 	bne	r2,zero,2002ad4 <_Z8I2C_ReadmmahPh+0xb8>
        bSuccess = FALSE;
 2002ad0:	e03ffb05 	stb	zero,-20(fp)
        I2C_DEBUG(("I2C HMB_E2 Fail: SubAddress NACK!\n"));
    }            
    i2c_start(clk_base, data_base);  // restart
 2002ad4:	e13ffc17 	ldw	r4,-16(fp)
 2002ad8:	e17ffd17 	ldw	r5,-12(fp)
 2002adc:	20024080 	call	2002408 <_Z9i2c_startmm>
    DeviceAddr |= 1; // Read
 2002ae0:	e0bffe03 	ldbu	r2,-8(fp)
 2002ae4:	10800054 	ori	r2,r2,1
 2002ae8:	e0bffe05 	stb	r2,-8(fp)
    if (bSuccess && !i2c_write(clk_base, data_base, DeviceAddr)){  // send id
 2002aec:	e0bffb03 	ldbu	r2,-20(fp)
 2002af0:	1080005c 	xori	r2,r2,1
 2002af4:	10803fcc 	andi	r2,r2,255
 2002af8:	1004c03a 	cmpne	r2,r2,zero
 2002afc:	10000d1e 	bne	r2,zero,2002b34 <_Z8I2C_ReadmmahPh+0x118>
 2002b00:	e0bffe03 	ldbu	r2,-8(fp)
 2002b04:	11803fcc 	andi	r6,r2,255
 2002b08:	e13ffc17 	ldw	r4,-16(fp)
 2002b0c:	e17ffd17 	ldw	r5,-12(fp)
 2002b10:	20025e40 	call	20025e4 <_Z9i2c_writemmh>
 2002b14:	1080005c 	xori	r2,r2,1
 2002b18:	1080005c 	xori	r2,r2,1
 2002b1c:	10803fcc 	andi	r2,r2,255
 2002b20:	1004c03a 	cmpne	r2,r2,zero
 2002b24:	1000031e 	bne	r2,zero,2002b34 <_Z8I2C_ReadmmahPh+0x118>
 2002b28:	00800044 	movi	r2,1
 2002b2c:	e0bfff45 	stb	r2,-3(fp)
 2002b30:	00000106 	br	2002b38 <_Z8I2C_ReadmmahPh+0x11c>
 2002b34:	e03fff45 	stb	zero,-3(fp)
 2002b38:	e0bfff43 	ldbu	r2,-3(fp)
 2002b3c:	10803fcc 	andi	r2,r2,255
 2002b40:	1005003a 	cmpeq	r2,r2,zero
 2002b44:	1000011e 	bne	r2,zero,2002b4c <_Z8I2C_ReadmmahPh+0x130>
        bSuccess = FALSE;
 2002b48:	e03ffb05 	stb	zero,-20(fp)
        I2C_DEBUG(("I2C HMB_E2 Fail: Address+1 NACK!\n"));
    }
    
    if (bSuccess){
 2002b4c:	e0bffb03 	ldbu	r2,-20(fp)
 2002b50:	1005003a 	cmpeq	r2,r2,zero
 2002b54:	1000051e 	bne	r2,zero,2002b6c <_Z8I2C_ReadmmahPh+0x150>
        i2c_read(clk_base, data_base, pControlData, FALSE);  // read
 2002b58:	e13ffc17 	ldw	r4,-16(fp)
 2002b5c:	e17ffd17 	ldw	r5,-12(fp)
 2002b60:	e1800217 	ldw	r6,8(fp)
 2002b64:	000f883a 	mov	r7,zero
 2002b68:	20024900 	call	2002490 <_Z8i2c_readmmPhb>
    }        
    i2c_stop(clk_base, data_base);
 2002b6c:	e13ffc17 	ldw	r4,-16(fp)
 2002b70:	e17ffd17 	ldw	r5,-12(fp)
 2002b74:	20023900 	call	2002390 <_Z8i2c_stopmm>
    
    return bSuccess;
 2002b78:	e0bffb03 	ldbu	r2,-20(fp)
}
 2002b7c:	e037883a 	mov	sp,fp
 2002b80:	dfc00117 	ldw	ra,4(sp)
 2002b84:	df000017 	ldw	fp,0(sp)
 2002b88:	dec00204 	addi	sp,sp,8
 2002b8c:	f800283a 	ret

02002b90 <_Z9I2C_Writemmahh>:
bool i2c_write(alt_u32 clk_base, alt_u32 data_base, alt_u8 Data);
void i2c_read(alt_u32 clk_base, alt_u32 data_base, alt_u8 *pData, bool bAck);



bool I2C_Write(alt_u32 clk_base, alt_u32 data_base, alt_8 DeviceAddr, alt_u8 ControlAddr, alt_u8 ControlData){
 2002b90:	defff804 	addi	sp,sp,-32
 2002b94:	dfc00715 	stw	ra,28(sp)
 2002b98:	df000615 	stw	fp,24(sp)
 2002b9c:	df000604 	addi	fp,sp,24
 2002ba0:	e13ffb15 	stw	r4,-20(fp)
 2002ba4:	e17ffc15 	stw	r5,-16(fp)
 2002ba8:	e0800217 	ldw	r2,8(fp)
 2002bac:	e1bffd05 	stb	r6,-12(fp)
 2002bb0:	e1fffe05 	stb	r7,-8(fp)
 2002bb4:	e0bfff05 	stb	r2,-4(fp)
    bool bSuccess = TRUE;
 2002bb8:	00800044 	movi	r2,1
 2002bbc:	e0bffa05 	stb	r2,-24(fp)
    //alt_u8 DeviceAddr;
    
    // device id
    //DeviceAddr = HMB_E2_I2C_ID;

    i2c_start(clk_base, data_base);
 2002bc0:	e13ffb17 	ldw	r4,-20(fp)
 2002bc4:	e17ffc17 	ldw	r5,-16(fp)
 2002bc8:	20024080 	call	2002408 <_Z9i2c_startmm>
    if (!i2c_write(clk_base, data_base, DeviceAddr)){  // send ID
 2002bcc:	e0bffd03 	ldbu	r2,-12(fp)
 2002bd0:	11803fcc 	andi	r6,r2,255
 2002bd4:	e13ffb17 	ldw	r4,-20(fp)
 2002bd8:	e17ffc17 	ldw	r5,-16(fp)
 2002bdc:	20025e40 	call	20025e4 <_Z9i2c_writemmh>
 2002be0:	1080005c 	xori	r2,r2,1
 2002be4:	10803fcc 	andi	r2,r2,255
 2002be8:	1005003a 	cmpeq	r2,r2,zero
 2002bec:	1000011e 	bne	r2,zero,2002bf4 <_Z9I2C_Writemmahh+0x64>
        bSuccess = FALSE;
 2002bf0:	e03ffa05 	stb	zero,-24(fp)
        I2C_DEBUG(("I2C HMB_E2 Fail: Address NACK!\n"));
    }
    if (bSuccess && !i2c_write(clk_base, data_base, ControlAddr)){ // send sub-address
 2002bf4:	e0bffa03 	ldbu	r2,-24(fp)
 2002bf8:	1080005c 	xori	r2,r2,1
 2002bfc:	10803fcc 	andi	r2,r2,255
 2002c00:	1004c03a 	cmpne	r2,r2,zero
 2002c04:	10000c1e 	bne	r2,zero,2002c38 <_Z9I2C_Writemmahh+0xa8>
 2002c08:	e1bffe03 	ldbu	r6,-8(fp)
 2002c0c:	e13ffb17 	ldw	r4,-20(fp)
 2002c10:	e17ffc17 	ldw	r5,-16(fp)
 2002c14:	20025e40 	call	20025e4 <_Z9i2c_writemmh>
 2002c18:	1080005c 	xori	r2,r2,1
 2002c1c:	1080005c 	xori	r2,r2,1
 2002c20:	10803fcc 	andi	r2,r2,255
 2002c24:	1004c03a 	cmpne	r2,r2,zero
 2002c28:	1000031e 	bne	r2,zero,2002c38 <_Z9I2C_Writemmahh+0xa8>
 2002c2c:	00800044 	movi	r2,1
 2002c30:	e0bfff85 	stb	r2,-2(fp)
 2002c34:	00000106 	br	2002c3c <_Z9I2C_Writemmahh+0xac>
 2002c38:	e03fff85 	stb	zero,-2(fp)
 2002c3c:	e0bfff83 	ldbu	r2,-2(fp)
 2002c40:	10803fcc 	andi	r2,r2,255
 2002c44:	1005003a 	cmpeq	r2,r2,zero
 2002c48:	1000011e 	bne	r2,zero,2002c50 <_Z9I2C_Writemmahh+0xc0>
        bSuccess = FALSE;
 2002c4c:	e03ffa05 	stb	zero,-24(fp)
        I2C_DEBUG(("I2C HMB_E2 Fail: SubAddress NACK!\n"));
    }            
    if (bSuccess && !i2c_write(clk_base, data_base, ControlData)){  
 2002c50:	e0bffa03 	ldbu	r2,-24(fp)
 2002c54:	1080005c 	xori	r2,r2,1
 2002c58:	10803fcc 	andi	r2,r2,255
 2002c5c:	1004c03a 	cmpne	r2,r2,zero
 2002c60:	10000c1e 	bne	r2,zero,2002c94 <_Z9I2C_Writemmahh+0x104>
 2002c64:	e1bfff03 	ldbu	r6,-4(fp)
 2002c68:	e13ffb17 	ldw	r4,-20(fp)
 2002c6c:	e17ffc17 	ldw	r5,-16(fp)
 2002c70:	20025e40 	call	20025e4 <_Z9i2c_writemmh>
 2002c74:	1080005c 	xori	r2,r2,1
 2002c78:	1080005c 	xori	r2,r2,1
 2002c7c:	10803fcc 	andi	r2,r2,255
 2002c80:	1004c03a 	cmpne	r2,r2,zero
 2002c84:	1000031e 	bne	r2,zero,2002c94 <_Z9I2C_Writemmahh+0x104>
 2002c88:	00800044 	movi	r2,1
 2002c8c:	e0bfff45 	stb	r2,-3(fp)
 2002c90:	00000106 	br	2002c98 <_Z9I2C_Writemmahh+0x108>
 2002c94:	e03fff45 	stb	zero,-3(fp)
 2002c98:	e0bfff43 	ldbu	r2,-3(fp)
 2002c9c:	10803fcc 	andi	r2,r2,255
 2002ca0:	1005003a 	cmpeq	r2,r2,zero
 2002ca4:	1000011e 	bne	r2,zero,2002cac <_Z9I2C_Writemmahh+0x11c>
        bSuccess = FALSE;
 2002ca8:	e03ffa05 	stb	zero,-24(fp)
        I2C_DEBUG(("I2C HMB_E2 Fail: write NACK!\n"));
    }
    i2c_stop(clk_base, data_base);
 2002cac:	e13ffb17 	ldw	r4,-20(fp)
 2002cb0:	e17ffc17 	ldw	r5,-16(fp)
 2002cb4:	20023900 	call	2002390 <_Z8i2c_stopmm>
    
    usleep(7*1000); // delay to wait EE2 ready (at least 5 ms delay is required)
 2002cb8:	0106d604 	movi	r4,7000
 2002cbc:	20181680 	call	2018168 <usleep>
    
    return bSuccess;
 2002cc0:	e0bffa03 	ldbu	r2,-24(fp)

    
}
 2002cc4:	e037883a 	mov	sp,fp
 2002cc8:	dfc00117 	ldw	ra,4(sp)
 2002ccc:	df000017 	ldw	fp,0(sp)
 2002cd0:	dec00204 	addi	sp,sp,8
 2002cd4:	f800283a 	ret

02002cd8 <_Z15i2c_data_verifymmh>:
}

//==========================================================
// function for verify

bool i2c_data_verify(alt_u32 scl_base, alt_u32 sda_base, alt_u8 ControlAddr){
 2002cd8:	defff804 	addi	sp,sp,-32
 2002cdc:	dfc00715 	stw	ra,28(sp)
 2002ce0:	df000615 	stw	fp,24(sp)
 2002ce4:	df000604 	addi	fp,sp,24
 2002ce8:	e13ffd15 	stw	r4,-12(fp)
 2002cec:	e17ffe15 	stw	r5,-8(fp)
 2002cf0:	e1bfff05 	stb	r6,-4(fp)
    bool bPass;
    const alt_8 DeviceAddr = 0xA0;
 2002cf4:	00bfe804 	movi	r2,-96
 2002cf8:	e0bffb45 	stb	r2,-19(fp)
 * alt_nticks() returns the elapsed number of system clock ticks since reset.
 */

static ALT_INLINE alt_u32 ALT_ALWAYS_INLINE alt_nticks (void)
{
  return _alt_nticks;
 2002cfc:	008080b4 	movhi	r2,514
 2002d00:	10be0504 	addi	r2,r2,-2028
 2002d04:	10800017 	ldw	r2,0(r2)
    alt_u8 OrgData, TestData, Data;
    
    TestData = alt_nticks();
 2002d08:	e0bffb05 	stb	r2,-20(fp)
    if (TestData == 0)
 2002d0c:	e0bffb03 	ldbu	r2,-20(fp)
 2002d10:	1004c03a 	cmpne	r2,r2,zero
 2002d14:	1000021e 	bne	r2,zero,2002d20 <_Z15i2c_data_verifymmh+0x48>
        TestData = 0x12;
 2002d18:	00800484 	movi	r2,18
 2002d1c:	e0bffb05 	stb	r2,-20(fp)
    
    bPass = I2C_Read(scl_base, sda_base, DeviceAddr, ControlAddr, &OrgData);
 2002d20:	e1ffff03 	ldbu	r7,-4(fp)
 2002d24:	e0bffbc4 	addi	r2,fp,-17
 2002d28:	d8800015 	stw	r2,0(sp)
 2002d2c:	e13ffd17 	ldw	r4,-12(fp)
 2002d30:	e17ffe17 	ldw	r5,-8(fp)
 2002d34:	01bfe804 	movi	r6,-96
 2002d38:	2002a1c0 	call	2002a1c <_Z8I2C_ReadmmahPh>
 2002d3c:	e0bffb85 	stb	r2,-18(fp)
    if (bPass) // write
 2002d40:	e0bffb83 	ldbu	r2,-18(fp)
 2002d44:	1005003a 	cmpeq	r2,r2,zero
 2002d48:	1000081e 	bne	r2,zero,2002d6c <_Z15i2c_data_verifymmh+0x94>
        bPass = I2C_Write(scl_base, sda_base, DeviceAddr, ControlAddr, TestData);
 2002d4c:	e1ffff03 	ldbu	r7,-4(fp)
 2002d50:	e0bffb03 	ldbu	r2,-20(fp)
 2002d54:	d8800015 	stw	r2,0(sp)
 2002d58:	e13ffd17 	ldw	r4,-12(fp)
 2002d5c:	e17ffe17 	ldw	r5,-8(fp)
 2002d60:	01bfe804 	movi	r6,-96
 2002d64:	2002b900 	call	2002b90 <_Z9I2C_Writemmahh>
 2002d68:	e0bffb85 	stb	r2,-18(fp)
    if (bPass) // read        
 2002d6c:	e0bffb83 	ldbu	r2,-18(fp)
 2002d70:	1005003a 	cmpeq	r2,r2,zero
 2002d74:	1000081e 	bne	r2,zero,2002d98 <_Z15i2c_data_verifymmh+0xc0>
        bPass = I2C_Read(scl_base, sda_base, DeviceAddr, ControlAddr, &Data);
 2002d78:	e1ffff03 	ldbu	r7,-4(fp)
 2002d7c:	e0bffc04 	addi	r2,fp,-16
 2002d80:	d8800015 	stw	r2,0(sp)
 2002d84:	e13ffd17 	ldw	r4,-12(fp)
 2002d88:	e17ffe17 	ldw	r5,-8(fp)
 2002d8c:	01bfe804 	movi	r6,-96
 2002d90:	2002a1c0 	call	2002a1c <_Z8I2C_ReadmmahPh>
 2002d94:	e0bffb85 	stb	r2,-18(fp)
    if (bPass && (Data != TestData)) // verify
 2002d98:	e0bffb83 	ldbu	r2,-18(fp)
 2002d9c:	1005003a 	cmpeq	r2,r2,zero
 2002da0:	1000051e 	bne	r2,zero,2002db8 <_Z15i2c_data_verifymmh+0xe0>
 2002da4:	e0bffc03 	ldbu	r2,-16(fp)
 2002da8:	10c03fcc 	andi	r3,r2,255
 2002dac:	e0bffb03 	ldbu	r2,-20(fp)
 2002db0:	18800126 	beq	r3,r2,2002db8 <_Z15i2c_data_verifymmh+0xe0>
        bPass = FALSE;        
 2002db4:	e03ffb85 	stb	zero,-18(fp)
    // restore        
    if (bPass) // write back
 2002db8:	e0bffb83 	ldbu	r2,-18(fp)
 2002dbc:	1005003a 	cmpeq	r2,r2,zero
 2002dc0:	1000091e 	bne	r2,zero,2002de8 <_Z15i2c_data_verifymmh+0x110>
        bPass = I2C_Write(scl_base, sda_base, DeviceAddr, ControlAddr, OrgData);
 2002dc4:	e1ffff03 	ldbu	r7,-4(fp)
 2002dc8:	e0bffbc3 	ldbu	r2,-17(fp)
 2002dcc:	10803fcc 	andi	r2,r2,255
 2002dd0:	d8800015 	stw	r2,0(sp)
 2002dd4:	e13ffd17 	ldw	r4,-12(fp)
 2002dd8:	e17ffe17 	ldw	r5,-8(fp)
 2002ddc:	01bfe804 	movi	r6,-96
 2002de0:	2002b900 	call	2002b90 <_Z9I2C_Writemmahh>
 2002de4:	e0bffb85 	stb	r2,-18(fp)
    if (bPass) // read        
 2002de8:	e0bffb83 	ldbu	r2,-18(fp)
 2002dec:	1005003a 	cmpeq	r2,r2,zero
 2002df0:	1000081e 	bne	r2,zero,2002e14 <_Z15i2c_data_verifymmh+0x13c>
        bPass = I2C_Read(scl_base, sda_base, DeviceAddr, ControlAddr, &Data);
 2002df4:	e1ffff03 	ldbu	r7,-4(fp)
 2002df8:	e0bffc04 	addi	r2,fp,-16
 2002dfc:	d8800015 	stw	r2,0(sp)
 2002e00:	e13ffd17 	ldw	r4,-12(fp)
 2002e04:	e17ffe17 	ldw	r5,-8(fp)
 2002e08:	01bfe804 	movi	r6,-96
 2002e0c:	2002a1c0 	call	2002a1c <_Z8I2C_ReadmmahPh>
 2002e10:	e0bffb85 	stb	r2,-18(fp)
    if (bPass && (Data != OrgData)) // verify
 2002e14:	e0bffb83 	ldbu	r2,-18(fp)
 2002e18:	1005003a 	cmpeq	r2,r2,zero
 2002e1c:	1000061e 	bne	r2,zero,2002e38 <_Z15i2c_data_verifymmh+0x160>
 2002e20:	e0bffc03 	ldbu	r2,-16(fp)
 2002e24:	e0fffbc3 	ldbu	r3,-17(fp)
 2002e28:	11003fcc 	andi	r4,r2,255
 2002e2c:	18803fcc 	andi	r2,r3,255
 2002e30:	20800126 	beq	r4,r2,2002e38 <_Z15i2c_data_verifymmh+0x160>
        bPass = FALSE; 
 2002e34:	e03ffb85 	stb	zero,-18(fp)
        
    return bPass;
 2002e38:	e0bffb83 	ldbu	r2,-18(fp)
}
 2002e3c:	e037883a 	mov	sp,fp
 2002e40:	dfc00117 	ldw	ra,4(sp)
 2002e44:	df000017 	ldw	fp,0(sp)
 2002e48:	dec00204 	addi	sp,sp,8
 2002e4c:	f800283a 	ret

02002e50 <_Z10I2C_Verifymmm>:




bool I2C_Verify(alt_u32 scl_base, alt_u32 sda_base, alt_u32 size){
 2002e50:	defffa04 	addi	sp,sp,-24
 2002e54:	dfc00515 	stw	ra,20(sp)
 2002e58:	df000415 	stw	fp,16(sp)
 2002e5c:	df000404 	addi	fp,sp,16
 2002e60:	e13ffd15 	stw	r4,-12(fp)
 2002e64:	e17ffe15 	stw	r5,-8(fp)
 2002e68:	e1bfff15 	stw	r6,-4(fp)
    bool bPass;
    if (size <= 256){
 2002e6c:	e0bfff17 	ldw	r2,-4(fp)
 2002e70:	10804068 	cmpgeui	r2,r2,257
 2002e74:	1000101e 	bne	r2,zero,2002eb8 <_Z10I2C_Verifymmm+0x68>
        // less or equal to 256 Bytes
        bPass = i2c_data_verify(scl_base, sda_base, 0);
 2002e78:	e13ffd17 	ldw	r4,-12(fp)
 2002e7c:	e17ffe17 	ldw	r5,-8(fp)
 2002e80:	000d883a 	mov	r6,zero
 2002e84:	2002cd80 	call	2002cd8 <_Z15i2c_data_verifymmh>
 2002e88:	e0bffc05 	stb	r2,-16(fp)
        if (bPass)
 2002e8c:	e0bffc03 	ldbu	r2,-16(fp)
 2002e90:	1005003a 	cmpeq	r2,r2,zero
 2002e94:	1000091e 	bne	r2,zero,2002ebc <_Z10I2C_Verifymmm+0x6c>
            bPass = i2c_data_verify(scl_base, sda_base, size-1);
 2002e98:	e0bfff17 	ldw	r2,-4(fp)
 2002e9c:	10bfffc4 	addi	r2,r2,-1
 2002ea0:	11803fcc 	andi	r6,r2,255
 2002ea4:	e13ffd17 	ldw	r4,-12(fp)
 2002ea8:	e17ffe17 	ldw	r5,-8(fp)
 2002eac:	2002cd80 	call	2002cd8 <_Z15i2c_data_verifymmh>
 2002eb0:	e0bffc05 	stb	r2,-16(fp)
 2002eb4:	00000106 	br	2002ebc <_Z10I2C_Verifymmm+0x6c>
    }else{
        bPass = FALSE;
 2002eb8:	e03ffc05 	stb	zero,-16(fp)
        bPass = i2cl_data_verify(scl_base, sda_base, 0);
        if (bPass)
            bPass = i2cl_data_verify(scl_base, sda_base, size-1);
            */
    }
    return bPass;
 2002ebc:	e0bffc03 	ldbu	r2,-16(fp)
}
 2002ec0:	e037883a 	mov	sp,fp
 2002ec4:	dfc00117 	ldw	ra,4(sp)
 2002ec8:	df000017 	ldw	fp,0(sp)
 2002ecc:	dec00204 	addi	sp,sp,8
 2002ed0:	f800283a 	ret

02002ed4 <_Z18ADXL345_SPI_IdReadmPh>:
    }        
    
    return bPass;
}

bool ADXL345_SPI_IdRead(alt_u32 device_base, alt_u8 *pId){
 2002ed4:	defffb04 	addi	sp,sp,-20
 2002ed8:	dfc00415 	stw	ra,16(sp)
 2002edc:	df000315 	stw	fp,12(sp)
 2002ee0:	df000304 	addi	fp,sp,12
 2002ee4:	e13ffe15 	stw	r4,-8(fp)
 2002ee8:	e17fff15 	stw	r5,-4(fp)
    bool bPass;
    bPass = SPI_Read(device_base, ADXL345_REG_DEVID, pId);
 2002eec:	e13ffe17 	ldw	r4,-8(fp)
 2002ef0:	000b883a 	mov	r5,zero
 2002ef4:	e1bfff17 	ldw	r6,-4(fp)
 2002ef8:	20034e00 	call	20034e0 <_Z8SPI_ReadmhPh>
 2002efc:	e0bffd05 	stb	r2,-12(fp)
    
    return bPass;
 2002f00:	e0bffd03 	ldbu	r2,-12(fp)
}
 2002f04:	e037883a 	mov	sp,fp
 2002f08:	dfc00117 	ldw	ra,4(sp)
 2002f0c:	df000017 	ldw	fp,0(sp)
 2002f10:	dec00204 	addi	sp,sp,8
 2002f14:	f800283a 	ret

02002f18 <_Z23ADXL345_SPI_IsDataReadym>:
    
    return bDataReady;
        
}    

bool ADXL345_SPI_IsDataReady(alt_u32 device_base){
 2002f18:	defffc04 	addi	sp,sp,-16
 2002f1c:	dfc00315 	stw	ra,12(sp)
 2002f20:	df000215 	stw	fp,8(sp)
 2002f24:	df000204 	addi	fp,sp,8
 2002f28:	e13fff15 	stw	r4,-4(fp)
    bool bReady = FALSE;
 2002f2c:	e03ffe05 	stb	zero,-8(fp)
    alt_u8 data8;
    
    if (SPI_Read(device_base, ADXL345_REG_INT_SOURCE,&data8)){
 2002f30:	e1bffe44 	addi	r6,fp,-7
 2002f34:	e13fff17 	ldw	r4,-4(fp)
 2002f38:	01400c04 	movi	r5,48
 2002f3c:	20034e00 	call	20034e0 <_Z8SPI_ReadmhPh>
 2002f40:	10803fcc 	andi	r2,r2,255
 2002f44:	1005003a 	cmpeq	r2,r2,zero
 2002f48:	1000081e 	bne	r2,zero,2002f6c <_Z23ADXL345_SPI_IsDataReadym+0x54>
        if (data8 & XL345_DATAREADY)
 2002f4c:	e0bffe43 	ldbu	r2,-7(fp)
 2002f50:	10803fcc 	andi	r2,r2,255
 2002f54:	1080201c 	xori	r2,r2,128
 2002f58:	10bfe004 	addi	r2,r2,-128
 2002f5c:	1004403a 	cmpge	r2,r2,zero
 2002f60:	1000021e 	bne	r2,zero,2002f6c <_Z23ADXL345_SPI_IsDataReadym+0x54>
            bReady = TRUE;
 2002f64:	00800044 	movi	r2,1
 2002f68:	e0bffe05 	stb	r2,-8(fp)
    }            
    
    return bReady;
 2002f6c:	e0bffe03 	ldbu	r2,-8(fp)
}
 2002f70:	e037883a 	mov	sp,fp
 2002f74:	dfc00117 	ldw	ra,4(sp)
 2002f78:	df000017 	ldw	fp,0(sp)
 2002f7c:	dec00204 	addi	sp,sp,8
 2002f80:	f800283a 	ret

02002f84 <_Z20ADXL345_SPI_XYZ_ReadmPt>:



bool ADXL345_SPI_XYZ_Read(alt_u32 device_base, alt_u16 szData16[3]){
 2002f84:	defffa04 	addi	sp,sp,-24
 2002f88:	dfc00515 	stw	ra,20(sp)
 2002f8c:	df000415 	stw	fp,16(sp)
 2002f90:	df000404 	addi	fp,sp,16
 2002f94:	e13ffe15 	stw	r4,-8(fp)
 2002f98:	e17fff15 	stw	r5,-4(fp)
    bool bPass;
    alt_u8 szData8[6];
    bPass = SPI_MultipleRead(device_base, 0x32, (alt_u8 *)&szData8, sizeof(szData8));
 2002f9c:	e1bffc44 	addi	r6,fp,-15
 2002fa0:	e13ffe17 	ldw	r4,-8(fp)
 2002fa4:	01400c84 	movi	r5,50
 2002fa8:	01c00184 	movi	r7,6
 2002fac:	200335c0 	call	200335c <_Z16SPI_MultipleReadmhPhh>
 2002fb0:	e0bffc05 	stb	r2,-16(fp)
    if (bPass){
 2002fb4:	e0bffc03 	ldbu	r2,-16(fp)
 2002fb8:	1005003a 	cmpeq	r2,r2,zero
 2002fbc:	10001e1e 	bne	r2,zero,2003038 <_Z20ADXL345_SPI_XYZ_ReadmPt+0xb4>
        szData16[0] = (szData8[1] << 8) | szData8[0]; 
 2002fc0:	e0bffc83 	ldbu	r2,-14(fp)
 2002fc4:	10803fcc 	andi	r2,r2,255
 2002fc8:	1004923a 	slli	r2,r2,8
 2002fcc:	1007883a 	mov	r3,r2
 2002fd0:	e0bffc43 	ldbu	r2,-15(fp)
 2002fd4:	10803fcc 	andi	r2,r2,255
 2002fd8:	1884b03a 	or	r2,r3,r2
 2002fdc:	1007883a 	mov	r3,r2
 2002fe0:	e0bfff17 	ldw	r2,-4(fp)
 2002fe4:	10c0000d 	sth	r3,0(r2)
        szData16[1] = (szData8[3] << 8) | szData8[2];
 2002fe8:	e0bfff17 	ldw	r2,-4(fp)
 2002fec:	11000084 	addi	r4,r2,2
 2002ff0:	e0bffd03 	ldbu	r2,-12(fp)
 2002ff4:	10803fcc 	andi	r2,r2,255
 2002ff8:	1004923a 	slli	r2,r2,8
 2002ffc:	1007883a 	mov	r3,r2
 2003000:	e0bffcc3 	ldbu	r2,-13(fp)
 2003004:	10803fcc 	andi	r2,r2,255
 2003008:	1884b03a 	or	r2,r3,r2
 200300c:	2080000d 	sth	r2,0(r4)
        szData16[2] = (szData8[5] << 8) | szData8[4];
 2003010:	e0bfff17 	ldw	r2,-4(fp)
 2003014:	11000104 	addi	r4,r2,4
 2003018:	e0bffd83 	ldbu	r2,-10(fp)
 200301c:	10803fcc 	andi	r2,r2,255
 2003020:	1004923a 	slli	r2,r2,8
 2003024:	1007883a 	mov	r3,r2
 2003028:	e0bffd43 	ldbu	r2,-11(fp)
 200302c:	10803fcc 	andi	r2,r2,255
 2003030:	1884b03a 	or	r2,r3,r2
 2003034:	2080000d 	sth	r2,0(r4)
    }        
    
    return bPass;
 2003038:	e0bffc03 	ldbu	r2,-16(fp)
}
 200303c:	e037883a 	mov	sp,fp
 2003040:	dfc00117 	ldw	ra,4(sp)
 2003044:	df000017 	ldw	fp,0(sp)
 2003048:	dec00204 	addi	sp,sp,8
 200304c:	f800283a 	ret

02003050 <_Z16ADXL345_SPI_Initm>:

#define DATA_READY_TIMEOUT  (alt_ticks_per_second()/3)



bool ADXL345_SPI_Init(alt_u32 device_base){
 2003050:	defffc04 	addi	sp,sp,-16
 2003054:	dfc00315 	stw	ra,12(sp)
 2003058:	df000215 	stw	fp,8(sp)
 200305c:	df000204 	addi	fp,sp,8
 2003060:	e13fff15 	stw	r4,-4(fp)
    bool bSuccess;
    
    // clear fifo
    SPI_Init(device_base);
 2003064:	e13fff17 	ldw	r4,-4(fp)
 2003068:	20033100 	call	2003310 <_Z8SPI_Initm>
   
    // 3-wire spi
    bSuccess = SPI_Write(device_base, ADXL345_REG_DATA_FORMAT, XL345_SPI3WIRE);
 200306c:	e13fff17 	ldw	r4,-4(fp)
 2003070:	01400c44 	movi	r5,49
 2003074:	01801004 	movi	r6,64
 2003078:	200368c0 	call	200368c <_Z9SPI_Writemhh>
 200307c:	e0bffe05 	stb	r2,-8(fp)
 
    // clear fifo   
    SPI_Init(device_base);
 2003080:	e13fff17 	ldw	r4,-4(fp)
 2003084:	20033100 	call	2003310 <_Z8SPI_Initm>
        
    //Output Data Rate: 40Hz
    if (bSuccess){
 2003088:	e0bffe03 	ldbu	r2,-8(fp)
 200308c:	1005003a 	cmpeq	r2,r2,zero
 2003090:	1000051e 	bne	r2,zero,20030a8 <_Z16ADXL345_SPI_Initm+0x58>
        bSuccess = SPI_Write(device_base, ADXL345_REG_BW_RATE, XL345_RATE_400); // 400 MHZ
 2003094:	e13fff17 	ldw	r4,-4(fp)
 2003098:	01400b04 	movi	r5,44
 200309c:	01800304 	movi	r6,12
 20030a0:	200368c0 	call	200368c <_Z9SPI_Writemhh>
 20030a4:	e0bffe05 	stb	r2,-8(fp)
    }
    
            
        
    //INT_Enable: Data Ready
    if (bSuccess){   
 20030a8:	e0bffe03 	ldbu	r2,-8(fp)
 20030ac:	1005003a 	cmpeq	r2,r2,zero
 20030b0:	1000051e 	bne	r2,zero,20030c8 <_Z16ADXL345_SPI_Initm+0x78>
        bSuccess = SPI_Write(device_base, ADXL345_REG_INT_ENALBE, XL345_DATAREADY);
 20030b4:	e13fff17 	ldw	r4,-4(fp)
 20030b8:	01400b84 	movi	r5,46
 20030bc:	01802004 	movi	r6,128
 20030c0:	200368c0 	call	200368c <_Z9SPI_Writemhh>
 20030c4:	e0bffe05 	stb	r2,-8(fp)
    }
    
    // stop measure
    if (bSuccess){
 20030c8:	e0bffe03 	ldbu	r2,-8(fp)
 20030cc:	1005003a 	cmpeq	r2,r2,zero
 20030d0:	1000051e 	bne	r2,zero,20030e8 <_Z16ADXL345_SPI_Initm+0x98>
        bSuccess = SPI_Write(device_base, ADXL345_REG_POWER_CTL, XL345_STANDBY);
 20030d4:	e13fff17 	ldw	r4,-4(fp)
 20030d8:	01400b44 	movi	r5,45
 20030dc:	000d883a 	mov	r6,zero
 20030e0:	200368c0 	call	200368c <_Z9SPI_Writemhh>
 20030e4:	e0bffe05 	stb	r2,-8(fp)
    }

    // start measure
    if (bSuccess){
 20030e8:	e0bffe03 	ldbu	r2,-8(fp)
 20030ec:	1005003a 	cmpeq	r2,r2,zero
 20030f0:	1000051e 	bne	r2,zero,2003108 <_Z16ADXL345_SPI_Initm+0xb8>
        bSuccess = SPI_Write(device_base, ADXL345_REG_POWER_CTL, XL345_MEASURE);
 20030f4:	e13fff17 	ldw	r4,-4(fp)
 20030f8:	01400b44 	movi	r5,45
 20030fc:	01800204 	movi	r6,8
 2003100:	200368c0 	call	200368c <_Z9SPI_Writemhh>
 2003104:	e0bffe05 	stb	r2,-8(fp)
        
    }
    
            
    return bSuccess;    
 2003108:	e0bffe03 	ldbu	r2,-8(fp)
        
}
 200310c:	e037883a 	mov	sp,fp
 2003110:	dfc00117 	ldw	ra,4(sp)
 2003114:	df000017 	ldw	fp,0(sp)
 2003118:	dec00204 	addi	sp,sp,8
 200311c:	f800283a 	ret

02003120 <_Z25ADXL345_SPI_WaitDataReadym>:


    
bool ADXL345_SPI_WaitDataReady(alt_u32 device_base){
 2003120:	defff904 	addi	sp,sp,-28
 2003124:	dfc00615 	stw	ra,24(sp)
 2003128:	df000515 	stw	fp,20(sp)
 200312c:	dc000415 	stw	r16,16(sp)
 2003130:	df000404 	addi	fp,sp,16
 2003134:	e13ffe15 	stw	r4,-8(fp)
 2003138:	008080b4 	movhi	r2,514
 200313c:	10be0504 	addi	r2,r2,-2028
 2003140:	10800017 	ldw	r2,0(r2)
    bool bDataReady;
    alt_u32 TimeStart;
    
    TimeStart = alt_nticks();
 2003144:	e0bffc15 	stw	r2,-16(fp)
    do{
        bDataReady = ADXL345_SPI_IsDataReady(device_base);
 2003148:	e13ffe17 	ldw	r4,-8(fp)
 200314c:	2002f180 	call	2002f18 <_Z23ADXL345_SPI_IsDataReadym>
 2003150:	e0bffd05 	stb	r2,-12(fp)
        if (!bDataReady)
 2003154:	e0bffd03 	ldbu	r2,-12(fp)
 2003158:	1080005c 	xori	r2,r2,1
 200315c:	10803fcc 	andi	r2,r2,255
 2003160:	1005003a 	cmpeq	r2,r2,zero
 2003164:	1000021e 	bne	r2,zero,2003170 <_Z25ADXL345_SPI_WaitDataReadym+0x50>
            usleep(500); 
 2003168:	01007d04 	movi	r4,500
 200316c:	20181680 	call	2018168 <usleep>
bool ADXL345_SPI_WaitDataReady(alt_u32 device_base){
    bool bDataReady;
    alt_u32 TimeStart;
    
    TimeStart = alt_nticks();
    do{
 2003170:	e0bffd03 	ldbu	r2,-12(fp)
 2003174:	1080005c 	xori	r2,r2,1
 2003178:	1080005c 	xori	r2,r2,1
 200317c:	10803fcc 	andi	r2,r2,255
 2003180:	1004c03a 	cmpne	r2,r2,zero
 2003184:	1000101e 	bne	r2,zero,20031c8 <_Z25ADXL345_SPI_WaitDataReadym+0xa8>
 2003188:	008080b4 	movhi	r2,514
 200318c:	10be0504 	addi	r2,r2,-2028
 2003190:	10800017 	ldw	r2,0(r2)
 2003194:	1007883a 	mov	r3,r2
 2003198:	e0bffc17 	ldw	r2,-16(fp)
 200319c:	18a1c83a 	sub	r16,r3,r2
 * Obtain the system clock rate in ticks/s. 
 */

static ALT_INLINE alt_u32 ALT_ALWAYS_INLINE alt_ticks_per_second (void)
{
  return _alt_tick_rate;
 20031a0:	008080b4 	movhi	r2,514
 20031a4:	10be0404 	addi	r2,r2,-2032
 20031a8:	10800017 	ldw	r2,0(r2)
 20031ac:	1009883a 	mov	r4,r2
 20031b0:	014000c4 	movi	r5,3
 20031b4:	200d0bc0 	call	200d0bc <__udivsi3>
 20031b8:	8080032e 	bgeu	r16,r2,20031c8 <_Z25ADXL345_SPI_WaitDataReadym+0xa8>
 20031bc:	00800044 	movi	r2,1
 20031c0:	e0bfff05 	stb	r2,-4(fp)
 20031c4:	00000106 	br	20031cc <_Z25ADXL345_SPI_WaitDataReadym+0xac>
 20031c8:	e03fff05 	stb	zero,-4(fp)
 20031cc:	e0bfff03 	ldbu	r2,-4(fp)
 20031d0:	10803fcc 	andi	r2,r2,255
 20031d4:	1004c03a 	cmpne	r2,r2,zero
 20031d8:	103fdb1e 	bne	r2,zero,2003148 <_Z25ADXL345_SPI_WaitDataReadym+0x28>
        bDataReady = ADXL345_SPI_IsDataReady(device_base);
        if (!bDataReady)
            usleep(500); 
    }while (!bDataReady && ( (alt_nticks() - TimeStart) < DATA_READY_TIMEOUT) );
    
    return bDataReady;
 20031dc:	e0bffd03 	ldbu	r2,-12(fp)
        
}    
 20031e0:	e037883a 	mov	sp,fp
 20031e4:	dfc00217 	ldw	ra,8(sp)
 20031e8:	df000117 	ldw	fp,4(sp)
 20031ec:	dc000017 	ldw	r16,0(sp)
 20031f0:	dec00304 	addi	sp,sp,12
 20031f4:	f800283a 	ret

020031f8 <_Z8ADC_Readh>:
#include "adc_spi_read.h"

#define START_FLAG  0x8000
#define DONE_FLAG   0x8000

alt_u16 ADC_Read(alt_u8 NextChannel){
 20031f8:	defffa04 	addi	sp,sp,-24
 20031fc:	df000515 	stw	fp,20(sp)
 2003200:	df000504 	addi	fp,sp,20
 2003204:	e13fff05 	stb	r4,-4(fp)
    alt_u16 Data16, DigitalValue = 0;
 2003208:	e03ffd8d 	sth	zero,-10(fp)
    bool bDone = FALSE;
 200320c:	e03ffd05 	stb	zero,-12(fp)
    const int nMaxWait = 1000;
 2003210:	0080fa04 	movi	r2,1000
 2003214:	e0bffc15 	stw	r2,-16(fp)
    int nWaitCnt = 0;
 2003218:	e03ffb15 	stw	zero,-20(fp)
    
    // start
    Data16 = NextChannel;
 200321c:	e0bfff03 	ldbu	r2,-4(fp)
 2003220:	e0bffe0d 	sth	r2,-8(fp)
    IOWR(ADC_SPI_READ_BASE, 0, Data16);
 2003224:	e0fffe0b 	ldhu	r3,-8(fp)
 2003228:	00818034 	movhi	r2,1536
 200322c:	10845e04 	addi	r2,r2,4472
 2003230:	10c00035 	stwio	r3,0(r2)
    Data16 |= START_FLAG;
 2003234:	e0fffe0b 	ldhu	r3,-8(fp)
 2003238:	00a00004 	movi	r2,-32768
 200323c:	1884b03a 	or	r2,r3,r2
 2003240:	e0bffe0d 	sth	r2,-8(fp)
    IOWR(ADC_SPI_READ_BASE, 0, Data16);
 2003244:	e0fffe0b 	ldhu	r3,-8(fp)
 2003248:	00818034 	movhi	r2,1536
 200324c:	10845e04 	addi	r2,r2,4472
 2003250:	10c00035 	stwio	r3,0(r2)
    //usleep(1000); // wait 10ms
    
    // wait done
    while(!bDone && nWaitCnt++ <= nMaxWait){
 2003254:	00000806 	br	2003278 <_Z8ADC_Readh+0x80>
        Data16 = IORD(ADC_SPI_READ_BASE,0);
 2003258:	00818034 	movhi	r2,1536
 200325c:	10845e04 	addi	r2,r2,4472
 2003260:	10800037 	ldwio	r2,0(r2)
 2003264:	e0bffe0d 	sth	r2,-8(fp)
        bDone = (Data16 & DONE_FLAG)?TRUE:FALSE;
 2003268:	e0bffe0b 	ldhu	r2,-8(fp)
 200326c:	10bfffcc 	andi	r2,r2,65535
 2003270:	1004d3fa 	srli	r2,r2,15
 2003274:	e0bffd05 	stb	r2,-12(fp)
    Data16 |= START_FLAG;
    IOWR(ADC_SPI_READ_BASE, 0, Data16);
    //usleep(1000); // wait 10ms
    
    // wait done
    while(!bDone && nWaitCnt++ <= nMaxWait){
 2003278:	e0bffd03 	ldbu	r2,-12(fp)
 200327c:	1080005c 	xori	r2,r2,1
 2003280:	1080005c 	xori	r2,r2,1
 2003284:	10803fcc 	andi	r2,r2,255
 2003288:	1004c03a 	cmpne	r2,r2,zero
 200328c:	10000d1e 	bne	r2,zero,20032c4 <_Z8ADC_Readh+0xcc>
 2003290:	e0bffb17 	ldw	r2,-20(fp)
 2003294:	1080fa50 	cmplti	r2,r2,1001
 2003298:	1007883a 	mov	r3,r2
 200329c:	e0bffb17 	ldw	r2,-20(fp)
 20032a0:	10800044 	addi	r2,r2,1
 20032a4:	e0bffb15 	stw	r2,-20(fp)
 20032a8:	1880005c 	xori	r2,r3,1
 20032ac:	10803fcc 	andi	r2,r2,255
 20032b0:	1004c03a 	cmpne	r2,r2,zero
 20032b4:	1000031e 	bne	r2,zero,20032c4 <_Z8ADC_Readh+0xcc>
 20032b8:	00800044 	movi	r2,1
 20032bc:	e0bfff45 	stb	r2,-3(fp)
 20032c0:	00000106 	br	20032c8 <_Z8ADC_Readh+0xd0>
 20032c4:	e03fff45 	stb	zero,-3(fp)
 20032c8:	e0bfff43 	ldbu	r2,-3(fp)
 20032cc:	10803fcc 	andi	r2,r2,255
 20032d0:	1004c03a 	cmpne	r2,r2,zero
 20032d4:	103fe01e 	bne	r2,zero,2003258 <_Z8ADC_Readh+0x60>
        Data16 = IORD(ADC_SPI_READ_BASE,0);
        bDone = (Data16 & DONE_FLAG)?TRUE:FALSE;
    }
    
    if (bDone)
 20032d8:	e0bffd03 	ldbu	r2,-12(fp)
 20032dc:	1005003a 	cmpeq	r2,r2,zero
 20032e0:	1000031e 	bne	r2,zero,20032f0 <_Z8ADC_Readh+0xf8>
        DigitalValue = Data16 & 0xFFF; // 12 bits
 20032e4:	e0bffe0b 	ldhu	r2,-8(fp)
 20032e8:	1083ffcc 	andi	r2,r2,4095
 20032ec:	e0bffd8d 	sth	r2,-10(fp)
    
    // stop
    IOWR(ADC_SPI_READ_BASE, 0, 0);
 20032f0:	00818034 	movhi	r2,1536
 20032f4:	10845e04 	addi	r2,r2,4472
 20032f8:	10000035 	stwio	zero,0(r2)
    
    return DigitalValue;
 20032fc:	e0bffd8b 	ldhu	r2,-10(fp)
}
 2003300:	e037883a 	mov	sp,fp
 2003304:	df000017 	ldw	fp,0(sp)
 2003308:	dec00104 	addi	sp,sp,4
 200330c:	f800283a 	ret

02003310 <_Z8SPI_Initm>:

typedef enum{
        SPI_STATUS_FLAG_DONE = 0x01
}SPI_STATUS_FLAG;

void SPI_Init(alt_u32 spi_base){
 2003310:	defffe04 	addi	sp,sp,-8
 2003314:	df000115 	stw	fp,4(sp)
 2003318:	df000104 	addi	fp,sp,4
 200331c:	e13fff15 	stw	r4,-4(fp)
    // clear fifo
    IOWR(spi_base, SPI_REG_CTRL_STATUS, 0);
 2003320:	e0bfff17 	ldw	r2,-4(fp)
 2003324:	10800104 	addi	r2,r2,4
 2003328:	10000035 	stwio	zero,0(r2)
    IOWR(spi_base, SPI_REG_CTRL_STATUS, SPI_FLAG_CLEAR_FIFO);
 200332c:	e0bfff17 	ldw	r2,-4(fp)
 2003330:	10800104 	addi	r2,r2,4
 2003334:	1007883a 	mov	r3,r2
 2003338:	00800104 	movi	r2,4
 200333c:	18800035 	stwio	r2,0(r3)
    IOWR(spi_base, SPI_REG_CTRL_STATUS, 0);
 2003340:	e0bfff17 	ldw	r2,-4(fp)
 2003344:	10800104 	addi	r2,r2,4
 2003348:	10000035 	stwio	zero,0(r2)
   
}
 200334c:	e037883a 	mov	sp,fp
 2003350:	df000017 	ldw	fp,0(sp)
 2003354:	dec00104 	addi	sp,sp,4
 2003358:	f800283a 	ret

0200335c <_Z16SPI_MultipleReadmhPhh>:

bool SPI_Write(alt_u32 spi_base, alt_u8 RegIndex, alt_u8 Value){
    return SPI_MultipleWrite(spi_base, RegIndex, &Value, 1);
}    

bool SPI_MultipleRead(alt_u32 spi_base, alt_u8 RegIndex, alt_u8 szBuf[], alt_u8 nByteNum){
 200335c:	defff404 	addi	sp,sp,-48
 2003360:	dfc00b15 	stw	ra,44(sp)
 2003364:	df000a15 	stw	fp,40(sp)
 2003368:	df000a04 	addi	fp,sp,40
 200336c:	e13ffa15 	stw	r4,-24(fp)
 2003370:	e1bffc15 	stw	r6,-16(fp)
 2003374:	e17ffb05 	stb	r5,-20(fp)
 2003378:	e1fffd05 	stb	r7,-12(fp)
    alt_u8 Status, Value8;
    const int nMaxTry = 100;
 200337c:	00801904 	movi	r2,100
 2003380:	e0bff815 	stw	r2,-32(fp)
    int nTryCnt = 0;
 2003384:	e03ff715 	stw	zero,-36(fp)
    int i;
    
    // make sure processs is stoped, and set read flag
    IOWR(spi_base, SPI_REG_CTRL_STATUS, SPI_FLGA_REG_READ);
 2003388:	e0bffa17 	ldw	r2,-24(fp)
 200338c:	10800104 	addi	r2,r2,4
 2003390:	1007883a 	mov	r3,r2
 2003394:	00800084 	movi	r2,2
 2003398:	18800035 	stwio	r2,0(r3)
    

    // set register index
    IOWR(spi_base, SPI_REG_INDEX, RegIndex);
 200339c:	e0bffa17 	ldw	r2,-24(fp)
 20033a0:	10800204 	addi	r2,r2,8
 20033a4:	e0fffb03 	ldbu	r3,-20(fp)
 20033a8:	10c00035 	stwio	r3,0(r2)

    // set read byte count
    IOWR(spi_base, SPI_REG_READ_NUM, nByteNum-1);
 20033ac:	e0bffa17 	ldw	r2,-24(fp)
 20033b0:	11000304 	addi	r4,r2,12
 20033b4:	e0bffd03 	ldbu	r2,-12(fp)
 20033b8:	10ffffc4 	addi	r3,r2,-1
 20033bc:	2005883a 	mov	r2,r4
 20033c0:	10c00035 	stwio	r3,0(r2)
    
    // start
    IOWR(spi_base, SPI_REG_CTRL_STATUS, SPI_FLAG_STATR | SPI_FLGA_REG_READ);
 20033c4:	e0bffa17 	ldw	r2,-24(fp)
 20033c8:	10800104 	addi	r2,r2,4
 20033cc:	1007883a 	mov	r3,r2
 20033d0:	008000c4 	movi	r2,3
 20033d4:	18800035 	stwio	r2,0(r3)
    
    // check status
    usleep(10);
 20033d8:	01000284 	movi	r4,10
 20033dc:	20181680 	call	2018168 <usleep>
    do{    
        Status = IORD(spi_base, SPI_REG_CTRL_STATUS);
 20033e0:	e0bffa17 	ldw	r2,-24(fp)
 20033e4:	10800104 	addi	r2,r2,4
 20033e8:	10800037 	ldwio	r2,0(r2)
 20033ec:	e0bff945 	stb	r2,-27(fp)
    // start
    IOWR(spi_base, SPI_REG_CTRL_STATUS, SPI_FLAG_STATR | SPI_FLGA_REG_READ);
    
    // check status
    usleep(10);
    do{    
 20033f0:	e0bff943 	ldbu	r2,-27(fp)
 20033f4:	1080004c 	andi	r2,r2,1
 20033f8:	1080005c 	xori	r2,r2,1
 20033fc:	1080005c 	xori	r2,r2,1
 2003400:	10803fcc 	andi	r2,r2,255
 2003404:	1004c03a 	cmpne	r2,r2,zero
 2003408:	10000d1e 	bne	r2,zero,2003440 <_Z16SPI_MultipleReadmhPhh+0xe4>
 200340c:	e0bff717 	ldw	r2,-36(fp)
 2003410:	10801910 	cmplti	r2,r2,100
 2003414:	1007883a 	mov	r3,r2
 2003418:	e0bff717 	ldw	r2,-36(fp)
 200341c:	10800044 	addi	r2,r2,1
 2003420:	e0bff715 	stw	r2,-36(fp)
 2003424:	1880005c 	xori	r2,r3,1
 2003428:	10803fcc 	andi	r2,r2,255
 200342c:	1004c03a 	cmpne	r2,r2,zero
 2003430:	1000031e 	bne	r2,zero,2003440 <_Z16SPI_MultipleReadmhPhh+0xe4>
 2003434:	00800044 	movi	r2,1
 2003438:	e0bfff05 	stb	r2,-4(fp)
 200343c:	00000106 	br	2003444 <_Z16SPI_MultipleReadmhPhh+0xe8>
 2003440:	e03fff05 	stb	zero,-4(fp)
 2003444:	e0bfff03 	ldbu	r2,-4(fp)
 2003448:	10803fcc 	andi	r2,r2,255
 200344c:	1004c03a 	cmpne	r2,r2,zero
 2003450:	103fe31e 	bne	r2,zero,20033e0 <_Z16SPI_MultipleReadmhPhh+0x84>
        Status = IORD(spi_base, SPI_REG_CTRL_STATUS);
    }while (!(Status & SPI_STATUS_FLAG_DONE) && (nTryCnt++ < nMaxTry));
    
    IOWR(spi_base, SPI_REG_CTRL_STATUS, 0);  //stop
 2003454:	e0bffa17 	ldw	r2,-24(fp)
 2003458:	10800104 	addi	r2,r2,4
 200345c:	10000035 	stwio	zero,0(r2)
    
    if (Status & SPI_STATUS_FLAG_DONE){
 2003460:	e0bff943 	ldbu	r2,-27(fp)
 2003464:	1080004c 	andi	r2,r2,1
 2003468:	10803fcc 	andi	r2,r2,255
 200346c:	1005003a 	cmpeq	r2,r2,zero
 2003470:	1000141e 	bne	r2,zero,20034c4 <_Z16SPI_MultipleReadmhPhh+0x168>
        for(i=0;i<nByteNum;i++){
 2003474:	e03ff615 	stw	zero,-40(fp)
 2003478:	00000c06 	br	20034ac <_Z16SPI_MultipleReadmhPhh+0x150>
            Value8 = IORD(spi_base, SPI_REG_DATA);
 200347c:	e0bffa17 	ldw	r2,-24(fp)
 2003480:	10800037 	ldwio	r2,0(r2)
 2003484:	e0bff905 	stb	r2,-28(fp)
            szBuf[i] = Value8;
 2003488:	e0bff617 	ldw	r2,-40(fp)
 200348c:	1007883a 	mov	r3,r2
 2003490:	e0bffc17 	ldw	r2,-16(fp)
 2003494:	1887883a 	add	r3,r3,r2
 2003498:	e0bff903 	ldbu	r2,-28(fp)
 200349c:	18800005 	stb	r2,0(r3)
    }while (!(Status & SPI_STATUS_FLAG_DONE) && (nTryCnt++ < nMaxTry));
    
    IOWR(spi_base, SPI_REG_CTRL_STATUS, 0);  //stop
    
    if (Status & SPI_STATUS_FLAG_DONE){
        for(i=0;i<nByteNum;i++){
 20034a0:	e0bff617 	ldw	r2,-40(fp)
 20034a4:	10800044 	addi	r2,r2,1
 20034a8:	e0bff615 	stw	r2,-40(fp)
 20034ac:	e0fffd03 	ldbu	r3,-12(fp)
 20034b0:	e0bff617 	ldw	r2,-40(fp)
 20034b4:	10fff116 	blt	r2,r3,200347c <_Z16SPI_MultipleReadmhPhh+0x120>
            Value8 = IORD(spi_base, SPI_REG_DATA);
            szBuf[i] = Value8;
        }
        return TRUE;
 20034b8:	00800044 	movi	r2,1
 20034bc:	e0bffe15 	stw	r2,-8(fp)
 20034c0:	00000106 	br	20034c8 <_Z16SPI_MultipleReadmhPhh+0x16c>
    }        
    return FALSE;
 20034c4:	e03ffe15 	stw	zero,-8(fp)
 20034c8:	e0bffe17 	ldw	r2,-8(fp)
}
 20034cc:	e037883a 	mov	sp,fp
 20034d0:	dfc00117 	ldw	ra,4(sp)
 20034d4:	df000017 	ldw	fp,0(sp)
 20034d8:	dec00204 	addi	sp,sp,8
 20034dc:	f800283a 	ret

020034e0 <_Z8SPI_ReadmhPh>:

bool SPI_Read(alt_u32 spi_base, alt_u8 RegIndex, alt_u8 *pBuf){
 20034e0:	defffb04 	addi	sp,sp,-20
 20034e4:	dfc00415 	stw	ra,16(sp)
 20034e8:	df000315 	stw	fp,12(sp)
 20034ec:	df000304 	addi	fp,sp,12
 20034f0:	e13ffd15 	stw	r4,-12(fp)
 20034f4:	e1bfff15 	stw	r6,-4(fp)
 20034f8:	e17ffe05 	stb	r5,-8(fp)
    return SPI_MultipleRead(spi_base, RegIndex, pBuf, 1);
 20034fc:	e17ffe03 	ldbu	r5,-8(fp)
 2003500:	e13ffd17 	ldw	r4,-12(fp)
 2003504:	e1bfff17 	ldw	r6,-4(fp)
 2003508:	01c00044 	movi	r7,1
 200350c:	200335c0 	call	200335c <_Z16SPI_MultipleReadmhPhh>
 2003510:	10803fcc 	andi	r2,r2,255
}
 2003514:	e037883a 	mov	sp,fp
 2003518:	dfc00117 	ldw	ra,4(sp)
 200351c:	df000017 	ldw	fp,0(sp)
 2003520:	dec00204 	addi	sp,sp,8
 2003524:	f800283a 	ret

02003528 <_Z17SPI_MultipleWritemhPhh>:
    IOWR(spi_base, SPI_REG_CTRL_STATUS, 0);
   
}


bool SPI_MultipleWrite(alt_u32 spi_base, alt_u8 RegIndex, alt_u8 szData[], alt_u8 nByteNum){
 2003528:	defff404 	addi	sp,sp,-48
 200352c:	dfc00b15 	stw	ra,44(sp)
 2003530:	df000a15 	stw	fp,40(sp)
 2003534:	df000a04 	addi	fp,sp,40
 2003538:	e13ffa15 	stw	r4,-24(fp)
 200353c:	e1bffc15 	stw	r6,-16(fp)
 2003540:	e17ffb05 	stb	r5,-20(fp)
 2003544:	e1fffd05 	stb	r7,-12(fp)
    alt_u8 Status;
    const int nMaxTry = 100;
 2003548:	00801904 	movi	r2,100
 200354c:	e0bff815 	stw	r2,-32(fp)
    int nTryCnt = 0;
 2003550:	e03ff715 	stw	zero,-36(fp)
    int i;
    
    // make sure processs is stoped, and set write flag
    IOWR(spi_base, SPI_REG_CTRL_STATUS, 0);
 2003554:	e0bffa17 	ldw	r2,-24(fp)
 2003558:	10800104 	addi	r2,r2,4
 200355c:	10000035 	stwio	zero,0(r2)
    
    // set register index
    IOWR(spi_base, SPI_REG_INDEX, RegIndex);
 2003560:	e0bffa17 	ldw	r2,-24(fp)
 2003564:	10800204 	addi	r2,r2,8
 2003568:	e0fffb03 	ldbu	r3,-20(fp)
 200356c:	10c00035 	stwio	r3,0(r2)
    
    // write data to fifo
    for(i=0;i<nByteNum;i++)
 2003570:	e03ff615 	stw	zero,-40(fp)
 2003574:	00000c06 	br	20035a8 <_Z17SPI_MultipleWritemhPhh+0x80>
        IOWR(spi_base, SPI_REG_DATA, szData[i]);
 2003578:	e13ffa17 	ldw	r4,-24(fp)
 200357c:	e0bff617 	ldw	r2,-40(fp)
 2003580:	1007883a 	mov	r3,r2
 2003584:	e0bffc17 	ldw	r2,-16(fp)
 2003588:	1885883a 	add	r2,r3,r2
 200358c:	10800003 	ldbu	r2,0(r2)
 2003590:	10c03fcc 	andi	r3,r2,255
 2003594:	2005883a 	mov	r2,r4
 2003598:	10c00035 	stwio	r3,0(r2)
    
    // set register index
    IOWR(spi_base, SPI_REG_INDEX, RegIndex);
    
    // write data to fifo
    for(i=0;i<nByteNum;i++)
 200359c:	e0bff617 	ldw	r2,-40(fp)
 20035a0:	10800044 	addi	r2,r2,1
 20035a4:	e0bff615 	stw	r2,-40(fp)
 20035a8:	e0fffd03 	ldbu	r3,-12(fp)
 20035ac:	e0bff617 	ldw	r2,-40(fp)
 20035b0:	10fff116 	blt	r2,r3,2003578 <_Z17SPI_MultipleWritemhPhh+0x50>
        IOWR(spi_base, SPI_REG_DATA, szData[i]);
    
    // start
    IOWR(spi_base, SPI_REG_CTRL_STATUS, SPI_FLAG_STATR);
 20035b4:	e0bffa17 	ldw	r2,-24(fp)
 20035b8:	10800104 	addi	r2,r2,4
 20035bc:	1007883a 	mov	r3,r2
 20035c0:	00800044 	movi	r2,1
 20035c4:	18800035 	stwio	r2,0(r3)
    
    // check status
    usleep(10);
 20035c8:	01000284 	movi	r4,10
 20035cc:	20181680 	call	2018168 <usleep>
    do{    
        Status = IORD(spi_base, SPI_REG_CTRL_STATUS);
 20035d0:	e0bffa17 	ldw	r2,-24(fp)
 20035d4:	10800104 	addi	r2,r2,4
 20035d8:	10800037 	ldwio	r2,0(r2)
 20035dc:	e0bff905 	stb	r2,-28(fp)
    // start
    IOWR(spi_base, SPI_REG_CTRL_STATUS, SPI_FLAG_STATR);
    
    // check status
    usleep(10);
    do{    
 20035e0:	e0bff903 	ldbu	r2,-28(fp)
 20035e4:	1080004c 	andi	r2,r2,1
 20035e8:	1080005c 	xori	r2,r2,1
 20035ec:	1080005c 	xori	r2,r2,1
 20035f0:	10803fcc 	andi	r2,r2,255
 20035f4:	1004c03a 	cmpne	r2,r2,zero
 20035f8:	10000d1e 	bne	r2,zero,2003630 <_Z17SPI_MultipleWritemhPhh+0x108>
 20035fc:	e0bff717 	ldw	r2,-36(fp)
 2003600:	10801910 	cmplti	r2,r2,100
 2003604:	1007883a 	mov	r3,r2
 2003608:	e0bff717 	ldw	r2,-36(fp)
 200360c:	10800044 	addi	r2,r2,1
 2003610:	e0bff715 	stw	r2,-36(fp)
 2003614:	1880005c 	xori	r2,r3,1
 2003618:	10803fcc 	andi	r2,r2,255
 200361c:	1004c03a 	cmpne	r2,r2,zero
 2003620:	1000031e 	bne	r2,zero,2003630 <_Z17SPI_MultipleWritemhPhh+0x108>
 2003624:	00800044 	movi	r2,1
 2003628:	e0bfff05 	stb	r2,-4(fp)
 200362c:	00000106 	br	2003634 <_Z17SPI_MultipleWritemhPhh+0x10c>
 2003630:	e03fff05 	stb	zero,-4(fp)
 2003634:	e0bfff03 	ldbu	r2,-4(fp)
 2003638:	10803fcc 	andi	r2,r2,255
 200363c:	1004c03a 	cmpne	r2,r2,zero
 2003640:	103fe31e 	bne	r2,zero,20035d0 <_Z17SPI_MultipleWritemhPhh+0xa8>
        Status = IORD(spi_base, SPI_REG_CTRL_STATUS);
    }while (!(Status & SPI_STATUS_FLAG_DONE) && (nTryCnt++ < nMaxTry));
    
    IOWR(spi_base, SPI_REG_CTRL_STATUS, 0);  //stop
 2003644:	e0bffa17 	ldw	r2,-24(fp)
 2003648:	10800104 	addi	r2,r2,4
 200364c:	10000035 	stwio	zero,0(r2)
    
    if (Status & SPI_STATUS_FLAG_DONE)
 2003650:	e0bff903 	ldbu	r2,-28(fp)
 2003654:	1080004c 	andi	r2,r2,1
 2003658:	10803fcc 	andi	r2,r2,255
 200365c:	1005003a 	cmpeq	r2,r2,zero
 2003660:	1000031e 	bne	r2,zero,2003670 <_Z17SPI_MultipleWritemhPhh+0x148>
        return TRUE;
 2003664:	00800044 	movi	r2,1
 2003668:	e0bffe15 	stw	r2,-8(fp)
 200366c:	00000106 	br	2003674 <_Z17SPI_MultipleWritemhPhh+0x14c>
    
    return FALSE;
 2003670:	e03ffe15 	stw	zero,-8(fp)
 2003674:	e0bffe17 	ldw	r2,-8(fp)
}
 2003678:	e037883a 	mov	sp,fp
 200367c:	dfc00117 	ldw	ra,4(sp)
 2003680:	df000017 	ldw	fp,0(sp)
 2003684:	dec00204 	addi	sp,sp,8
 2003688:	f800283a 	ret

0200368c <_Z9SPI_Writemhh>:

bool SPI_Write(alt_u32 spi_base, alt_u8 RegIndex, alt_u8 Value){
 200368c:	defffb04 	addi	sp,sp,-20
 2003690:	dfc00415 	stw	ra,16(sp)
 2003694:	df000315 	stw	fp,12(sp)
 2003698:	df000304 	addi	fp,sp,12
 200369c:	e13ffd15 	stw	r4,-12(fp)
 20036a0:	e17ffe05 	stb	r5,-8(fp)
 20036a4:	e1bfff05 	stb	r6,-4(fp)
    return SPI_MultipleWrite(spi_base, RegIndex, &Value, 1);
 20036a8:	e17ffe03 	ldbu	r5,-8(fp)
 20036ac:	e1bfff04 	addi	r6,fp,-4
 20036b0:	e13ffd17 	ldw	r4,-12(fp)
 20036b4:	01c00044 	movi	r7,1
 20036b8:	20035280 	call	2003528 <_Z17SPI_MultipleWritemhPhh>
 20036bc:	10803fcc 	andi	r2,r2,255
}    
 20036c0:	e037883a 	mov	sp,fp
 20036c4:	dfc00117 	ldw	ra,4(sp)
 20036c8:	df000017 	ldw	fp,0(sp)
 20036cc:	dec00204 	addi	sp,sp,8
 20036d0:	f800283a 	ret

020036d4 <_ZN15CADCInfoMessage8doActionEv>:
}

/*
 * Overrided from CCarMessage.
 */
void CADCInfoMessage::doAction()
 20036d4:	defffe04 	addi	sp,sp,-8
 20036d8:	df000115 	stw	fp,4(sp)
 20036dc:	df000104 	addi	fp,sp,4
 20036e0:	e13fff15 	stw	r4,-4(fp)
	alt_u8 uiNumbers[] = ADC_CHANNEL_NUMBERS;
	char uiAliases[] = ADC_CHANNEL_ALIAS_STRINGS;
	answerMessage(ADC_CONNECTED_CHANNELS, uiNumbers, (alt_u8*) uiAliases);
#endif /* CENTRAL_ECU_BUILD */

}
 20036e4:	e037883a 	mov	sp,fp
 20036e8:	df000017 	ldw	fp,0(sp)
 20036ec:	dec00104 	addi	sp,sp,4
 20036f0:	f800283a 	ret

020036f4 <_ZN15CADCInfoMessage13answerMessageEhPhS0_>:

/*
 * Overrided from CCarMessage.
 */
void CADCInfoMessage::answerMessage(alt_u8 uiChannelCount, alt_u8 uiChannelNumbers[], alt_u8 uiChannelAliasStrings[])
 20036f4:	defff804 	addi	sp,sp,-32
 20036f8:	dfc00715 	stw	ra,28(sp)
 20036fc:	df000615 	stw	fp,24(sp)
 2003700:	dc000515 	stw	r16,20(sp)
 2003704:	df000504 	addi	fp,sp,20
 2003708:	e13ffc15 	stw	r4,-16(fp)
 200370c:	e1bffe15 	stw	r6,-8(fp)
 2003710:	e1ffff15 	stw	r7,-4(fp)
 2003714:	e17ffd05 	stb	r5,-12(fp)
{
	alt_u32 i = 0;
 2003718:	e03ffb15 	stw	zero,-20(fp)
    m_uiChannelCount = uiChannelCount;
 200371c:	e0fffc17 	ldw	r3,-16(fp)
 2003720:	e0bffd03 	ldbu	r2,-12(fp)
 2003724:	18800245 	stb	r2,9(r3)
    for(i = 0; i < 7; i++)
 2003728:	e03ffb15 	stw	zero,-20(fp)
 200372c:	00001406 	br	2003780 <_ZN15CADCInfoMessage13answerMessageEhPhS0_+0x8c>
    	m_uiChannelAliasStrings[i] = uiChannelAliasStrings[m_uiChannelNumbers[0]*7+i];
 2003730:	e43ffb17 	ldw	r16,-20(fp)
 2003734:	e0bffc17 	ldw	r2,-16(fp)
 2003738:	10800283 	ldbu	r2,10(r2)
 200373c:	11003fcc 	andi	r4,r2,255
 2003740:	014001c4 	movi	r5,7
 2003744:	200d0cc0 	call	200d0cc <__mulsi3>
 2003748:	1007883a 	mov	r3,r2
 200374c:	e0bffb17 	ldw	r2,-20(fp)
 2003750:	1885883a 	add	r2,r3,r2
 2003754:	1007883a 	mov	r3,r2
 2003758:	e0bfff17 	ldw	r2,-4(fp)
 200375c:	1885883a 	add	r2,r3,r2
 2003760:	10c00003 	ldbu	r3,0(r2)
 2003764:	e0bffc17 	ldw	r2,-16(fp)
 2003768:	8085883a 	add	r2,r16,r2
 200376c:	10800304 	addi	r2,r2,12
 2003770:	10c00005 	stb	r3,0(r2)
 */
void CADCInfoMessage::answerMessage(alt_u8 uiChannelCount, alt_u8 uiChannelNumbers[], alt_u8 uiChannelAliasStrings[])
{
	alt_u32 i = 0;
    m_uiChannelCount = uiChannelCount;
    for(i = 0; i < 7; i++)
 2003774:	e0bffb17 	ldw	r2,-20(fp)
 2003778:	10800044 	addi	r2,r2,1
 200377c:	e0bffb15 	stw	r2,-20(fp)
 2003780:	e0bffb17 	ldw	r2,-20(fp)
 2003784:	108001f0 	cmpltui	r2,r2,7
 2003788:	103fe91e 	bne	r2,zero,2003730 <_ZN15CADCInfoMessage13answerMessageEhPhS0_+0x3c>
    	m_uiChannelAliasStrings[i] = uiChannelAliasStrings[m_uiChannelNumbers[0]*7+i];
    for(i = 7; i < 14; i++)
 200378c:	008001c4 	movi	r2,7
 2003790:	e0bffb15 	stw	r2,-20(fp)
 2003794:	00001406 	br	20037e8 <_ZN15CADCInfoMessage13answerMessageEhPhS0_+0xf4>
		m_uiChannelAliasStrings[i] = uiChannelAliasStrings[m_uiChannelNumbers[1]*7+i];
 2003798:	e43ffb17 	ldw	r16,-20(fp)
 200379c:	e0bffc17 	ldw	r2,-16(fp)
 20037a0:	108002c3 	ldbu	r2,11(r2)
 20037a4:	11003fcc 	andi	r4,r2,255
 20037a8:	014001c4 	movi	r5,7
 20037ac:	200d0cc0 	call	200d0cc <__mulsi3>
 20037b0:	1007883a 	mov	r3,r2
 20037b4:	e0bffb17 	ldw	r2,-20(fp)
 20037b8:	1885883a 	add	r2,r3,r2
 20037bc:	1007883a 	mov	r3,r2
 20037c0:	e0bfff17 	ldw	r2,-4(fp)
 20037c4:	1885883a 	add	r2,r3,r2
 20037c8:	10c00003 	ldbu	r3,0(r2)
 20037cc:	e0bffc17 	ldw	r2,-16(fp)
 20037d0:	8085883a 	add	r2,r16,r2
 20037d4:	10800304 	addi	r2,r2,12
 20037d8:	10c00005 	stb	r3,0(r2)
{
	alt_u32 i = 0;
    m_uiChannelCount = uiChannelCount;
    for(i = 0; i < 7; i++)
    	m_uiChannelAliasStrings[i] = uiChannelAliasStrings[m_uiChannelNumbers[0]*7+i];
    for(i = 7; i < 14; i++)
 20037dc:	e0bffb17 	ldw	r2,-20(fp)
 20037e0:	10800044 	addi	r2,r2,1
 20037e4:	e0bffb15 	stw	r2,-20(fp)
 20037e8:	e0bffb17 	ldw	r2,-20(fp)
 20037ec:	108003b0 	cmpltui	r2,r2,14
 20037f0:	103fe91e 	bne	r2,zero,2003798 <_ZN15CADCInfoMessage13answerMessageEhPhS0_+0xa4>
		m_uiChannelAliasStrings[i] = uiChannelAliasStrings[m_uiChannelNumbers[1]*7+i];
		
	m_uiChannelNumbers[0] = uiChannelNumbers[m_uiChannelNumbers[0]];
 20037f4:	e0bffc17 	ldw	r2,-16(fp)
 20037f8:	10800283 	ldbu	r2,10(r2)
 20037fc:	10803fcc 	andi	r2,r2,255
 2003800:	1007883a 	mov	r3,r2
 2003804:	e0bffe17 	ldw	r2,-8(fp)
 2003808:	1885883a 	add	r2,r3,r2
 200380c:	10c00003 	ldbu	r3,0(r2)
 2003810:	e0bffc17 	ldw	r2,-16(fp)
 2003814:	10c00285 	stb	r3,10(r2)
	m_uiChannelNumbers[1] = uiChannelNumbers[m_uiChannelNumbers[1]];
 2003818:	e0bffc17 	ldw	r2,-16(fp)
 200381c:	108002c3 	ldbu	r2,11(r2)
 2003820:	10803fcc 	andi	r2,r2,255
 2003824:	1007883a 	mov	r3,r2
 2003828:	e0bffe17 	ldw	r2,-8(fp)
 200382c:	1885883a 	add	r2,r3,r2
 2003830:	10c00003 	ldbu	r3,0(r2)
 2003834:	e0bffc17 	ldw	r2,-16(fp)
 2003838:	10c002c5 	stb	r3,11(r2)
    m_uiFlags = m_uiFlags | 0x01; // Set response flag
 200383c:	e0bffc17 	ldw	r2,-16(fp)
 2003840:	108001c3 	ldbu	r2,7(r2)
 2003844:	10800054 	ori	r2,r2,1
 2003848:	1007883a 	mov	r3,r2
 200384c:	e0bffc17 	ldw	r2,-16(fp)
 2003850:	10c001c5 	stb	r3,7(r2)
}
 2003854:	e037883a 	mov	sp,fp
 2003858:	dfc00217 	ldw	ra,8(sp)
 200385c:	df000117 	ldw	fp,4(sp)
 2003860:	dc000017 	ldw	r16,0(sp)
 2003864:	dec00304 	addi	sp,sp,12
 2003868:	f800283a 	ret

0200386c <_ZN15CADCInfoMessage9getLengthEv>:
}

/*
 * Overrided from CCarMessage.
 */
alt_u32 CADCInfoMessage::getLength()
 200386c:	defffe04 	addi	sp,sp,-8
 2003870:	df000115 	stw	fp,4(sp)
 2003874:	df000104 	addi	fp,sp,4
 2003878:	e13fff15 	stw	r4,-4(fp)
{
    return 24;
 200387c:	00800604 	movi	r2,24
}
 2003880:	e037883a 	mov	sp,fp
 2003884:	df000017 	ldw	fp,0(sp)
 2003888:	dec00104 	addi	sp,sp,4
 200388c:	f800283a 	ret

02003890 <_ZN15CADCInfoMessage12parseMessageEPhi>:

/*
 * Overrided from CCarMessage.
 */
void CADCInfoMessage::parseMessage(alt_u8 *pMessage, int iLength)
 2003890:	defffc04 	addi	sp,sp,-16
 2003894:	df000315 	stw	fp,12(sp)
 2003898:	df000304 	addi	fp,sp,12
 200389c:	e13ffd15 	stw	r4,-12(fp)
 20038a0:	e17ffe15 	stw	r5,-8(fp)
 20038a4:	e1bfff15 	stw	r6,-4(fp)
{
    if(iLength < 20)
 20038a8:	e0bfff17 	ldw	r2,-4(fp)
 20038ac:	10800510 	cmplti	r2,r2,20
 20038b0:	1000571e 	bne	r2,zero,2003a10 <_ZN15CADCInfoMessage12parseMessageEPhi+0x180>
        return;

    m_uiChannelCount = pMessage[0];
 20038b4:	e0bffe17 	ldw	r2,-8(fp)
 20038b8:	10c00003 	ldbu	r3,0(r2)
 20038bc:	e0bffd17 	ldw	r2,-12(fp)
 20038c0:	10c00245 	stb	r3,9(r2)
    m_uiChannelNumbers[0] = pMessage[4];
 20038c4:	e0bffe17 	ldw	r2,-8(fp)
 20038c8:	10800104 	addi	r2,r2,4
 20038cc:	10c00003 	ldbu	r3,0(r2)
 20038d0:	e0bffd17 	ldw	r2,-12(fp)
 20038d4:	10c00285 	stb	r3,10(r2)
    m_uiChannelAliasStrings[0] = pMessage[5];
 20038d8:	e0bffe17 	ldw	r2,-8(fp)
 20038dc:	10800144 	addi	r2,r2,5
 20038e0:	10c00003 	ldbu	r3,0(r2)
 20038e4:	e0bffd17 	ldw	r2,-12(fp)
 20038e8:	10c00305 	stb	r3,12(r2)
    m_uiChannelAliasStrings[1] = pMessage[6];
 20038ec:	e0bffe17 	ldw	r2,-8(fp)
 20038f0:	10800184 	addi	r2,r2,6
 20038f4:	10c00003 	ldbu	r3,0(r2)
 20038f8:	e0bffd17 	ldw	r2,-12(fp)
 20038fc:	10c00345 	stb	r3,13(r2)
    m_uiChannelAliasStrings[2] = pMessage[7];
 2003900:	e0bffe17 	ldw	r2,-8(fp)
 2003904:	108001c4 	addi	r2,r2,7
 2003908:	10c00003 	ldbu	r3,0(r2)
 200390c:	e0bffd17 	ldw	r2,-12(fp)
 2003910:	10c00385 	stb	r3,14(r2)
    m_uiChannelAliasStrings[3] = pMessage[8];
 2003914:	e0bffe17 	ldw	r2,-8(fp)
 2003918:	10800204 	addi	r2,r2,8
 200391c:	10c00003 	ldbu	r3,0(r2)
 2003920:	e0bffd17 	ldw	r2,-12(fp)
 2003924:	10c003c5 	stb	r3,15(r2)
    m_uiChannelAliasStrings[4] = pMessage[9];
 2003928:	e0bffe17 	ldw	r2,-8(fp)
 200392c:	10800244 	addi	r2,r2,9
 2003930:	10c00003 	ldbu	r3,0(r2)
 2003934:	e0bffd17 	ldw	r2,-12(fp)
 2003938:	10c00405 	stb	r3,16(r2)
    m_uiChannelAliasStrings[5] = pMessage[10];
 200393c:	e0bffe17 	ldw	r2,-8(fp)
 2003940:	10800284 	addi	r2,r2,10
 2003944:	10c00003 	ldbu	r3,0(r2)
 2003948:	e0bffd17 	ldw	r2,-12(fp)
 200394c:	10c00445 	stb	r3,17(r2)
    m_uiChannelAliasStrings[6] = pMessage[11];
 2003950:	e0bffe17 	ldw	r2,-8(fp)
 2003954:	108002c4 	addi	r2,r2,11
 2003958:	10c00003 	ldbu	r3,0(r2)
 200395c:	e0bffd17 	ldw	r2,-12(fp)
 2003960:	10c00485 	stb	r3,18(r2)
    m_uiChannelNumbers[1] = pMessage[12];
 2003964:	e0bffe17 	ldw	r2,-8(fp)
 2003968:	10800304 	addi	r2,r2,12
 200396c:	10c00003 	ldbu	r3,0(r2)
 2003970:	e0bffd17 	ldw	r2,-12(fp)
 2003974:	10c002c5 	stb	r3,11(r2)
    m_uiChannelAliasStrings[7] = pMessage[13];
 2003978:	e0bffe17 	ldw	r2,-8(fp)
 200397c:	10800344 	addi	r2,r2,13
 2003980:	10c00003 	ldbu	r3,0(r2)
 2003984:	e0bffd17 	ldw	r2,-12(fp)
 2003988:	10c004c5 	stb	r3,19(r2)
    m_uiChannelAliasStrings[8] = pMessage[14];
 200398c:	e0bffe17 	ldw	r2,-8(fp)
 2003990:	10800384 	addi	r2,r2,14
 2003994:	10c00003 	ldbu	r3,0(r2)
 2003998:	e0bffd17 	ldw	r2,-12(fp)
 200399c:	10c00505 	stb	r3,20(r2)
    m_uiChannelAliasStrings[9] = pMessage[15];
 20039a0:	e0bffe17 	ldw	r2,-8(fp)
 20039a4:	108003c4 	addi	r2,r2,15
 20039a8:	10c00003 	ldbu	r3,0(r2)
 20039ac:	e0bffd17 	ldw	r2,-12(fp)
 20039b0:	10c00545 	stb	r3,21(r2)
    m_uiChannelAliasStrings[10] = pMessage[16];
 20039b4:	e0bffe17 	ldw	r2,-8(fp)
 20039b8:	10800404 	addi	r2,r2,16
 20039bc:	10c00003 	ldbu	r3,0(r2)
 20039c0:	e0bffd17 	ldw	r2,-12(fp)
 20039c4:	10c00585 	stb	r3,22(r2)
    m_uiChannelAliasStrings[11] = pMessage[17];
 20039c8:	e0bffe17 	ldw	r2,-8(fp)
 20039cc:	10800444 	addi	r2,r2,17
 20039d0:	10c00003 	ldbu	r3,0(r2)
 20039d4:	e0bffd17 	ldw	r2,-12(fp)
 20039d8:	10c005c5 	stb	r3,23(r2)
    m_uiChannelAliasStrings[12] = pMessage[18];
 20039dc:	e0bffe17 	ldw	r2,-8(fp)
 20039e0:	10800484 	addi	r2,r2,18
 20039e4:	10c00003 	ldbu	r3,0(r2)
 20039e8:	e0bffd17 	ldw	r2,-12(fp)
 20039ec:	10c00605 	stb	r3,24(r2)
    m_uiChannelAliasStrings[13] = pMessage[19];
 20039f0:	e0bffe17 	ldw	r2,-8(fp)
 20039f4:	108004c4 	addi	r2,r2,19
 20039f8:	10c00003 	ldbu	r3,0(r2)
 20039fc:	e0bffd17 	ldw	r2,-12(fp)
 2003a00:	10c00645 	stb	r3,25(r2)

    m_bValid = true;
 2003a04:	e0fffd17 	ldw	r3,-12(fp)
 2003a08:	00800044 	movi	r2,1
 2003a0c:	18800205 	stb	r2,8(r3)

}
 2003a10:	e037883a 	mov	sp,fp
 2003a14:	df000017 	ldw	fp,0(sp)
 2003a18:	dec00104 	addi	sp,sp,4
 2003a1c:	f800283a 	ret

02003a20 <_ZN15CADCInfoMessage8getBytesEPh>:
}

/*
 * Overrided from CCarMessage.
 */
bool CADCInfoMessage::getBytes(alt_u8 *pMessage)
 2003a20:	defffc04 	addi	sp,sp,-16
 2003a24:	dfc00315 	stw	ra,12(sp)
 2003a28:	df000215 	stw	fp,8(sp)
 2003a2c:	df000204 	addi	fp,sp,8
 2003a30:	e13ffe15 	stw	r4,-8(fp)
 2003a34:	e17fff15 	stw	r5,-4(fp)
{
    CCarMessage::getBytes(pMessage);
 2003a38:	e13ffe17 	ldw	r4,-8(fp)
 2003a3c:	e17fff17 	ldw	r5,-4(fp)
 2003a40:	2006f040 	call	2006f04 <_ZN11CCarMessage8getBytesEPh>

    pMessage[4] = m_uiChannelCount;
 2003a44:	e0bfff17 	ldw	r2,-4(fp)
 2003a48:	10c00104 	addi	r3,r2,4
 2003a4c:	e0bffe17 	ldw	r2,-8(fp)
 2003a50:	10800243 	ldbu	r2,9(r2)
 2003a54:	18800005 	stb	r2,0(r3)
    pMessage[5] = 0;
 2003a58:	e0bfff17 	ldw	r2,-4(fp)
 2003a5c:	10800144 	addi	r2,r2,5
 2003a60:	10000005 	stb	zero,0(r2)
    pMessage[6] = 0;
 2003a64:	e0bfff17 	ldw	r2,-4(fp)
 2003a68:	10800184 	addi	r2,r2,6
 2003a6c:	10000005 	stb	zero,0(r2)
    pMessage[7] = 0;
 2003a70:	e0bfff17 	ldw	r2,-4(fp)
 2003a74:	108001c4 	addi	r2,r2,7
 2003a78:	10000005 	stb	zero,0(r2)
    pMessage[8] = m_uiChannelNumbers[0];
 2003a7c:	e0bfff17 	ldw	r2,-4(fp)
 2003a80:	10c00204 	addi	r3,r2,8
 2003a84:	e0bffe17 	ldw	r2,-8(fp)
 2003a88:	10800283 	ldbu	r2,10(r2)
 2003a8c:	18800005 	stb	r2,0(r3)
    pMessage[9] = m_uiChannelAliasStrings[0];
 2003a90:	e0bfff17 	ldw	r2,-4(fp)
 2003a94:	10c00244 	addi	r3,r2,9
 2003a98:	e0bffe17 	ldw	r2,-8(fp)
 2003a9c:	10800303 	ldbu	r2,12(r2)
 2003aa0:	18800005 	stb	r2,0(r3)
    pMessage[10] = m_uiChannelAliasStrings[1];
 2003aa4:	e0bfff17 	ldw	r2,-4(fp)
 2003aa8:	10c00284 	addi	r3,r2,10
 2003aac:	e0bffe17 	ldw	r2,-8(fp)
 2003ab0:	10800343 	ldbu	r2,13(r2)
 2003ab4:	18800005 	stb	r2,0(r3)
    pMessage[11] = m_uiChannelAliasStrings[2];
 2003ab8:	e0bfff17 	ldw	r2,-4(fp)
 2003abc:	10c002c4 	addi	r3,r2,11
 2003ac0:	e0bffe17 	ldw	r2,-8(fp)
 2003ac4:	10800383 	ldbu	r2,14(r2)
 2003ac8:	18800005 	stb	r2,0(r3)
    pMessage[12] = m_uiChannelAliasStrings[3];
 2003acc:	e0bfff17 	ldw	r2,-4(fp)
 2003ad0:	10c00304 	addi	r3,r2,12
 2003ad4:	e0bffe17 	ldw	r2,-8(fp)
 2003ad8:	108003c3 	ldbu	r2,15(r2)
 2003adc:	18800005 	stb	r2,0(r3)
    pMessage[13] = m_uiChannelAliasStrings[4];
 2003ae0:	e0bfff17 	ldw	r2,-4(fp)
 2003ae4:	10c00344 	addi	r3,r2,13
 2003ae8:	e0bffe17 	ldw	r2,-8(fp)
 2003aec:	10800403 	ldbu	r2,16(r2)
 2003af0:	18800005 	stb	r2,0(r3)
    pMessage[14] = m_uiChannelAliasStrings[5];
 2003af4:	e0bfff17 	ldw	r2,-4(fp)
 2003af8:	10c00384 	addi	r3,r2,14
 2003afc:	e0bffe17 	ldw	r2,-8(fp)
 2003b00:	10800443 	ldbu	r2,17(r2)
 2003b04:	18800005 	stb	r2,0(r3)
    pMessage[15] = m_uiChannelAliasStrings[6];
