
Car2X_nanoMotorCtrlRechts.elf:     file format elf32-littlenios2
Car2X_nanoMotorCtrlRechts.elf
architecture: nios2, flags 0x00000112:
EXEC_P, HAS_SYMS, D_PAGED
start address 0x020001b8

Program Header:
    LOAD off    0x00001000 vaddr 0x02000000 paddr 0x02000000 align 2**12
         filesz 0x00000020 memsz 0x00000020 flags r-x
    LOAD off    0x00001020 vaddr 0x02000020 paddr 0x02000020 align 2**12
         filesz 0x00012b9c memsz 0x00012b9c flags r-x
    LOAD off    0x00013bbc vaddr 0x02012bbc paddr 0x02014730 align 2**12
         filesz 0x00001b74 memsz 0x00001b74 flags rw-
    LOAD off    0x000162a4 vaddr 0x020162a4 paddr 0x020162a4 align 2**12
         filesz 0x00000000 memsz 0x00000b18 flags rw-

Sections:
Idx Name          Size      VMA       LMA       File off  Algn
  0 .entry        00000020  02000000  02000000  00001000  2**5
                  CONTENTS, ALLOC, LOAD, READONLY, CODE
  1 .exceptions   00000198  02000020  02000020  00001020  2**2
                  CONTENTS, ALLOC, LOAD, READONLY, CODE
  2 .text         000123ec  020001b8  020001b8  000011b8  2**2
                  CONTENTS, ALLOC, LOAD, READONLY, CODE
  3 .rodata       00000618  020125a4  020125a4  000135a4  2**2
                  CONTENTS, ALLOC, LOAD, READONLY, DATA
  4 .rwdata       00001b74  02012bbc  02014730  00013bbc  2**2
                  CONTENTS, ALLOC, LOAD, DATA, SMALL_DATA
  5 .bss          00000b18  020162a4  020162a4  000162a4  2**2
                  ALLOC, SMALL_DATA
  6 .comment      00000049  00000000  00000000  00015730  2**0
                  CONTENTS, READONLY
  7 .debug_aranges 00000ce0  00000000  00000000  00015780  2**3
                  CONTENTS, READONLY, DEBUGGING
  8 .debug_pubnames 00003bd2  00000000  00000000  00016460  2**0
                  CONTENTS, READONLY, DEBUGGING
  9 .debug_info   00029aa4  00000000  00000000  0001a032  2**0
                  CONTENTS, READONLY, DEBUGGING
 10 .debug_abbrev 0000986b  00000000  00000000  00043ad6  2**0
                  CONTENTS, READONLY, DEBUGGING
 11 .debug_line   00014ebe  00000000  00000000  0004d341  2**0
                  CONTENTS, READONLY, DEBUGGING
 12 .debug_frame  0000359c  00000000  00000000  00062200  2**2
                  CONTENTS, READONLY, DEBUGGING
 13 .debug_str    000035b9  00000000  00000000  0006579c  2**0
                  CONTENTS, READONLY, DEBUGGING
 14 .debug_loc    00007ea2  00000000  00000000  00068d55  2**0
                  CONTENTS, READONLY, DEBUGGING
 15 .debug_alt_sim_info 00000040  00000000  00000000  00070bf8  2**2
                  CONTENTS, READONLY, DEBUGGING
 16 .debug_ranges 00000530  00000000  00000000  00070c38  2**3
                  CONTENTS, READONLY, DEBUGGING
 17 .thread_model 00000003  00000000  00000000  000783e1  2**0
                  CONTENTS, READONLY
 18 .cpu          00000003  00000000  00000000  000783e4  2**0
                  CONTENTS, READONLY
 19 .simulation_enabled 00000001  00000000  00000000  000783e7  2**0
                  CONTENTS, READONLY
 20 .sysid_hash   00000004  00000000  00000000  000783e8  2**0
                  CONTENTS, READONLY
 21 .sysid_base   00000004  00000000  00000000  000783ec  2**0
                  CONTENTS, READONLY
 22 .sysid_time   00000004  00000000  00000000  000783f0  2**0
                  CONTENTS, READONLY
 23 .stderr_dev   00000009  00000000  00000000  000783f4  2**0
                  CONTENTS, READONLY
 24 .stdin_dev    00000009  00000000  00000000  000783fd  2**0
                  CONTENTS, READONLY
 25 .stdout_dev   00000009  00000000  00000000  00078406  2**0
                  CONTENTS, READONLY
 26 .sopc_system_name 0000000d  00000000  00000000  0007840f  2**0
                  CONTENTS, READONLY
 27 .quartus_project_dir 00000056  00000000  00000000  0007841c  2**0
                  CONTENTS, READONLY
 28 .jdi          0000b10d  00000000  00000000  00078472  2**0
                  CONTENTS, READONLY
 29 .sopcinfo     000b562c  00000000  00000000  0008357f  2**0
                  CONTENTS, READONLY
SYMBOL TABLE:
02000000 l    d  .entry	00000000 .entry
02000020 l    d  .exceptions	00000000 .exceptions
020001b8 l    d  .text	00000000 .text
020125a4 l    d  .rodata	00000000 .rodata
02012bbc l    d  .rwdata	00000000 .rwdata
020162a4 l    d  .bss	00000000 .bss
00000000 l    d  .comment	00000000 .comment
00000000 l    d  .debug_aranges	00000000 .debug_aranges
00000000 l    d  .debug_pubnames	00000000 .debug_pubnames
00000000 l    d  .debug_info	00000000 .debug_info
00000000 l    d  .debug_abbrev	00000000 .debug_abbrev
00000000 l    d  .debug_line	00000000 .debug_line
00000000 l    d  .debug_frame	00000000 .debug_frame
00000000 l    d  .debug_str	00000000 .debug_str
00000000 l    d  .debug_loc	00000000 .debug_loc
00000000 l    d  .debug_alt_sim_info	00000000 .debug_alt_sim_info
00000000 l    d  .debug_ranges	00000000 .debug_ranges
020001f0 l       .text	00000000 alt_after_alt_main
00000000 l    df *ABS*	00000000 alt_irq_handler.c
00000000 l    df *ABS*	00000000 utility.cpp
00000000 l    df *ABS*	00000000 accelerometer_interface.cpp
00000000 l    df *ABS*	00000000 adc_interface.cpp
00000000 l    df *ABS*	00000000 eth_uart.cpp
00000000 l    df *ABS*	00000000 motor_pwm.cpp
00000000 l    df *ABS*	00000000 ultrasound_interface.cpp
00000000 l    df *ABS*	00000000 main.cpp
00000000 l    df *ABS*	00000000 pidcontroller.cpp
00000000 l    df *ABS*	00000000 I2C.cpp
00000000 l    df *ABS*	00000000 accelerometer_adxl345_spi.cpp
00000000 l    df *ABS*	00000000 adc_spi_read.cpp
00000000 l    df *ABS*	00000000 terasic_spi.cpp
00000000 l    df *ABS*	00000000 ADCInfoMessage.cpp
00000000 l    df *ABS*	00000000 ADCValuesMessage.cpp
00000000 l    df *ABS*	00000000 AccelerationValuesMessage.cpp
00000000 l    df *ABS*	00000000 CControlMessage.cpp
00000000 l    df *ABS*	00000000 CEmergencyBrakeMessage.cpp
00000000 l    df *ABS*	00000000 CInfoSensorMessage.cpp
00000000 l    df *ABS*	00000000 CInfoStateMessage.cpp
00000000 l    df *ABS*	00000000 CRemoteControlMessage.cpp
00000000 l    df *ABS*	00000000 CarMessage.cpp
00000000 l    df *ABS*	00000000 CarProtocol.cpp
00000000 l    df *ABS*	00000000 MotorMeasurementMessage.cpp
00000000 l    df *ABS*	00000000 MotorVelocityMessage.cpp
00000000 l    df *ABS*	00000000 UltrasoundDistanceMessage.cpp
00000000 l    df *ABS*	00000000 WelcomeMessage.cpp
00000000 l    df *ABS*	00000000 eh_personality.cc
0200b01c l     F .text	00000030 _Z12read_uleb128PKhPj
0200b04c l     F .text	00000054 _Z12read_sleb128PKhPi
0200b0a0 l     F .text	0000009c _Z16get_adjusted_ptrPKSt9type_infoS1_PPv
0200b13c l     F .text	000001d4 _Z28read_encoded_value_with_basehjPKhPj
0200b310 l     F .text	00000090 _Z21base_of_encoded_valuehP15_Unwind_Context
0200b3a0 l     F .text	00000100 _Z17parse_lsda_headerP15_Unwind_ContextPKhP16lsda_header_info
0200b4a0 l     F .text	00000084 _Z15get_ttype_entryP16lsda_header_infoj
0200b524 l     F .text	00000084 _Z20check_exception_specP16lsda_header_infoPKSt9type_infoPvi
00000000 l    df *ABS*	00000000 eh_exception.cc
00000000 l    df *ABS*	00000000 del_op.cc
00000000 l    df *ABS*	00000000 eh_call.cc
00000000 l    df *ABS*	00000000 class_type_info.cc
00000000 l    df *ABS*	00000000 new_op.cc
00000000 l    df *ABS*	00000000 si_class_type_info.cc
00000000 l    df *ABS*	00000000 eh_alloc.cc
02016304 l     O .bss	00000800 emergency_buffer
020162c8 l     O .bss	00000004 emergency_used
00000000 l    df *ABS*	00000000 tinfo.cc
00000000 l    df *ABS*	00000000 eh_throw.cc
0200c424 l     F .text	00000060 _Z23__gxx_exception_cleanup19_Unwind_Reason_CodeP17_Unwind_Exception
00000000 l    df *ABS*	00000000 eh_terminate.cc
00000000 l    df *ABS*	00000000 eh_globals.cc
020162cc l     O .bss	00000008 eh_globals
00000000 l    df *ABS*	00000000 eh_unex_handler.cc
00000000 l    df *ABS*	00000000 new_handler.cc
00000000 l    df *ABS*	00000000 eh_catch.cc
00000000 l    df *ABS*	00000000 eh_term_handler.cc
00000000 l    df *ABS*	00000000 libgcc2.c
00000000 l    df *ABS*	00000000 lib2-divmod.c
0200cefc l     F .text	0000007c udivmodsi4
00000000 l    df *ABS*	00000000 lib2-mul.c
00000000 l    df *ABS*	00000000 unwind-sjlj.c
020162d8 l     O .bss	00000004 fc_static
0200d140 l     F .text	00000100 _Unwind_ForcedUnwind_Phase2
0200d258 l     F .text	000000cc _Unwind_RaiseException_Phase2
0200d324 l     F .text	00000028 uw_install_context
00000000 l    df *ABS*	00000000 libgcc2.c
00000000 l    df *ABS*	00000000 abort.c
00000000 l    df *ABS*	00000000 malloc.c
00000000 l    df *ABS*	00000000 mallocr.c
00000000 l    df *ABS*	00000000 memset.c
00000000 l    df *ABS*	00000000 sbrkr.c
00000000 l    df *ABS*	00000000 signal.c
00000000 l    df *ABS*	00000000 signalr.c
00000000 l    df *ABS*	00000000 mallocr.c
00000000 l    df *ABS*	00000000 impure.c
02012fc4 l     O .rwdata	00000400 impure_data
00000000 l    df *ABS*	00000000 int_errno.c
00000000 l    df *ABS*	00000000 alt_exit.c
0200e5e0 l     F .text	00000040 alt_sim_halt
00000000 l    df *ABS*	00000000 alt_getpid.c
00000000 l    df *ABS*	00000000 alt_kill.c
0200e7a0 l     F .text	00000060 alt_get_errno
00000000 l    df *ABS*	00000000 alt_load.c
0200e880 l     F .text	0000006c alt_load_section
00000000 l    df *ABS*	00000000 alt_main.c
00000000 l    df *ABS*	00000000 alt_malloc_lock.c
00000000 l    df *ABS*	00000000 alt_sbrk.c
02014700 l     O .rwdata	00000004 heap_end
00000000 l    df *ABS*	00000000 alt_tick.c
00000000 l    df *ABS*	00000000 alt_usleep.c
00000000 l    df *ABS*	00000000 alt_sys_init.c
020133c4 l     O .rwdata	000000c8 epcs
0201348c l     O .rwdata	00001060 jtag_uart
020144ec l     O .rwdata	0000002c uart_0
0200eccc l     F .text	00000038 alt_dev_reg
00000000 l    df *ABS*	00000000 altera_avalon_epcs_flash_controller.c
0200ed90 l     F .text	00000288 alt_epcs_flash_query
0200ed58 l     F .text	00000038 alt_flash_device_register
0200f018 l     F .text	00000108 alt_epcs_flash_memcmp
0200f4a0 l     F .text	00000094 alt_epcs_test_address
00000000 l    df *ABS*	00000000 altera_avalon_jtag_uart_fd.c
00000000 l    df *ABS*	00000000 altera_avalon_jtag_uart_init.c
0200f8e8 l     F .text	0000022c altera_avalon_jtag_uart_irq
0200fb14 l     F .text	000000b0 altera_avalon_jtag_uart_timeout
00000000 l    df *ABS*	00000000 altera_avalon_jtag_uart_ioctl.c
00000000 l    df *ABS*	00000000 altera_avalon_jtag_uart_read.c
00000000 l    df *ABS*	00000000 altera_avalon_jtag_uart_write.c
00000000 l    df *ABS*	00000000 altera_avalon_timer_sc.c
02010190 l     F .text	00000074 alt_avalon_timer_sc_irq
00000000 l    df *ABS*	00000000 altera_up_avalon_rs232.c
00000000 l    df *ABS*	00000000 epcs_commands.c
0201077c l     F .text	00000038 epcs_await_wip_released
020107b4 l     F .text	00000038 epcs_test_wip
00000000 l    df *ABS*	00000000 alt_alarm_start.c
00000000 l    df *ABS*	00000000 alt_busy_sleep.c
00000000 l    df *ABS*	00000000 alt_close.c
020110a8 l     F .text	00000060 alt_get_errno
00000000 l    df *ABS*	00000000 alt_dcache_flush_all.c
00000000 l    df *ABS*	00000000 alt_dev.c
02011124 l     F .text	0000002c alt_dev_null_write
00000000 l    df *ABS*	00000000 alt_dev_llist_insert.c
02011204 l     F .text	00000060 alt_get_errno
00000000 l    df *ABS*	00000000 alt_do_ctors.c
00000000 l    df *ABS*	00000000 alt_do_dtors.c
00000000 l    df *ABS*	00000000 alt_errno.c
00000000 l    df *ABS*	00000000 alt_find_dev.c
00000000 l    df *ABS*	00000000 alt_flash_dev.c
00000000 l    df *ABS*	00000000 alt_icache_flush_all.c
00000000 l    df *ABS*	00000000 alt_io_redirect.c
020114ac l     F .text	000000d8 alt_open_fd
00000000 l    df *ABS*	00000000 alt_irq_register.c
00000000 l    df *ABS*	00000000 alt_irq_vars.c
00000000 l    df *ABS*	00000000 alt_open.c
020117bc l     F .text	000000f8 alt_file_locked
02011a40 l     F .text	00000060 alt_get_errno
00000000 l    df *ABS*	00000000 alt_release_fd.c
00000000 l    df *ABS*	00000000 altera_nios2_irq.c
00000000 l    df *ABS*	00000000 altera_avalon_spi.c
00000000 l    df *ABS*	00000000 alt_find_file.c
00000000 l    df *ABS*	00000000 alt_get_fd.c
00000000 l    df *ABS*	00000000 atexit.c
00000000 l    df *ABS*	00000000 exit.c
00000000 l    df *ABS*	00000000 memcmp.c
00000000 l    df *ABS*	00000000 memcpy.c
00000000 l    df *ABS*	00000000 strlen.c
00000000 l    df *ABS*	00000000 __atexit.c
00000000 l    df *ABS*	00000000 __call_atexit.c
02012268 l     F .text	00000004 register_fini
02008dd0 g     F .text	00000138 _ZN24CMotorMeasurementMessage12parseMessageEPhi
0200c170 g     F .text	00000040 __cxa_free_exception
02007364 g     F .text	00000050 _ZN11CCarMessageD1Ev
02003670 g     F .text	00000178 _ZN15CADCInfoMessage13answerMessageEhPhS0_
0200c2ec g     F .text	00000008 _ZNKSt9type_info15__is_function_pEv
02000c58 g     F .text	000000c0 _Z12measureSpeedv
0200c578 g     F .text	00000018 _ZSt10unexpectedv
0200f3a0 g     F .text	00000090 alt_epcs_flash_get_info
020068e4 g     F .text	00000028 _ZN21CRemoteControlMessage8getBytesEPh
0201270c  w    O .rodata	00000015 _ZTS18CInfoSensorMessage
020127c8  w    O .rodata	0000000e _ZTS11CCarMessage
0200e8ec g     F .text	0000006c alt_main
020037e8 g     F .text	00000024 _ZN15CADCInfoMessage9getLengthEv
02006a08 g     F .text	00000058 _ZN21CRemoteControlMessageD1Ev
02009864 g     F .text	0000015c _ZN21CMotorVelocityMessageC1EPhi
02006930 g     F .text	00000080 _ZN21CRemoteControlMessage12parseMessageEPhi
02016b2c g     O .bss	00000100 alt_irq
02005d30 g     F .text	00000128 _ZN22CEmergencyBrakeMessageC1EPhi
02004b94 g     F .text	000000f8 _ZN26CAccelerationValuesMessage12parseMessageEPhi
020061c0 g     F .text	00000128 _ZN18CInfoSensorMessageC1EPhi
02012724  w    O .rodata	0000000c _ZTI18CInfoSensorMessage
0200d0f0 g     F .text	00000014 _Unwind_GetIPInfo
02014730 g       *ABS*	00000000 __flash_rwdata_start
020068a0 g     F .text	00000024 _ZN21CRemoteControlMessage13answerMessageEb
02012870  w    O .rodata	0000000c _ZTI21CMotorVelocityMessage
0200c7e4 g     F .text	00000718 __divdi3
0200c33c g     F .text	00000074 __cxa_rethrow
020127a0  w    O .rodata	0000000c _ZTI21CRemoteControlMessage
02005fc4 g     F .text	00000028 _ZN18CInfoSensorMessage8getBytesEPh
0200d090 g     F .text	0000000c _Unwind_SjLj_Unregister
0200c498 g     F .text	00000014 _ZSt14set_unexpectedPFvvE
02005ba8 g     F .text	00000058 _ZN22CEmergencyBrakeMessageD0Ev
02006578 g     F .text	00000058 _ZN17CInfoStateMessageD2Ev
0200d0e0 g     F .text	00000010 _Unwind_GetIP
02016dbc g       *ABS*	00000000 __alt_heap_start
0200e12c g     F .text	00000074 _kill_r
02006fc4 g     F .text	00000064 _ZN11CCarMessage9setHeaderEhhb
0200c5f0 g     F .text	00000010 _ZNSt9bad_allocD2Ev
02006410 g     F .text	00000024 _ZN17CInfoStateMessage13answerMessageEb
0200c074 g     F .text	00000034 _ZNK10__cxxabiv120__si_class_type_info20__do_find_public_srcElPKvPKNS_17__class_type_infoES2_
0200e06c g     F .text	000000a0 _signal_r
020146cc  w    O .rwdata	00000008 _ZTI12CCarProtocol
020095a8 g     F .text	00000020 _ZN21CMotorVelocityMessage8doActionEv
02005760 g     F .text	00000058 _ZN15CControlMessageD2Ev
0200452c g     F .text	00000058 _ZN17CADCValuesMessageD2Ev
020127ac  w    O .rodata	0000001c _ZTV11CCarMessage
0200c064 g     F .text	00000010 _ZN10__cxxabiv120__si_class_type_infoD2Ev
020129e0  w    O .rodata	00000025 _ZTSN10__cxxabiv120__si_class_type_infoE
0200e978 g     F .text	00000020 __malloc_unlock
020104c0 g     F .text	00000090 alt_up_rs232_read_fd
02005e58 g     F .text	00000128 _ZN22CEmergencyBrakeMessageC2EPhi
020073b4 g     F .text	00000050 _ZN11CCarMessageD2Ev
02012858  w    O .rodata	00000018 _ZTS21CMotorVelocityMessage
02007080 g     F .text	00000058 _ZN11CCarMessageC2Ehhb
0200980c g     F .text	00000058 _ZN21CMotorVelocityMessageD2Ev
0200c608 g     F .text	00000020 _ZSt18uncaught_exceptionv
0200647c g     F .text	00000024 _ZN17CInfoStateMessage9getLengthEv
02008c9c g     F .text	00000134 _ZN24CMotorMeasurementMessage8getBytesEPh
02007028 g     F .text	00000058 _ZN11CCarMessageC1Ehhb
02001ff4 g     F .text	00000070 _ZN13CPIControllerC2Ellll
02007404 g     F .text	000000c0 _ZN12CCarProtocolC2EtPP11CCarMessagem
02006778 g     F .text	00000128 _ZN17CInfoStateMessageC2EPhi
02005cb0 g     F .text	00000040 _ZN22CEmergencyBrakeMessageC1Ev
020127d8  w    O .rodata	00000010 _ZTV12CCarProtocol
02006e80 g     F .text	0000009c _ZN11CCarMessage8getBytesEPh
020016e4 g     F .text	0000013c _Z12controlSpeedv
0200bc38 g     F .text	00000010 _ZNSt9exceptionD2Ev
02000684 g     F .text	000000d4 _ZN16CEth_UART_Socket16ReceiveImmediateEPhm
02002f00 g     F .text	000000cc _Z20ADXL345_SPI_XYZ_ReadmPt
0200a3b4 g     F .text	00000150 _ZN26CUltrasoundDistanceMessageC1Ev
0200240c g     F .text	00000154 _Z8i2c_readmmPhb
02012730  w    O .rodata	0000001c _ZTV17CInfoStateMessage
02012628  w    O .rodata	0000001c _ZTV26CAccelerationValuesMessage
02003650 g     F .text	00000020 _ZN15CADCInfoMessage8doActionEv
02012900  w    O .rodata	00000014 _ZTVSt13bad_exception
0201283c  w    O .rodata	0000001c _ZTV21CMotorVelocityMessage
00000000  w      *UND*	00000000 __errno
02010684 g     F .text	000000f8 epcs_sector_erase
02009c74 g     F .text	00000158 _ZN21CMotorVelocityMessageC2Es
02000000 g     F .entry	0000000c __reset
0200d120 g     F .text	00000008 _Unwind_GetRegionStart
02009e60 g     F .text	00000094 _ZN26CUltrasoundDistanceMessage12parseMessageEPhi
02004368 g     F .text	00000114 _ZN17CADCValuesMessage8getBytesEPh
02000020 g       *ABS*	00000000 __flash_exceptions_start
02004584 g     F .text	0000015c _ZN17CADCValuesMessageC1EPhi
02006650 g     F .text	00000128 _ZN17CInfoStateMessageC1EPhi
0200bea8 g     F .text	00000100 _Znwm
020162e8 g     O .bss	00000004 errno
020162b4 g     O .bss	00000004 uiMaxSpeed
02007b34 g     F .text	00000120 _ZN12CCarProtocolD2Ev
020162a8 g     O .bss	00000004 uiAvailableOperations
0200d4f0 g     F .text	00000080 _Unwind_Backtrace
020095c8 g     F .text	00000024 _ZN21CMotorVelocityMessage9getLengthEv
02008f60 g     F .text	00000058 _ZN24CMotorMeasurementMessageD1Ev
020162f0 g     O .bss	00000004 alt_argv
0201c6c0 g       *ABS*	00000000 _gp
0200ebf8 g     F .text	00000030 usleep
0200e640 g     F .text	00000020 getpid
0200b5a8 g     F .text	00000180 __cxa_call_unexpected
0200c600 g     F .text	00000008 __cxa_get_exception_ptr
02007584 g     F .text	0000002c _ZN12CCarProtocol7isValidEv
02014540 g     O .rwdata	00000180 alt_fd_list
02005838 g     F .text	0000015c _ZN15CControlMessageC1EPhi
02005708 g     F .text	00000058 _ZN15CControlMessageD1Ev
0200d4a0 g     F .text	00000050 _Unwind_SjLj_ForcedUnwind
02010988 g     F .text	00000064 epcs_write_status_register
0200d0b4 g     F .text	00000014 _Unwind_GetCFA
0200c484 g     F .text	00000014 _ZSt13set_terminatePFvvE
02003c60 g     F .text	0000015c _ZN15CADCInfoMessageC1EPhi
0201132c g     F .text	00000094 alt_find_dev
02012020 g     F .text	000000a0 memcpy
02012898  w    O .rodata	0000001d _ZTS26CUltrasoundDistanceMessage
02011584 g     F .text	00000078 alt_io_redirect
020125a4 g       *ABS*	00000000 __DTOR_END__
0200bdac g     F .text	00000010 _ZN10__cxxabiv117__class_type_infoD1Ev
0200a698 g     F .text	000000d4 _ZN15CWelcomeMessage12parseMessageEPhi
0201044c g     F .text	00000074 alt_up_rs232_read_data
02011b18 g     F .text	00000020 altera_nios2_irq_init
0200f534 g     F .text	0000011c alt_epcs_flash_write_block
02002fcc g     F .text	000000d0 _Z16ADXL345_SPI_Initm
02006180 g     F .text	00000040 _ZN18CInfoSensorMessageC2Ev
02000618 g     F .text	00000020 _ZN16CEth_UART_SocketD2Ev
0200fd2c g     F .text	00000224 altera_avalon_jtag_uart_read
0200d5f4 g     F .text	00000014 malloc
02001328 g     F .text	000003bc _Z17waitForNextPacketv
0200d038 g     F .text	00000008 __udivsi3
0200de50 g     F .text	000000cc _raise_r
020128e0  w    O .rodata	00000012 _ZTS15CWelcomeMessage
02002560 g     F .text	00000120 _Z9i2c_writemmh
020162dc g     O .bss	00000004 __malloc_top_pad
0200345c g     F .text	00000048 _Z8SPI_ReadmhPh
0200e128 g     F .text	00000004 _getpid_r
02000658 g     F .text	0000002c _ZN16CEth_UART_Socket5ResetEv
0200a0fc g     F .text	0000015c _ZN26CUltrasoundDistanceMessageC1EPhi
020062e8 g     F .text	00000128 _ZN18CInfoSensorMessageC2EPhi
0200bdcc g     F .text	00000060 _ZNK10__cxxabiv117__class_type_info10__do_catchEPKSt9type_infoPPvj
0200dfa4 g     F .text	000000b4 __sigtramp_r
02008f08 g     F .text	00000058 _ZN24CMotorMeasurementMessageD0Ev
02003bb0 g     F .text	00000058 _ZN15CADCInfoMessageD1Ev
02003174 g     F .text	00000118 _Z8ADC_Readh
02006c94 g     F .text	0000015c _ZN21CRemoteControlMessageC2EPhi
02012644  w    O .rodata	0000001d _ZTS26CAccelerationValuesMessage
0200dde0 g     F .text	00000070 _sbrk_r
02012788  w    O .rodata	00000018 _ZTS21CRemoteControlMessage
020128b8  w    O .rodata	0000000c _ZTI26CUltrasoundDistanceMessage
0200a504 g     F .text	00000150 _ZN26CUltrasoundDistanceMessageC2Ev
02012a14  w    O .rodata	00000020 _ZTVSt9type_info
0200bc08 g     F .text	00000010 _ZNKSt9exception4whatEv
020044d4 g     F .text	00000058 _ZN17CADCValuesMessageD1Ev
0201471c g     O .rwdata	00000004 alt_max_fd
020103b4 g     F .text	00000050 alt_up_rs232_check_parity
02012a68  w    O .rodata	0000000c _ZTISt9bad_alloc
020162e0 g     O .bss	00000004 __malloc_max_sbrked_mem
02008c0c g     F .text	00000090 _ZN24CMotorMeasurementMessage13answerMessageEstsss
020115fc g     F .text	000001c0 alt_irq_register
02005af0 g     F .text	00000024 _ZN22CEmergencyBrakeMessage13answerMessageEb
02003608 g     F .text	00000048 _Z9SPI_Writemhh
02009ff4 g     F .text	00000058 _ZN26CUltrasoundDistanceMessageD0Ev
020020f4 g     F .text	00000020 _ZN13CPIControllerD1Ev
020092c8 g     F .text	00000170 _ZN24CMotorMeasurementMessageC1Ev
020129b4  w    O .rodata	0000002c _ZTVN10__cxxabiv120__si_class_type_infoE
0200f430 g     F .text	00000070 alt_epcs_flash_erase_block
0200be2c g     F .text	00000030 _ZNK10__cxxabiv117__class_type_info11__do_upcastEPKS0_PKvRNS0_15__upcast_resultE
0200bc9c g     F .text	0000000c _ZdlPv
020146fc g     O .rwdata	00000004 _global_impure_ptr
020057b8 g     F .text	00000040 _ZN15CControlMessageC1Ev
0200553c g     F .text	00000024 _ZN15CControlMessage13answerMessageEb
02012664  w    O .rodata	0000000c _ZTI26CAccelerationValuesMessage
02010ca0 g     F .text	00000058 epcs_exit_4_bytes_mode
02004200 g     F .text	00000064 _ZN17CADCValuesMessage13answerMessageEPhPt
02009010 g     F .text	0000015c _ZN24CMotorMeasurementMessageC1EPhi
02016dbc g       *ABS*	00000000 __bss_end
02004af4 g     F .text	0000007c _ZN26CAccelerationValuesMessage13answerMessageEsssh
0200eaec g     F .text	0000010c alt_tick
02012830  w    O .rodata	0000000c _ZTI24CMotorMeasurementMessage
0200d080 g     F .text	00000010 _Unwind_SjLj_Register
02004998 g     F .text	0000015c _ZN17CADCValuesMessageC2EPh
02001820 g     F .text	00000470 _Z11sendWelcomev
0200d5c8 g     F .text	00000018 abort
020126ac  w    O .rodata	0000001c _ZTV22CEmergencyBrakeMessage
02005fa4 g     F .text	00000020 _ZN18CInfoSensorMessage8doActionEv
0200c628 g     F .text	000000a4 __cxa_end_catch
02003f18 g     F .text	00000164 _ZN15CADCInfoMessageC1EPh
0200bc8c g     F .text	00000010 _ZNSt13bad_exceptionD2Ev
020078f4 g     F .text	00000120 _ZN12CCarProtocolD0Ev
020162a4 g     O .bss	00000001 bSPIReady
0200ea54 g     F .text	00000098 alt_alarm_stop
02016300 g     O .bss	00000004 alt_irq_active
0200c550 g     F .text	00000018 _ZSt9terminatev
0200a9fc g     F .text	000001b4 _ZN15CWelcomeMessageC1EhhhPh
02008fb8 g     F .text	00000058 _ZN24CMotorMeasurementMessageD2Ev
02007148 g     F .text	0000008c _ZN11CCarMessage11parseHeaderEPhi
02005580 g     F .text	00000028 _ZN15CControlMessage8getBytesEPh
020000ec g     F .exceptions	000000cc alt_irq_handler
02014518 g     O .rwdata	00000028 alt_dev_null
02006010 g     F .text	00000028 _ZN18CInfoSensorMessage12parseMessageEPhi
020125b0  w    O .rodata	0000001c _ZTV15CADCInfoMessage
02012984  w    O .rodata	00000022 _ZTSN10__cxxabiv117__class_type_infoE
02011108 g     F .text	0000001c alt_dcache_flush_all
02006af8 g     F .text	00000040 _ZN21CRemoteControlMessageC2Ev
020146d4  w    O .rwdata	00000008 _ZTISt9exception
02006f6c g     F .text	0000002c _ZN11CCarMessage10getSubTypeEv
020020d4 g     F .text	00000020 _ZN13CPIControllerD2Ev
020162ac g     O .bss	00000004 iCurrentSpeed
020060e8 g     F .text	00000058 _ZN18CInfoSensorMessageD2Ev
02014730 g       *ABS*	00000000 __ram_rwdata_end
02005b5c g     F .text	00000024 _ZN22CEmergencyBrakeMessage9getLengthEv
020022c4 g     F .text	00000048 _ZN13CPIController13getControllerEPlS0_
0200284c g     F .text	0000014c _Z17I2C_MultipleWritemmahPht
0200c31c g     F .text	00000010 _ZNSt9type_infoD1Ev
02014714 g     O .rwdata	00000008 alt_dev_list
020162d4 g     O .bss	00000004 __new_handler
02009ef4 g     F .text	000000bc _ZN26CUltrasoundDistanceMessage8getBytesEPh
0200c30c g     F .text	00000010 _ZNSt9type_infoD0Ev
02012bbc g       *ABS*	00000000 __ram_rodata_end
020074c4 g     F .text	000000c0 _ZN12CCarProtocolC1EtPP11CCarMessagem
02010550 g     F .text	00000094 alt_up_rs232_write_fd
02006e28 g     F .text	00000038 _ZN11CCarMessageC1Ev
0200e660 g     F .text	00000140 kill
02000e48 g     F .text	0000005c _Z17waitForEndOfCyclev
02009b1c g     F .text	00000158 _ZN21CMotorVelocityMessageC1Es
020055cc g     F .text	000000e4 _ZN15CControlMessage12parseMessageEPhi
02009fb0 g     F .text	00000044 _ZN26CUltrasoundDistanceMessage8doActionEv
0200d040 g     F .text	00000008 __umodsi3
0200c304 g     F .text	00000008 _ZNKSt9type_info11__do_upcastEPKN10__cxxabiv117__class_type_infoEPPv
02002e50 g     F .text	00000044 _Z18ADXL345_SPI_IdReadmPh
020127e8  w    O .rodata	0000000f _ZTS12CCarProtocol
02002c54 g     F .text	00000178 _Z15i2c_data_verifymmh
0200a654 g     F .text	00000020 _ZN15CWelcomeMessage8doActionEv
02010b5c g     F .text	0000006c epcs_read_electronic_signature
02016dbc g       *ABS*	00000000 end
02008b68 g     F .text	00000060 _ZN12CCarProtocolC2EPhi
0200a674 g     F .text	00000024 _ZN15CWelcomeMessage9getLengthEv
0200328c g     F .text	0000004c _Z8SPI_Initm
0201261c  w    O .rodata	0000000c _ZTI17CADCValuesMessage
02006434 g     F .text	00000020 _ZN17CInfoStateMessage8doActionEv
0200d240 g     F .text	00000018 _Unwind_DeleteException
02012608  w    O .rodata	00000014 _ZTS17CADCValuesMessage
0200f830 g     F .text	000000b8 altera_avalon_jtag_uart_init
02000e1c g     F .text	0000002c _Z14alarm_callbackPv
020125a0 g       *ABS*	00000000 __CTOR_LIST__
0200097c g     F .text	00000044 _ZN16CEth_UART_SocketC1Ev
04000000 g       *ABS*	00000000 __alt_stack_pointer
02010204 g     F .text	00000088 alt_avalon_timer_sc_init
0200bcec g     F .text	0000006c _ZNK10__cxxabiv117__class_type_info11__do_upcastEPKS0_PPv
0200ff50 g     F .text	00000240 altera_avalon_jtag_uart_write
02012928  w    O .rodata	00000012 _ZTSSt13bad_exception
0200e2cc g     F .text	00000314 _free_r
020146c4  w    O .rwdata	00000008 _ZTI11CCarMessage
0201226c g     F .text	000001b0 __call_exitprocs
02004288 g     F .text	000000e0 _ZN17CADCValuesMessage12parseMessageEPhi
02007660 g     F .text	00000060 _ZN12CCarProtocol13getNthMessageEm
02006f40 g     F .text	0000002c _ZN11CCarMessage7getTypeEv
020146f4 g     O .rwdata	00000004 __malloc_sbrk_base
020001b8 g     F .text	0000003c _start
020162f8 g     O .bss	00000004 _alt_tick_rate
020009c0 g     F .text	00000044 _ZN16CEth_UART_SocketC2Ev
02007c54 g     F .text	00000eb4 _ZN12CCarProtocol11parsePacketEPhi
020099c0 g     F .text	0000015c _ZN21CMotorVelocityMessageC2EPhi
02012a34  w    O .rodata	0000000d _ZTSSt9type_info
020046e0 g     F .text	0000015c _ZN17CADCValuesMessageC2EPhi
02011b38 g     F .text	00000238 alt_avalon_spi_command
02012a44  w    O .rodata	00000014 _ZTVSt9bad_alloc
020162fc g     O .bss	00000004 _alt_nticks
0200e10c g     F .text	0000001c signal
02006f1c g     F .text	00000024 _ZN11CCarMessage9getLengthEv
02005294 g     F .text	00000154 _ZN26CAccelerationValuesMessageC1Ev
0200ec5c g     F .text	00000070 alt_sys_init
02004c8c g     F .text	00000184 _ZN26CAccelerationValuesMessage8getBytesEPh
020162b0 g     O .bss	00000004 iDesiredSpeed
02012134 g     F .text	00000134 __register_exitproc
02012a58  w    O .rodata	0000000d _ZTSSt9bad_alloc
02006140 g     F .text	00000040 _ZN18CInfoSensorMessageC1Ev
020034a4 g     F .text	00000164 _Z17SPI_MultipleWritemhPhh
020076e8 g     F .text	0000020c _ZN12CCarProtocol8getBytesEPh
02010374 g     F .text	00000040 alt_up_rs232_get_available_space_in_write_FIFO
0201287c  w    O .rodata	0000001c _ZTV26CUltrasoundDistanceMessage
020041e0 g     F .text	00000020 _ZN17CADCValuesMessage8doActionEv
0200483c g     F .text	0000015c _ZN17CADCValuesMessageC1EPh
0200fbc4 g     F .text	00000074 altera_avalon_jtag_uart_close
02007314 g     F .text	00000050 _ZN11CCarMessageD0Ev
0200d048 g     F .text	00000038 __mulsi3
02012bbc g       *ABS*	00000000 __ram_rwdata_start
0200d3a8 g     F .text	000000f8 _Unwind_SjLj_RaiseException
020125a4 g       *ABS*	00000000 __ram_rodata_start
02000884 g     F .text	000000f8 _ZN16CEth_UART_Socket4SendEPhm
0200aec0 g     F .text	0000015c _ZN15CWelcomeMessageC2EPhi
02016b04 g     O .bss	00000028 __malloc_current_mallinfo
0200d34c g     F .text	0000005c _Unwind_SjLj_Resume
0200c32c g     F .text	00000010 _ZNSt9type_infoD2Ev
02010624 g     F .text	00000060 epcs_read_status_register
0200bfa8 g     F .text	00000078 _ZNK10__cxxabiv120__si_class_type_info11__do_upcastEPKNS_17__class_type_infoEPKvRNS1_15__upcast_resultE
02002680 g     F .text	000001cc _Z16I2C_MultipleReadmmahPht
0200f6e8 g     F .text	00000058 altera_avalon_jtag_uart_read_fd
02011e90 g     F .text	000000d0 alt_get_fd
0200916c g     F .text	0000015c _ZN24CMotorMeasurementMessageC2EPhi
02010e4c g     F .text	0000015c alt_busy_sleep
020053e8 g     F .text	00000154 _ZN26CAccelerationValuesMessageC2Ev
02005fec g     F .text	00000024 _ZN18CInfoSensorMessage9getLengthEv
02000638 g     F .text	00000020 _ZN16CEth_UART_SocketD1Ev
02010bc8 g     F .text	00000080 epcs_read_device_id
02011fac g     F .text	00000074 memcmp
020097b4 g     F .text	00000058 _ZN21CMotorVelocityMessageD1Ev
0200f798 g     F .text	00000048 altera_avalon_jtag_uart_close_fd
02016dbc g       *ABS*	00000000 __alt_stack_base
0200f7e0 g     F .text	00000050 altera_avalon_jtag_uart_ioctl_fd
02005994 g     F .text	0000015c _ZN15CControlMessageC2EPhi
0200c5ac g     F .text	00000034 _ZNSt9bad_allocD0Ev
0200c054 g     F .text	00000010 _ZN10__cxxabiv120__si_class_type_infoD1Ev
0200d570 g     F .text	00000058 _Unwind_SjLj_Resume_or_Rethrow
0200c2e4 g     F .text	00000008 _ZNKSt9type_info14__is_pointer_pEv
02012bbc g     O .rwdata	00000408 __malloc_av_
0200ad64 g     F .text	0000015c _ZN15CWelcomeMessageC1EPhi
02009634 g     F .text	00000094 _ZN21CMotorVelocityMessage12parseMessageEPhi
02012914  w    O .rodata	00000014 _ZTVSt9exception
020102e0 g     F .text	00000058 alt_up_rs232_disable_read_interrupt
02011d70 g     F .text	00000120 alt_find_file
0200bd58 g     F .text	00000020 _ZNK10__cxxabiv117__class_type_info20__do_find_public_srcElPKvPKS0_S2_
02011150 g     F .text	000000b4 alt_dev_llist_insert
0200e958 g     F .text	00000020 __malloc_lock
0200e998 g     F .text	000000bc sbrk
0200a9a4 g     F .text	00000058 _ZN15CWelcomeMessageD2Ev
02012958  w    O .rodata	0000002c _ZTVN10__cxxabiv117__class_type_infoE
0200c3b0 g     F .text	00000074 __cxa_throw
020071d4 g     F .text	00000058 _ZN11CCarMessageC1EPhi
0200d104 g     F .text	00000010 _Unwind_SetIP
02004ed4 g     F .text	00000058 _ZN26CAccelerationValuesMessageD0Ev
02002dcc g     F .text	00000084 _Z10I2C_Verifymmm
02006a60 g     F .text	00000058 _ZN21CRemoteControlMessageD2Ev
02005560 g     F .text	00000020 _ZN15CControlMessage8doActionEv
02008bc8 g     F .text	00000020 _ZN24CMotorMeasurementMessage8doActionEv
02014724 g     O .rwdata	00000008 alt_flash_dev_list
02005c58 g     F .text	00000058 _ZN22CEmergencyBrakeMessageD2Ev
0200a0a4 g     F .text	00000058 _ZN26CUltrasoundDistanceMessageD2Ev
020162a4 g       *ABS*	00000000 __bss_start
0200407c g     F .text	00000164 _ZN15CADCInfoMessageC2EPh
020127f8  w    O .rodata	0000001c _ZTV24CMotorMeasurementMessage
0200dd48 g     F .text	00000098 memset
02001dd8 g     F .text	000001e8 main
0200abb0 g     F .text	000001b4 _ZN15CWelcomeMessageC2EhhhPh
020162f4 g     O .bss	00000004 alt_envp
020162e4 g     O .bss	00000004 __malloc_max_total_mem
02005b14 g     F .text	00000020 _ZN22CEmergencyBrakeMessage8doActionEv
0200f740 g     F .text	00000058 altera_avalon_jtag_uart_write_fd
0200c590 g     F .text	00000008 __cxa_get_globals_fast
02000248 g     F .text	000000b0 _Z13swapEndianessPhm
020064c8 g     F .text	00000058 _ZN17CInfoStateMessageD0Ev
020126f0  w    O .rodata	0000001c _ZTV18CInfoSensorMessage
020076c0 g     F .text	00000028 _ZN12CCarProtocol15getMessageCountEv
020064a0 g     F .text	00000028 _ZN17CInfoStateMessage12parseMessageEPhi
04000000 g       *ABS*	00000000 __alt_heap_limit
020070d8 g     F .text	00000070 _ZN11CCarMessage9setHeaderEhhhb
02008be8 g     F .text	00000024 _ZN24CMotorMeasurementMessage9getLengthEv
02000758 g     F .text	0000012c _ZN16CEth_UART_Socket7ReceiveEPhmm
02016c2c g     O .bss	00000190 _atexit0
0200d608 g     F .text	00000740 _malloc_r
02014720 g     O .rwdata	00000004 alt_errno
02009e3c g     F .text	00000024 _ZN26CUltrasoundDistanceMessage9getLengthEv
0200df94 g     F .text	00000010 _init_signal
020129a8  w    O .rodata	0000000c _ZTIN10__cxxabiv117__class_type_infoE
0200722c g     F .text	00000058 _ZN11CCarMessageC2EPhi
0200bc7c g     F .text	00000010 _ZNSt13bad_exceptionD1Ev
020096c8 g     F .text	00000094 _ZN21CMotorVelocityMessage8getBytesEPh
02012760  w    O .rodata	0000000c _ZTI17CInfoStateMessage
020126c8  w    O .rodata	00000019 _ZTS22CEmergencyBrakeMessage
0200cf78 g     F .text	00000060 __divsi3
0200e1a0 g     F .text	0000012c _malloc_trim_r
02012814  w    O .rodata	0000001b _ZTS24CMotorMeasurementMessage
020125a4 g       *ABS*	00000000 __CTOR_END__
0200a8f4 g     F .text	00000058 _ZN15CWelcomeMessageD0Ev
0200a76c g     F .text	000000ac _ZN15CWelcomeMessage13answerMessageEh
0200f120 g     F .text	00000280 alt_epcs_flash_write
020125a4 g       *ABS*	00000000 __flash_rodata_start
020125a4 g       *ABS*	00000000 __DTOR_LIST__
020105e4 g     F .text	00000040 alt_up_rs232_open_dev
020128c4  w    O .rodata	0000001c _ZTV15CWelcomeMessage
020125cc  w    O .rodata	00000012 _ZTS15CADCInfoMessage
020069b0 g     F .text	00000058 _ZN21CRemoteControlMessageD0Ev
0200ec28 g     F .text	00000034 alt_irq_init
02011aa0 g     F .text	00000078 alt_release_fd
0200c020 g     F .text	00000034 _ZN10__cxxabiv120__si_class_type_infoD0Ev
02012a74 g     O .rodata	00000100 __clz_tab
02004264 g     F .text	00000024 _ZN17CADCValuesMessage9getLengthEv
02005b34 g     F .text	00000028 _ZN22CEmergencyBrakeMessage8getBytesEPh
02011f60 g     F .text	00000014 atexit
02002998 g     F .text	00000174 _Z8I2C_ReadmmahPh
02000b98 g     F .text	000000c0 _Z22measureSpeedUnblockingv
02006ab8 g     F .text	00000040 _ZN21CRemoteControlMessageC1Ev
0200d138 g     F .text	00000008 _Unwind_GetTextRelBase
0200bca8 g     F .text	00000044 __cxa_call_terminate
02000ea4 g     F .text	00000484 _Z17setUpPIControllerv
02005c00 g     F .text	00000058 _ZN22CEmergencyBrakeMessageD1Ev
020146f8 g     O .rwdata	00000004 _impure_ptr
02000a04 g     F .text	00000104 _Z13motor_settingmmmmmm
020162ec g     O .bss	00000004 alt_argc
02008b08 g     F .text	00000060 _ZN12CCarProtocolC1EPhi
02007a14 g     F .text	00000120 _ZN12CCarProtocolD1Ev
020112c8 g     F .text	00000064 _do_dtors
020125e0  w    O .rodata	0000000c _ZTI15CADCInfoMessage
02006090 g     F .text	00000058 _ZN18CInfoSensorMessageD1Ev
020001f4 g     F .text	00000054 _Z5delayj
02003b58 g     F .text	00000058 _ZN15CADCInfoMessageD0Ev
02000020 g       .exceptions	00000000 alt_irq_entry
020095ec g     F .text	00000048 _ZN21CMotorVelocityMessage13answerMessageEs
0200975c g     F .text	00000058 _ZN21CMotorVelocityMessageD0Ev
02000414 g     F .text	00000204 _Z15ReadADCChannelsPhhPm
0200d128 g     F .text	00000008 _Unwind_FindEnclosingFunction
020065d0 g     F .text	00000040 _ZN17CInfoStateMessageC1Ev
02006b38 g     F .text	0000015c _ZN21CRemoteControlMessageC1EPhi
02000b08 g     F .text	00000090 _Z8setSpeedl
0201470c g     O .rwdata	00000008 alt_fs_list
02006610 g     F .text	00000040 _ZN17CInfoStateMessageC2Ev
0201028c g     F .text	00000054 alt_up_rs232_enable_read_interrupt
020068c4 g     F .text	00000020 _ZN21CRemoteControlMessage8doActionEv
0200d114 g     F .text	0000000c _Unwind_GetLanguageSpecificData
02010404 g     F .text	00000048 alt_up_rs232_write_data
0200c6cc g     F .text	00000118 __cxa_begin_catch
0200bdbc g     F .text	00000010 _ZN10__cxxabiv117__class_type_infoD2Ev
0200c568 g     F .text	00000010 _ZN10__cxxabiv112__unexpectedEPFvvE
02003c08 g     F .text	00000058 _ZN15CADCInfoMessageD2Ev
0200a94c g     F .text	00000058 _ZN15CWelcomeMessageD1Ev
02002284 g     F .text	00000040 _ZN13CPIController16changeControllerEll
02000020 g       *ABS*	00000000 __ram_exceptions_start
020162c4 g     O .bss	00000001 bCycleFinished
020107ec g     F .text	0000014c epcs_read_buffer
0200bc48 g     F .text	00000034 _ZNSt13bad_exceptionD0Ev
0200ed04 g     F .text	00000054 alt_epcs_flash_init
020146ec g     O .rwdata	00000004 _ZN10__cxxabiv119__terminate_handlerE
02005cf0 g     F .text	00000040 _ZN22CEmergencyBrakeMessageC2Ev
02001fc0  w    F .text	00000034 _ZNK21CMotorVelocityMessage16getIDesiredSpeedEv
0200c1b0 g     F .text	00000134 __cxa_allocate_exception
02012a08  w    O .rodata	0000000c _ZTIN10__cxxabiv120__si_class_type_infoE
0200c5a0 g     F .text	0000000c _ZSt15set_new_handlerPFvvE
02014730 g       *ABS*	00000000 _edata
02016dbc g       *ABS*	00000000 _end
020146e8 g     O .rwdata	00000001 _ZSt7nothrow
02004fdc g     F .text	0000015c _ZN26CAccelerationValuesMessageC1EPhi
020113c0 g     F .text	0000007c alt_flash_open_dev
0200b728 g     F .text	000004e0 __gxx_personality_sj0
0200a04c g     F .text	00000058 _ZN26CUltrasoundDistanceMessageD1Ev
020001b8 g       *ABS*	00000000 __ram_exceptions_end
0200a258 g     F .text	0000015c _ZN26CUltrasoundDistanceMessageC2EPhi
0200fc38 g     F .text	000000f4 altera_avalon_jtag_uart_ioctl
02006520 g     F .text	00000058 _ZN17CInfoStateMessageD1Ev
0200be5c g     F .text	0000004c _ZNK10__cxxabiv117__class_type_info12__do_dyncastElNS0_10__sub_kindEPKS0_PKvS3_S5_RNS0_16__dyncast_resultE
0200bc28 g     F .text	00000010 _ZNSt9exceptionD1Ev
02010c48 g     F .text	00000058 epcs_enter_4_bytes_mode
020162c0 g     O .bss	00000004 pProtocol
020146f0 g     O .rwdata	00000004 __malloc_trim_threshold
02011f74 g     F .text	00000038 exit
0200d0c8 g     F .text	00000018 _Unwind_SetGR
0201143c g     F .text	00000054 alt_flash_close_dev
0200c4ac g     F .text	000000a4 _ZN10__cxxabiv111__terminateEPFvvE
02002064 g     F .text	00000070 _ZN13CPIControllerC1Ellll
0200cfd8 g     F .text	00000060 __modsi3
0200447c g     F .text	00000058 _ZN17CADCValuesMessageD0Ev
0200c5e0 g     F .text	00000010 _ZNSt9bad_allocD1Ev
02005b80 g     F .text	00000028 _ZN22CEmergencyBrakeMessage12parseMessageEPhi
02001c90 g     F .text	00000148 _Z4initv
04000000 g       *ABS*	00000000 __alt_data_end
02000020 g     F .exceptions	00000000 alt_exception
02002384 g     F .text	00000088 _Z9i2c_startmm
0200c0a8 g     F .text	000000c8 _ZNK10__cxxabiv120__si_class_type_info12__do_dyncastElNS_17__class_type_info10__sub_kindEPKS1_PKvS4_S6_RNS1_16__dyncast_resultE
020162bc g     O .bss	00000004 pSocket
0201293c  w    O .rodata	0000000c _ZTISt13bad_exception
02000000 g       *ABS*	00000000 __alt_mem_sdram
02004b70 g     F .text	00000024 _ZN26CAccelerationValuesMessage9getLengthEv
02002114 g     F .text	00000170 _ZN13CPIController7controlEl
02002e94 g     F .text	0000006c _Z23ADXL345_SPI_IsDataReadym
02006df0 g     F .text	00000038 _ZN11CCarMessageC2Ev
02009438 g     F .text	00000170 _ZN24CMotorMeasurementMessageC2Ev
02004e10 g     F .text	000000c4 _ZN26CAccelerationValuesMessage8doActionEv
020125ec  w    O .rodata	0000001c _ZTV17CADCValuesMessage
02006f98 g     F .text	0000002c _ZN11CCarMessage7isValidEv
02006e60 g     F .text	00000020 _ZN11CCarMessage8doActionEv
020162b8 g     O .bss	00000004 pController
0200a818 g     F .text	000000dc _ZN15CWelcomeMessage8getBytesEPh
0200e620 g     F .text	00000020 _exit
0201276c  w    O .rodata	0000001c _ZTV21CRemoteControlMessage
02010cf8 g     F .text	00000154 alt_alarm_start
020146c0 g     O .rwdata	00000004 pLED
02005f80 g     F .text	00000024 _ZN18CInfoSensorMessage13answerMessageEb
020055a8 g     F .text	00000024 _ZN15CControlMessage9getLengthEv
02007284 g     F .text	00000090 _ZN11CCarMessage19writeHeaderToBufferEPhi
0200d09c g     F .text	00000018 _Unwind_GetGR
0200c598 g     F .text	00000008 __cxa_get_globals
02006038 g     F .text	00000058 _ZN18CInfoSensorMessageD0Ev
020146e4 g     O .rwdata	00000004 _ZN10__cxxabiv120__unexpected_handlerE
020032d8 g     F .text	00000184 _Z16SPI_MultipleReadmhPhh
0201268c  w    O .rodata	00000012 _ZTS15CControlMessage
020002f8 g     F .text	0000011c _Z15getAccelerationPs
020120c0 g     F .text	00000074 strlen
02010938 g     F .text	00000050 epcs_write_enable
02003dbc g     F .text	0000015c _ZN15CADCInfoMessageC2EPhi
0200df30 g     F .text	00000064 _init_signal_r
020146dc  w    O .rwdata	00000008 _ZTISt9type_info
020118b4 g     F .text	0000018c open
02012948  w    O .rodata	0000000d _ZTSSt9exception
02009dcc g     F .text	00000070 _ZN26CUltrasoundDistanceMessage13answerMessageEl
02004f2c g     F .text	00000058 _ZN26CAccelerationValuesMessageD1Ev
020056b0 g     F .text	00000058 _ZN15CControlMessageD0Ev
0200399c g     F .text	000001bc _ZN15CADCInfoMessage8getBytesEPh
0200bc18 g     F .text	00000010 _ZNSt9exceptionD0Ev
02011490 g     F .text	0000001c alt_icache_flush_all
02002b0c g     F .text	00000148 _Z9I2C_Writemmahh
0200d130 g     F .text	00000008 _Unwind_GetDataRelBase
02012670  w    O .rodata	0000001c _ZTV15CControlMessage
0201472c g     O .rwdata	00000004 alt_priority_mask
04000000 g       *ABS*	00000000 __alt_mem_epcs
0200309c g     F .text	000000d8 _Z25ADXL345_SPI_WaitDataReadym
02000d18 g     F .text	00000104 _Z15measuredistancem
0200230c g     F .text	00000078 _Z8i2c_stopmm
02004f84 g     F .text	00000058 _ZN26CAccelerationValuesMessageD2Ev
0200f650 g     F .text	00000098 alt_epcs_flash_read
020128f4  w    O .rodata	0000000c _ZTI15CWelcomeMessage
02014704 g     O .rwdata	00000008 alt_alarm_list
02011264 g     F .text	00000064 _do_ctors
0200e058 g     F .text	00000014 __sigtramp
020057f8 g     F .text	00000040 _ZN15CControlMessageC2Ev
02010338 g     F .text	0000003c alt_up_rs232_get_used_space_in_read_FIFO
02010fa8 g     F .text	00000100 close
020126a0  w    O .rodata	0000000c _ZTI15CControlMessage
02006454 g     F .text	00000028 _ZN17CInfoStateMessage8getBytesEPh
0200380c g     F .text	00000190 _ZN15CADCInfoMessage12parseMessageEPhi
0200e800 g     F .text	00000080 alt_load
020075b0 g     F .text	000000b0 _ZN12CCarProtocol9getLengthEv
0200c2f4 g     F .text	00000010 _ZNKSt9type_info10__do_catchEPKS_PPvj
0200df1c g     F .text	00000014 raise
0201274c  w    O .rodata	00000014 _ZTS17CInfoStateMessage
02005138 g     F .text	0000015c _ZN26CAccelerationValuesMessageC2EPhi
0200d5e0 g     F .text	00000014 free
020109ec g     F .text	00000170 epcs_write_buffer
0200bd78 g     F .text	00000034 _ZN10__cxxabiv117__class_type_infoD0Ev
0200690c g     F .text	00000024 _ZN21CRemoteControlMessage9getLengthEv
020126e4  w    O .rodata	0000000c _ZTI22CEmergencyBrakeMessage



Disassembly of section .entry:

02000000 <__reset>:
 2000000:	00408034 	movhi	at,512
 2000004:	08406e14 	ori	at,at,440
 2000008:	0800683a 	jmp	at
	...

Disassembly of section .exceptions:

02000020 <alt_exception>:
 2000020:	deffed04 	addi	sp,sp,-76
 2000024:	dfc00015 	stw	ra,0(sp)
 2000028:	d8400215 	stw	at,8(sp)
 200002c:	d8800315 	stw	r2,12(sp)
 2000030:	d8c00415 	stw	r3,16(sp)
 2000034:	d9000515 	stw	r4,20(sp)
 2000038:	d9400615 	stw	r5,24(sp)
 200003c:	d9800715 	stw	r6,28(sp)
 2000040:	d9c00815 	stw	r7,32(sp)
 2000044:	000b307a 	rdctl	r5,estatus
 2000048:	da000915 	stw	r8,36(sp)
 200004c:	da400a15 	stw	r9,40(sp)
 2000050:	da800b15 	stw	r10,44(sp)
 2000054:	dac00c15 	stw	r11,48(sp)
 2000058:	db000d15 	stw	r12,52(sp)
 200005c:	db400e15 	stw	r13,56(sp)
 2000060:	db800f15 	stw	r14,60(sp)
 2000064:	dbc01015 	stw	r15,64(sp)
 2000068:	d9401115 	stw	r5,68(sp)
 200006c:	ebffff04 	addi	r15,ea,-4
 2000070:	dbc01215 	stw	r15,72(sp)
 2000074:	0009313a 	rdctl	r4,ipending
 2000078:	2880004c 	andi	r2,r5,1
 200007c:	10000326 	beq	r2,zero,200008c <alt_exception+0x6c>
 2000080:	20000226 	beq	r4,zero,200008c <alt_exception+0x6c>
 2000084:	20000ec0 	call	20000ec <alt_irq_handler>
 2000088:	00000306 	br	2000098 <alt_exception+0x78>
 200008c:	df401215 	stw	ea,72(sp)
 2000090:	e8bfff17 	ldw	r2,-4(ea)
 2000094:	003da03a 	break	0
 2000098:	d9401117 	ldw	r5,68(sp)
 200009c:	df401217 	ldw	ea,72(sp)
 20000a0:	dfc00017 	ldw	ra,0(sp)
 20000a4:	2801707a 	wrctl	estatus,r5
 20000a8:	d8400217 	ldw	at,8(sp)
 20000ac:	d8800317 	ldw	r2,12(sp)
 20000b0:	d8c00417 	ldw	r3,16(sp)
 20000b4:	d9000517 	ldw	r4,20(sp)
 20000b8:	d9400617 	ldw	r5,24(sp)
 20000bc:	d9800717 	ldw	r6,28(sp)
 20000c0:	d9c00817 	ldw	r7,32(sp)
 20000c4:	da000917 	ldw	r8,36(sp)
 20000c8:	da400a17 	ldw	r9,40(sp)
 20000cc:	da800b17 	ldw	r10,44(sp)
 20000d0:	dac00c17 	ldw	r11,48(sp)
 20000d4:	db000d17 	ldw	r12,52(sp)
 20000d8:	db400e17 	ldw	r13,56(sp)
 20000dc:	db800f17 	ldw	r14,60(sp)
 20000e0:	dbc01017 	ldw	r15,64(sp)
 20000e4:	dec01304 	addi	sp,sp,76
 20000e8:	ef80083a 	eret

020000ec <alt_irq_handler>:
 20000ec:	defff904 	addi	sp,sp,-28
 20000f0:	dfc00615 	stw	ra,24(sp)
 20000f4:	df000515 	stw	fp,20(sp)
 20000f8:	df000504 	addi	fp,sp,20
 20000fc:	0005313a 	rdctl	r2,ipending
 2000100:	e0bffc15 	stw	r2,-16(fp)
 2000104:	e0bffc17 	ldw	r2,-16(fp)
 2000108:	e0bfff15 	stw	r2,-4(fp)
 200010c:	e03ffd15 	stw	zero,-12(fp)
 2000110:	00800044 	movi	r2,1
 2000114:	e0bffe15 	stw	r2,-8(fp)
 2000118:	e0ffff17 	ldw	r3,-4(fp)
 200011c:	e0bffe17 	ldw	r2,-8(fp)
 2000120:	1884703a 	and	r2,r3,r2
 2000124:	1005003a 	cmpeq	r2,r2,zero
 2000128:	1000171e 	bne	r2,zero,2000188 <alt_irq_handler+0x9c>
 200012c:	e0bffd17 	ldw	r2,-12(fp)
 2000130:	00c08074 	movhi	r3,513
 2000134:	18dacb04 	addi	r3,r3,27436
 2000138:	100490fa 	slli	r2,r2,3
 200013c:	10c5883a 	add	r2,r2,r3
 2000140:	11800017 	ldw	r6,0(r2)
 2000144:	e0bffd17 	ldw	r2,-12(fp)
 2000148:	00c08074 	movhi	r3,513
 200014c:	18dacb04 	addi	r3,r3,27436
 2000150:	100490fa 	slli	r2,r2,3
 2000154:	10c5883a 	add	r2,r2,r3
 2000158:	10800104 	addi	r2,r2,4
 200015c:	11000017 	ldw	r4,0(r2)
 2000160:	e17ffd17 	ldw	r5,-12(fp)
 2000164:	303ee83a 	callr	r6
 2000168:	0005313a 	rdctl	r2,ipending
 200016c:	e0bffb15 	stw	r2,-20(fp)
 2000170:	e0bffb17 	ldw	r2,-20(fp)
 2000174:	e0bfff15 	stw	r2,-4(fp)
 2000178:	e0bfff17 	ldw	r2,-4(fp)
 200017c:	1004c03a 	cmpne	r2,r2,zero
 2000180:	103fe21e 	bne	r2,zero,200010c <alt_irq_handler+0x20>
 2000184:	00000706 	br	20001a4 <alt_irq_handler+0xb8>
 2000188:	e0bffe17 	ldw	r2,-8(fp)
 200018c:	1085883a 	add	r2,r2,r2
 2000190:	e0bffe15 	stw	r2,-8(fp)
 2000194:	e0bffd17 	ldw	r2,-12(fp)
 2000198:	10800044 	addi	r2,r2,1
 200019c:	e0bffd15 	stw	r2,-12(fp)
 20001a0:	003fdd06 	br	2000118 <alt_irq_handler+0x2c>
 20001a4:	e037883a 	mov	sp,fp
 20001a8:	dfc00117 	ldw	ra,4(sp)
 20001ac:	df000017 	ldw	fp,0(sp)
 20001b0:	dec00204 	addi	sp,sp,8
 20001b4:	f800283a 	ret

Disassembly of section .text:

020001b8 <_start>:
 20001b8:	06c10034 	movhi	sp,1024
 20001bc:	dec00014 	ori	sp,sp,0
 20001c0:	06808074 	movhi	gp,513
 20001c4:	d6b1b014 	ori	gp,gp,50880
 20001c8:	00808074 	movhi	r2,513
 20001cc:	1098a914 	ori	r2,r2,25252
 20001d0:	00c08074 	movhi	r3,513
 20001d4:	18db6f14 	ori	r3,r3,28092
 20001d8:	10c00326 	beq	r2,r3,20001e8 <_start+0x30>
 20001dc:	10000015 	stw	zero,0(r2)
 20001e0:	10800104 	addi	r2,r2,4
 20001e4:	10fffd36 	bltu	r2,r3,20001dc <_start+0x24>
 20001e8:	200e8000 	call	200e800 <alt_load>
 20001ec:	200e8ec0 	call	200e8ec <alt_main>

020001f0 <alt_after_alt_main>:
 20001f0:	003fff06 	br	20001f0 <alt_after_alt_main>

020001f4 <_Z5delayj>:
 */

#include "utility.h"


void delay (unsigned int seconds)
 20001f4:	defffd04 	addi	sp,sp,-12
 20001f8:	dfc00215 	stw	ra,8(sp)
 20001fc:	df000115 	stw	fp,4(sp)
 2000200:	df000104 	addi	fp,sp,4
 2000204:	e13fff15 	stw	r4,-4(fp)
{
	// TODO: is this even accurate?
	seconds *= 444;
 2000208:	e13fff17 	ldw	r4,-4(fp)
 200020c:	01406f04 	movi	r5,444
 2000210:	200d0480 	call	200d048 <__mulsi3>
 2000214:	e0bfff15 	stw	r2,-4(fp)

	while (seconds != 0)
 2000218:	00000306 	br	2000228 <_Z5delayj+0x34>
	{
		seconds --;
 200021c:	e0bfff17 	ldw	r2,-4(fp)
 2000220:	10bfffc4 	addi	r2,r2,-1
 2000224:	e0bfff15 	stw	r2,-4(fp)
void delay (unsigned int seconds)
{
	// TODO: is this even accurate?
	seconds *= 444;

	while (seconds != 0)
 2000228:	e0bfff17 	ldw	r2,-4(fp)
 200022c:	1004c03a 	cmpne	r2,r2,zero
 2000230:	103ffa1e 	bne	r2,zero,200021c <_Z5delayj+0x28>
	{
		seconds --;
	}
}
 2000234:	e037883a 	mov	sp,fp
 2000238:	dfc00117 	ldw	ra,4(sp)
 200023c:	df000017 	ldw	fp,0(sp)
 2000240:	dec00204 	addi	sp,sp,8
 2000244:	f800283a 	ret

02000248 <_Z13swapEndianessPhm>:

void swapEndianess(alt_u8 *pArray, alt_u32 iLength)
 2000248:	defffa04 	addi	sp,sp,-24
 200024c:	df000515 	stw	fp,20(sp)
 2000250:	df000504 	addi	fp,sp,20
 2000254:	e13ffe15 	stw	r4,-8(fp)
 2000258:	e17fff15 	stw	r5,-4(fp)
{
	alt_u8 buffer;
	alt_u32 middle = iLength / 2;
 200025c:	e0bfff17 	ldw	r2,-4(fp)
 2000260:	1004d07a 	srli	r2,r2,1
 2000264:	e0bffc15 	stw	r2,-16(fp)

	iLength--;
 2000268:	e0bfff17 	ldw	r2,-4(fp)
 200026c:	10bfffc4 	addi	r2,r2,-1
 2000270:	e0bfff15 	stw	r2,-4(fp)
	for(alt_u32 i = 0; i < middle; )
 2000274:	e03ffb15 	stw	zero,-20(fp)
 2000278:	00001806 	br	20002dc <_Z13swapEndianessPhm+0x94>
	{
		buffer = pArray[i];
 200027c:	e0fffb17 	ldw	r3,-20(fp)
 2000280:	e0bffe17 	ldw	r2,-8(fp)
 2000284:	1885883a 	add	r2,r3,r2
 2000288:	10800003 	ldbu	r2,0(r2)
 200028c:	e0bffd05 	stb	r2,-12(fp)
		pArray[i] = pArray[iLength];
 2000290:	e0fffb17 	ldw	r3,-20(fp)
 2000294:	e0bffe17 	ldw	r2,-8(fp)
 2000298:	1889883a 	add	r4,r3,r2
 200029c:	e0ffff17 	ldw	r3,-4(fp)
 20002a0:	e0bffe17 	ldw	r2,-8(fp)
 20002a4:	1885883a 	add	r2,r3,r2
 20002a8:	10800003 	ldbu	r2,0(r2)
 20002ac:	20800005 	stb	r2,0(r4)
		pArray[iLength] = buffer;
 20002b0:	e0ffff17 	ldw	r3,-4(fp)
 20002b4:	e0bffe17 	ldw	r2,-8(fp)
 20002b8:	1887883a 	add	r3,r3,r2
 20002bc:	e0bffd03 	ldbu	r2,-12(fp)
 20002c0:	18800005 	stb	r2,0(r3)
		i++;
 20002c4:	e0bffb17 	ldw	r2,-20(fp)
 20002c8:	10800044 	addi	r2,r2,1
 20002cc:	e0bffb15 	stw	r2,-20(fp)
		iLength--;
 20002d0:	e0bfff17 	ldw	r2,-4(fp)
 20002d4:	10bfffc4 	addi	r2,r2,-1
 20002d8:	e0bfff15 	stw	r2,-4(fp)
{
	alt_u8 buffer;
	alt_u32 middle = iLength / 2;

	iLength--;
	for(alt_u32 i = 0; i < middle; )
 20002dc:	e0fffb17 	ldw	r3,-20(fp)
 20002e0:	e0bffc17 	ldw	r2,-16(fp)
 20002e4:	18bfe536 	bltu	r3,r2,200027c <_Z13swapEndianessPhm+0x34>
		pArray[i] = pArray[iLength];
		pArray[iLength] = buffer;
		i++;
		iLength--;
	}
}
 20002e8:	e037883a 	mov	sp,fp
 20002ec:	df000017 	ldw	fp,0(sp)
 20002f0:	dec00104 	addi	sp,sp,4
 20002f4:	f800283a 	ret

020002f8 <_Z15getAccelerationPs>:
#include "accelerometer_interface.h"

// Local variables:
bool bSPIReady = false;

bool getAcceleration(alt_16 *iXYZ)
 20002f8:	defffc04 	addi	sp,sp,-16
 20002fc:	dfc00315 	stw	ra,12(sp)
 2000300:	df000215 	stw	fp,8(sp)
 2000304:	df000204 	addi	fp,sp,8
 2000308:	e13fff15 	stw	r4,-4(fp)
{
	bool bSuccess = false;
 200030c:	e03ffe05 	stb	zero,-8(fp)

	if(!bSPIReady)
 2000310:	d0a6f903 	ldbu	r2,-25628(gp)
 2000314:	1080005c 	xori	r2,r2,1
 2000318:	10803fcc 	andi	r2,r2,255
 200031c:	1005003a 	cmpeq	r2,r2,zero
 2000320:	1000041e 	bne	r2,zero,2000334 <_Z15getAccelerationPs+0x3c>
		bSPIReady = ADXL345_SPI_Init(GSENSOR_SPI_BASE);
 2000324:	01010034 	movhi	r4,1024
 2000328:	21020004 	addi	r4,r4,2048
 200032c:	2002fcc0 	call	2002fcc <_Z16ADXL345_SPI_Initm>
 2000330:	d0a6f905 	stb	r2,-25628(gp)

	if(bSPIReady)
 2000334:	d0a6f903 	ldbu	r2,-25628(gp)
 2000338:	10803fcc 	andi	r2,r2,255
 200033c:	1005003a 	cmpeq	r2,r2,zero
 2000340:	10002e1e 	bne	r2,zero,20003fc <_Z15getAccelerationPs+0x104>
	{
		if (ADXL345_SPI_IsDataReady(GSENSOR_SPI_BASE))
 2000344:	01010034 	movhi	r4,1024
 2000348:	21020004 	addi	r4,r4,2048
 200034c:	2002e940 	call	2002e94 <_Z23ADXL345_SPI_IsDataReadym>
 2000350:	10803fcc 	andi	r2,r2,255
 2000354:	1005003a 	cmpeq	r2,r2,zero
 2000358:	1000281e 	bne	r2,zero,20003fc <_Z15getAccelerationPs+0x104>
		{
			bSuccess = ADXL345_SPI_XYZ_Read(GSENSOR_SPI_BASE, (unsigned short*) iXYZ);
 200035c:	e17fff17 	ldw	r5,-4(fp)
 2000360:	01010034 	movhi	r4,1024
 2000364:	21020004 	addi	r4,r4,2048
 2000368:	2002f000 	call	2002f00 <_Z20ADXL345_SPI_XYZ_ReadmPt>
 200036c:	e0bffe05 	stb	r2,-8(fp)

			if (bSuccess)
 2000370:	e0bffe03 	ldbu	r2,-8(fp)
 2000374:	1005003a 	cmpeq	r2,r2,zero
 2000378:	1000201e 	bne	r2,zero,20003fc <_Z15getAccelerationPs+0x104>
			{
				iXYZ[0]*=4; iXYZ[1]*=4; iXYZ[2]*=4;
 200037c:	e0bfff17 	ldw	r2,-4(fp)
 2000380:	1080000b 	ldhu	r2,0(r2)
 2000384:	10bfffcc 	andi	r2,r2,65535
 2000388:	10a0001c 	xori	r2,r2,32768
 200038c:	10a00004 	addi	r2,r2,-32768
 2000390:	1085883a 	add	r2,r2,r2
 2000394:	1085883a 	add	r2,r2,r2
 2000398:	1007883a 	mov	r3,r2
 200039c:	e0bfff17 	ldw	r2,-4(fp)
 20003a0:	10c0000d 	sth	r3,0(r2)
 20003a4:	e0bfff17 	ldw	r2,-4(fp)
 20003a8:	10c00084 	addi	r3,r2,2
 20003ac:	e0bfff17 	ldw	r2,-4(fp)
 20003b0:	10800084 	addi	r2,r2,2
 20003b4:	1080000b 	ldhu	r2,0(r2)
 20003b8:	10bfffcc 	andi	r2,r2,65535
 20003bc:	10a0001c 	xori	r2,r2,32768
 20003c0:	10a00004 	addi	r2,r2,-32768
 20003c4:	1085883a 	add	r2,r2,r2
 20003c8:	1085883a 	add	r2,r2,r2
 20003cc:	1880000d 	sth	r2,0(r3)
 20003d0:	e0bfff17 	ldw	r2,-4(fp)
 20003d4:	10c00104 	addi	r3,r2,4
 20003d8:	e0bfff17 	ldw	r2,-4(fp)
 20003dc:	10800104 	addi	r2,r2,4
 20003e0:	1080000b 	ldhu	r2,0(r2)
 20003e4:	10bfffcc 	andi	r2,r2,65535
 20003e8:	10a0001c 	xori	r2,r2,32768
 20003ec:	10a00004 	addi	r2,r2,-32768
 20003f0:	1085883a 	add	r2,r2,r2
 20003f4:	1085883a 	add	r2,r2,r2
 20003f8:	1880000d 	sth	r2,0(r3)
			}
		}

	}

	return bSuccess;
 20003fc:	e0bffe03 	ldbu	r2,-8(fp)

}
 2000400:	e037883a 	mov	sp,fp
 2000404:	dfc00117 	ldw	ra,4(sp)
 2000408:	df000017 	ldw	fp,0(sp)
 200040c:	dec00204 	addi	sp,sp,8
 2000410:	f800283a 	ret

02000414 <_Z15ReadADCChannelsPhhPm>:
#include "../terasic_lib/adc_spi_read.h"
#include "alt_types.h"

#include "adc_interface.h"

bool ReadADCChannels(alt_u8 *uiChannels, alt_u8 uiChannelCount, alt_u32 *uiValues)
 2000414:	defff804 	addi	sp,sp,-32
 2000418:	dfc00715 	stw	ra,28(sp)
 200041c:	df000615 	stw	fp,24(sp)
 2000420:	dc000515 	stw	r16,20(sp)
 2000424:	df000504 	addi	fp,sp,20
 2000428:	e13ffc15 	stw	r4,-16(fp)
 200042c:	e1bffe15 	stw	r6,-8(fp)
 2000430:	e17ffd05 	stb	r5,-12(fp)
{
	if(uiChannelCount < 1)
 2000434:	e0bffd03 	ldbu	r2,-12(fp)
 2000438:	1004c03a 	cmpne	r2,r2,zero
 200043c:	1000021e 	bne	r2,zero,2000448 <_Z15ReadADCChannelsPhhPm+0x34>
		return false;
 2000440:	e03fff15 	stw	zero,-4(fp)
 2000444:	00006d06 	br	20005fc <_Z15ReadADCChannelsPhhPm+0x1e8>

	// Start Read for the first channel
	ADC_Read(uiChannels[0]);
 2000448:	e0bffc17 	ldw	r2,-16(fp)
 200044c:	10800003 	ldbu	r2,0(r2)
 2000450:	11003fcc 	andi	r4,r2,255
 2000454:	20031740 	call	2003174 <_Z8ADC_Readh>

	// Read rest
	for(int i = 0; i < uiChannelCount-1; i++)
 2000458:	e03ffb15 	stw	zero,-20(fp)
 200045c:	00003206 	br	2000528 <_Z15ReadADCChannelsPhhPm+0x114>
	{
		uiValues[i] = ADC_Read(uiChannels[i+1]);
 2000460:	e0bffb17 	ldw	r2,-20(fp)
 2000464:	1085883a 	add	r2,r2,r2
 2000468:	1085883a 	add	r2,r2,r2
 200046c:	1007883a 	mov	r3,r2
 2000470:	e0bffe17 	ldw	r2,-8(fp)
 2000474:	18a1883a 	add	r16,r3,r2
 2000478:	e0fffb17 	ldw	r3,-20(fp)
 200047c:	e0bffc17 	ldw	r2,-16(fp)
 2000480:	1885883a 	add	r2,r3,r2
 2000484:	10800044 	addi	r2,r2,1
 2000488:	10800003 	ldbu	r2,0(r2)
 200048c:	11003fcc 	andi	r4,r2,255
 2000490:	20031740 	call	2003174 <_Z8ADC_Readh>
 2000494:	10bfffcc 	andi	r2,r2,65535
 2000498:	80800015 	stw	r2,0(r16)
		uiValues[i] *= 100;
 200049c:	e0bffb17 	ldw	r2,-20(fp)
 20004a0:	1085883a 	add	r2,r2,r2
 20004a4:	1085883a 	add	r2,r2,r2
 20004a8:	1007883a 	mov	r3,r2
 20004ac:	e0bffe17 	ldw	r2,-8(fp)
 20004b0:	18a1883a 	add	r16,r3,r2
 20004b4:	e0bffb17 	ldw	r2,-20(fp)
 20004b8:	1085883a 	add	r2,r2,r2
 20004bc:	1085883a 	add	r2,r2,r2
 20004c0:	1007883a 	mov	r3,r2
 20004c4:	e0bffe17 	ldw	r2,-8(fp)
 20004c8:	1885883a 	add	r2,r3,r2
 20004cc:	11000017 	ldw	r4,0(r2)
 20004d0:	01401904 	movi	r5,100
 20004d4:	200d0480 	call	200d048 <__mulsi3>
 20004d8:	80800015 	stw	r2,0(r16)
		uiValues[i] /= 1311;
 20004dc:	e0bffb17 	ldw	r2,-20(fp)
 20004e0:	1085883a 	add	r2,r2,r2
 20004e4:	1085883a 	add	r2,r2,r2
 20004e8:	1007883a 	mov	r3,r2
 20004ec:	e0bffe17 	ldw	r2,-8(fp)
 20004f0:	18a1883a 	add	r16,r3,r2
 20004f4:	e0bffb17 	ldw	r2,-20(fp)
 20004f8:	1085883a 	add	r2,r2,r2
 20004fc:	1085883a 	add	r2,r2,r2
 2000500:	1007883a 	mov	r3,r2
 2000504:	e0bffe17 	ldw	r2,-8(fp)
 2000508:	1885883a 	add	r2,r3,r2
 200050c:	11000017 	ldw	r4,0(r2)
 2000510:	014147c4 	movi	r5,1311
 2000514:	200d0380 	call	200d038 <__udivsi3>
 2000518:	80800015 	stw	r2,0(r16)

	// Start Read for the first channel
	ADC_Read(uiChannels[0]);

	// Read rest
	for(int i = 0; i < uiChannelCount-1; i++)
 200051c:	e0bffb17 	ldw	r2,-20(fp)
 2000520:	10800044 	addi	r2,r2,1
 2000524:	e0bffb15 	stw	r2,-20(fp)
 2000528:	e0bffd03 	ldbu	r2,-12(fp)
 200052c:	10ffffc4 	addi	r3,r2,-1
 2000530:	e0bffb17 	ldw	r2,-20(fp)
 2000534:	10ffca16 	blt	r2,r3,2000460 <_Z15ReadADCChannelsPhhPm+0x4c>
		uiValues[i] *= 100;
		uiValues[i] /= 1311;
	}

	// Read last
	uiValues[uiChannelCount-1] = ADC_Read(0);
 2000538:	e0bffd03 	ldbu	r2,-12(fp)
 200053c:	1085883a 	add	r2,r2,r2
 2000540:	1085883a 	add	r2,r2,r2
 2000544:	1007883a 	mov	r3,r2
 2000548:	e0bffe17 	ldw	r2,-8(fp)
 200054c:	1885883a 	add	r2,r3,r2
 2000550:	143fff04 	addi	r16,r2,-4
 2000554:	0009883a 	mov	r4,zero
 2000558:	20031740 	call	2003174 <_Z8ADC_Readh>
 200055c:	10bfffcc 	andi	r2,r2,65535
 2000560:	80800015 	stw	r2,0(r16)
	uiValues[uiChannelCount-1] *= 100;
 2000564:	e0bffd03 	ldbu	r2,-12(fp)
 2000568:	1085883a 	add	r2,r2,r2
 200056c:	1085883a 	add	r2,r2,r2
 2000570:	1007883a 	mov	r3,r2
 2000574:	e0bffe17 	ldw	r2,-8(fp)
 2000578:	1885883a 	add	r2,r3,r2
 200057c:	143fff04 	addi	r16,r2,-4
 2000580:	e0bffd03 	ldbu	r2,-12(fp)
 2000584:	1085883a 	add	r2,r2,r2
 2000588:	1085883a 	add	r2,r2,r2
 200058c:	1007883a 	mov	r3,r2
 2000590:	e0bffe17 	ldw	r2,-8(fp)
 2000594:	1885883a 	add	r2,r3,r2
 2000598:	10bfff04 	addi	r2,r2,-4
 200059c:	11000017 	ldw	r4,0(r2)
 20005a0:	01401904 	movi	r5,100
 20005a4:	200d0480 	call	200d048 <__mulsi3>
 20005a8:	80800015 	stw	r2,0(r16)
	uiValues[uiChannelCount-1] /= 1311;
 20005ac:	e0bffd03 	ldbu	r2,-12(fp)
 20005b0:	1085883a 	add	r2,r2,r2
 20005b4:	1085883a 	add	r2,r2,r2
 20005b8:	1007883a 	mov	r3,r2
 20005bc:	e0bffe17 	ldw	r2,-8(fp)
 20005c0:	1885883a 	add	r2,r3,r2
 20005c4:	143fff04 	addi	r16,r2,-4
 20005c8:	e0bffd03 	ldbu	r2,-12(fp)
 20005cc:	1085883a 	add	r2,r2,r2
 20005d0:	1085883a 	add	r2,r2,r2
 20005d4:	1007883a 	mov	r3,r2
 20005d8:	e0bffe17 	ldw	r2,-8(fp)
 20005dc:	1885883a 	add	r2,r3,r2
 20005e0:	10bfff04 	addi	r2,r2,-4
 20005e4:	11000017 	ldw	r4,0(r2)
 20005e8:	014147c4 	movi	r5,1311
 20005ec:	200d0380 	call	200d038 <__udivsi3>
 20005f0:	80800015 	stw	r2,0(r16)

	return true;
 20005f4:	00800044 	movi	r2,1
 20005f8:	e0bfff15 	stw	r2,-4(fp)
 20005fc:	e0bfff17 	ldw	r2,-4(fp)
}
 2000600:	e037883a 	mov	sp,fp
 2000604:	dfc00217 	ldw	ra,8(sp)
 2000608:	df000117 	ldw	fp,4(sp)
 200060c:	dc000017 	ldw	r16,0(sp)
 2000610:	dec00304 	addi	sp,sp,12
 2000614:	f800283a 	ret

02000618 <_ZN16CEth_UART_SocketD2Ev>:
	m_pDevice = alt_up_rs232_open_dev(UARTNAME);

	m_iTxFrameNr = 0;
}

CEth_UART_Socket::~CEth_UART_Socket()
 2000618:	defffe04 	addi	sp,sp,-8
 200061c:	df000115 	stw	fp,4(sp)
 2000620:	df000104 	addi	fp,sp,4
 2000624:	e13fff15 	stw	r4,-4(fp)
{


}
 2000628:	e037883a 	mov	sp,fp
 200062c:	df000017 	ldw	fp,0(sp)
 2000630:	dec00104 	addi	sp,sp,4
 2000634:	f800283a 	ret

02000638 <_ZN16CEth_UART_SocketD1Ev>:
	m_pDevice = alt_up_rs232_open_dev(UARTNAME);

	m_iTxFrameNr = 0;
}

CEth_UART_Socket::~CEth_UART_Socket()
 2000638:	defffe04 	addi	sp,sp,-8
 200063c:	df000115 	stw	fp,4(sp)
 2000640:	df000104 	addi	fp,sp,4
 2000644:	e13fff15 	stw	r4,-4(fp)
{


}
 2000648:	e037883a 	mov	sp,fp
 200064c:	df000017 	ldw	fp,0(sp)
 2000650:	dec00104 	addi	sp,sp,4
 2000654:	f800283a 	ret

02000658 <_ZN16CEth_UART_Socket5ResetEv>:
	}

	return i;
}

bool CEth_UART_Socket::Reset()
 2000658:	defffe04 	addi	sp,sp,-8
 200065c:	df000115 	stw	fp,4(sp)
 2000660:	df000104 	addi	fp,sp,4
 2000664:	e13fff15 	stw	r4,-4(fp)
{
	m_iTxFrameNr = 0;
 2000668:	e0bfff17 	ldw	r2,-4(fp)
 200066c:	10000115 	stw	zero,4(r2)
	return true;
 2000670:	00800044 	movi	r2,1
}
 2000674:	e037883a 	mov	sp,fp
 2000678:	df000017 	ldw	fp,0(sp)
 200067c:	dec00104 	addi	sp,sp,4
 2000680:	f800283a 	ret

02000684 <_ZN16CEth_UART_Socket16ReceiveImmediateEPhm>:
	}

	return i;
}

alt_32 CEth_UART_Socket::ReceiveImmediate(data_t *p_Data, alt_u32 iLength)
 2000684:	defff804 	addi	sp,sp,-32
 2000688:	dfc00715 	stw	ra,28(sp)
 200068c:	df000615 	stw	fp,24(sp)
 2000690:	df000604 	addi	fp,sp,24
 2000694:	e13ffd15 	stw	r4,-12(fp)
 2000698:	e17ffe15 	stw	r5,-8(fp)
 200069c:	e1bfff15 	stw	r6,-4(fp)
{
	alt_u32 uiCount = 0;
 20006a0:	e03ffb15 	stw	zero,-20(fp)
	alt_u8 uiParity = 0;
 20006a4:	e03ffc05 	stb	zero,-16(fp)
	alt_u32 i = 0;
 20006a8:	e03ffa15 	stw	zero,-24(fp)

	uiCount = alt_up_rs232_get_used_space_in_read_FIFO(m_pDevice);
 20006ac:	e0bffd17 	ldw	r2,-12(fp)
 20006b0:	11000017 	ldw	r4,0(r2)
 20006b4:	20103380 	call	2010338 <alt_up_rs232_get_used_space_in_read_FIFO>
 20006b8:	e0bffb15 	stw	r2,-20(fp)

	while(uiCount > 0 && iLength > 0)
 20006bc:	00001a06 	br	2000728 <_ZN16CEth_UART_Socket16ReceiveImmediateEPhm+0xa4>
	{
		while(uiCount > 0 && iLength > 0)
		{
			alt_up_rs232_read_data(m_pDevice, (alt_u8*) p_Data+i, &uiParity);
 20006c0:	e0bffd17 	ldw	r2,-12(fp)
 20006c4:	11000017 	ldw	r4,0(r2)
 20006c8:	e0fffa17 	ldw	r3,-24(fp)
 20006cc:	e0bffe17 	ldw	r2,-8(fp)
 20006d0:	188b883a 	add	r5,r3,r2
 20006d4:	e1bffc04 	addi	r6,fp,-16
 20006d8:	201044c0 	call	201044c <alt_up_rs232_read_data>
			uiCount--;
 20006dc:	e0bffb17 	ldw	r2,-20(fp)
 20006e0:	10bfffc4 	addi	r2,r2,-1
 20006e4:	e0bffb15 	stw	r2,-20(fp)
			iLength--;
 20006e8:	e0bfff17 	ldw	r2,-4(fp)
 20006ec:	10bfffc4 	addi	r2,r2,-1
 20006f0:	e0bfff15 	stw	r2,-4(fp)
			i++;
 20006f4:	e0bffa17 	ldw	r2,-24(fp)
 20006f8:	10800044 	addi	r2,r2,1
 20006fc:	e0bffa15 	stw	r2,-24(fp)

	uiCount = alt_up_rs232_get_used_space_in_read_FIFO(m_pDevice);

	while(uiCount > 0 && iLength > 0)
	{
		while(uiCount > 0 && iLength > 0)
 2000700:	e0bffb17 	ldw	r2,-20(fp)
 2000704:	1005003a 	cmpeq	r2,r2,zero
 2000708:	1000031e 	bne	r2,zero,2000718 <_ZN16CEth_UART_Socket16ReceiveImmediateEPhm+0x94>
 200070c:	e0bfff17 	ldw	r2,-4(fp)
 2000710:	1004c03a 	cmpne	r2,r2,zero
 2000714:	103fea1e 	bne	r2,zero,20006c0 <_ZN16CEth_UART_Socket16ReceiveImmediateEPhm+0x3c>
			alt_up_rs232_read_data(m_pDevice, (alt_u8*) p_Data+i, &uiParity);
			uiCount--;
			iLength--;
			i++;
		}
		uiCount = alt_up_rs232_get_used_space_in_read_FIFO(m_pDevice);
 2000718:	e0bffd17 	ldw	r2,-12(fp)
 200071c:	11000017 	ldw	r4,0(r2)
 2000720:	20103380 	call	2010338 <alt_up_rs232_get_used_space_in_read_FIFO>
 2000724:	e0bffb15 	stw	r2,-20(fp)
	alt_u8 uiParity = 0;
	alt_u32 i = 0;

	uiCount = alt_up_rs232_get_used_space_in_read_FIFO(m_pDevice);

	while(uiCount > 0 && iLength > 0)
 2000728:	e0bffb17 	ldw	r2,-20(fp)
 200072c:	1005003a 	cmpeq	r2,r2,zero
 2000730:	1000031e 	bne	r2,zero,2000740 <_ZN16CEth_UART_Socket16ReceiveImmediateEPhm+0xbc>
 2000734:	e0bfff17 	ldw	r2,-4(fp)
 2000738:	1004c03a 	cmpne	r2,r2,zero
 200073c:	103ff01e 	bne	r2,zero,2000700 <_ZN16CEth_UART_Socket16ReceiveImmediateEPhm+0x7c>
			i++;
		}
		uiCount = alt_up_rs232_get_used_space_in_read_FIFO(m_pDevice);
	}

	return i;
 2000740:	e0bffa17 	ldw	r2,-24(fp)
}
 2000744:	e037883a 	mov	sp,fp
 2000748:	dfc00117 	ldw	ra,4(sp)
 200074c:	df000017 	ldw	fp,0(sp)
 2000750:	dec00204 	addi	sp,sp,8
 2000754:	f800283a 	ret

02000758 <_ZN16CEth_UART_Socket7ReceiveEPhmm>:


	return !fail;
}

alt_32 CEth_UART_Socket::Receive(data_t *p_Data, alt_u32 iLength, alt_u32 iTimeOut)
 2000758:	defff504 	addi	sp,sp,-44
 200075c:	dfc00a15 	stw	ra,40(sp)
 2000760:	df000915 	stw	fp,36(sp)
 2000764:	df000904 	addi	fp,sp,36
 2000768:	e13ffb15 	stw	r4,-20(fp)
 200076c:	e17ffc15 	stw	r5,-16(fp)
 2000770:	e1bffd15 	stw	r6,-12(fp)
 2000774:	e1fffe15 	stw	r7,-8(fp)
{
	alt_u32 iTime = 10;
 2000778:	00800284 	movi	r2,10
 200077c:	e0bff915 	stw	r2,-28(fp)
	alt_u32 uiCount = 0;
 2000780:	e03ff815 	stw	zero,-32(fp)
	alt_u8 uiParity = 0;
 2000784:	e03ffa05 	stb	zero,-24(fp)
	alt_u32 i = 0;
 2000788:	e03ff715 	stw	zero,-36(fp)

	iTimeOut *= 400;
 200078c:	e13ffe17 	ldw	r4,-8(fp)
 2000790:	01406404 	movi	r5,400
 2000794:	200d0480 	call	200d048 <__mulsi3>
 2000798:	e0bffe15 	stw	r2,-8(fp)

	do
	{
		uiCount = alt_up_rs232_get_used_space_in_read_FIFO(m_pDevice);
 200079c:	e0bffb17 	ldw	r2,-20(fp)
 20007a0:	11000017 	ldw	r4,0(r2)
 20007a4:	20103380 	call	2010338 <alt_up_rs232_get_used_space_in_read_FIFO>
 20007a8:	e0bff815 	stw	r2,-32(fp)
		iTime += 5;
 20007ac:	e0bff917 	ldw	r2,-28(fp)
 20007b0:	10800144 	addi	r2,r2,5
 20007b4:	e0bff915 	stw	r2,-28(fp)
		if(iTime > iTimeOut)
 20007b8:	e0fff917 	ldw	r3,-28(fp)
 20007bc:	e0bffe17 	ldw	r2,-8(fp)
 20007c0:	10c0022e 	bgeu	r2,r3,20007cc <_ZN16CEth_UART_Socket7ReceiveEPhmm+0x74>
			return 0;
 20007c4:	e03fff15 	stw	zero,-4(fp)
 20007c8:	00002806 	br	200086c <_ZN16CEth_UART_Socket7ReceiveEPhmm+0x114>
	alt_u8 uiParity = 0;
	alt_u32 i = 0;

	iTimeOut *= 400;

	do
 20007cc:	e0bff817 	ldw	r2,-32(fp)
 20007d0:	1005003a 	cmpeq	r2,r2,zero
 20007d4:	103ff11e 	bne	r2,zero,200079c <_ZN16CEth_UART_Socket7ReceiveEPhmm+0x44>
		iTime += 5;
		if(iTime > iTimeOut)
			return 0;
	}while(uiCount == 0);

	while(uiCount > 0 && iLength > 0)
 20007d8:	00001c06 	br	200084c <_ZN16CEth_UART_Socket7ReceiveEPhmm+0xf4>
	{
		while(uiCount > 0 && iLength > 0)
		{
			alt_up_rs232_read_data(m_pDevice, (alt_u8*) p_Data+i, &uiParity);
 20007dc:	e0bffb17 	ldw	r2,-20(fp)
 20007e0:	11000017 	ldw	r4,0(r2)
 20007e4:	e0fff717 	ldw	r3,-36(fp)
 20007e8:	e0bffc17 	ldw	r2,-16(fp)
 20007ec:	188b883a 	add	r5,r3,r2
 20007f0:	e1bffa04 	addi	r6,fp,-24
 20007f4:	201044c0 	call	201044c <alt_up_rs232_read_data>
			uiCount--;
 20007f8:	e0bff817 	ldw	r2,-32(fp)
 20007fc:	10bfffc4 	addi	r2,r2,-1
 2000800:	e0bff815 	stw	r2,-32(fp)
			iLength--;
 2000804:	e0bffd17 	ldw	r2,-12(fp)
 2000808:	10bfffc4 	addi	r2,r2,-1
 200080c:	e0bffd15 	stw	r2,-12(fp)
			i++;
 2000810:	e0bff717 	ldw	r2,-36(fp)
 2000814:	10800044 	addi	r2,r2,1
 2000818:	e0bff715 	stw	r2,-36(fp)
			return 0;
	}while(uiCount == 0);

	while(uiCount > 0 && iLength > 0)
	{
		while(uiCount > 0 && iLength > 0)
 200081c:	e0bff817 	ldw	r2,-32(fp)
 2000820:	1005003a 	cmpeq	r2,r2,zero
 2000824:	1000031e 	bne	r2,zero,2000834 <_ZN16CEth_UART_Socket7ReceiveEPhmm+0xdc>
 2000828:	e0bffd17 	ldw	r2,-12(fp)
 200082c:	1004c03a 	cmpne	r2,r2,zero
 2000830:	103fea1e 	bne	r2,zero,20007dc <_ZN16CEth_UART_Socket7ReceiveEPhmm+0x84>
			alt_up_rs232_read_data(m_pDevice, (alt_u8*) p_Data+i, &uiParity);
			uiCount--;
			iLength--;
			i++;
		}
		delay(1);
 2000834:	01000044 	movi	r4,1
 2000838:	20001f40 	call	20001f4 <_Z5delayj>
		uiCount = alt_up_rs232_get_used_space_in_read_FIFO(m_pDevice);
 200083c:	e0bffb17 	ldw	r2,-20(fp)
 2000840:	11000017 	ldw	r4,0(r2)
 2000844:	20103380 	call	2010338 <alt_up_rs232_get_used_space_in_read_FIFO>
 2000848:	e0bff815 	stw	r2,-32(fp)
		iTime += 5;
		if(iTime > iTimeOut)
			return 0;
	}while(uiCount == 0);

	while(uiCount > 0 && iLength > 0)
 200084c:	e0bff817 	ldw	r2,-32(fp)
 2000850:	1005003a 	cmpeq	r2,r2,zero
 2000854:	1000031e 	bne	r2,zero,2000864 <_ZN16CEth_UART_Socket7ReceiveEPhmm+0x10c>
 2000858:	e0bffd17 	ldw	r2,-12(fp)
 200085c:	1004c03a 	cmpne	r2,r2,zero
 2000860:	103fee1e 	bne	r2,zero,200081c <_ZN16CEth_UART_Socket7ReceiveEPhmm+0xc4>
		}
		delay(1);
		uiCount = alt_up_rs232_get_used_space_in_read_FIFO(m_pDevice);
	}

	return i;
 2000864:	e0bff717 	ldw	r2,-36(fp)
 2000868:	e0bfff15 	stw	r2,-4(fp)
 200086c:	e0bfff17 	ldw	r2,-4(fp)
}
 2000870:	e037883a 	mov	sp,fp
 2000874:	dfc00117 	ldw	ra,4(sp)
 2000878:	df000017 	ldw	fp,0(sp)
 200087c:	dec00204 	addi	sp,sp,8
 2000880:	f800283a 	ret

02000884 <_ZN16CEth_UART_Socket4SendEPhm>:


}


bool CEth_UART_Socket::Send(data_t *p_Data, alt_u32 iLength)
 2000884:	defff704 	addi	sp,sp,-36
 2000888:	dfc00815 	stw	ra,32(sp)
 200088c:	df000715 	stw	fp,28(sp)
 2000890:	df000704 	addi	fp,sp,28
 2000894:	e13ffc15 	stw	r4,-16(fp)
 2000898:	e17ffd15 	stw	r5,-12(fp)
 200089c:	e1bffe15 	stw	r6,-8(fp)
{
	alt_u32 uiFreeSpace = 0;
 20008a0:	e03ffb15 	stw	zero,-20(fp)
	bool fail = false;
 20008a4:	e03ffa05 	stb	zero,-24(fp)

	while(iLength > 0)
 20008a8:	00002906 	br	2000950 <_ZN16CEth_UART_Socket4SendEPhm+0xcc>
	{
		uiFreeSpace = alt_up_rs232_get_available_space_in_write_FIFO(m_pDevice);
 20008ac:	e0bffc17 	ldw	r2,-16(fp)
 20008b0:	11000017 	ldw	r4,0(r2)
 20008b4:	20103740 	call	2010374 <alt_up_rs232_get_available_space_in_write_FIFO>
 20008b8:	e0bffb15 	stw	r2,-20(fp)

		if(uiFreeSpace > iLength)
 20008bc:	e0fffb17 	ldw	r3,-20(fp)
 20008c0:	e0bffe17 	ldw	r2,-8(fp)
 20008c4:	10c0022e 	bgeu	r2,r3,20008d0 <_ZN16CEth_UART_Socket4SendEPhm+0x4c>
			uiFreeSpace = iLength;
 20008c8:	e0bffe17 	ldw	r2,-8(fp)
 20008cc:	e0bffb15 	stw	r2,-20(fp)

		for (alt_u32 i = 0; i < uiFreeSpace; i++)
 20008d0:	e03ff915 	stw	zero,-28(fp)
 20008d4:	00001706 	br	2000934 <_ZN16CEth_UART_Socket4SendEPhm+0xb0>
		{
			fail = fail || (alt_up_rs232_write_data(m_pDevice, *p_Data) < 0);
 20008d8:	e0bffa03 	ldbu	r2,-24(fp)
 20008dc:	1004c03a 	cmpne	r2,r2,zero
 20008e0:	1000081e 	bne	r2,zero,2000904 <_ZN16CEth_UART_Socket4SendEPhm+0x80>
 20008e4:	e0bffc17 	ldw	r2,-16(fp)
 20008e8:	11000017 	ldw	r4,0(r2)
 20008ec:	e0bffd17 	ldw	r2,-12(fp)
 20008f0:	10800003 	ldbu	r2,0(r2)
 20008f4:	11403fcc 	andi	r5,r2,255
 20008f8:	20104040 	call	2010404 <alt_up_rs232_write_data>
 20008fc:	1004403a 	cmpge	r2,r2,zero
 2000900:	1000031e 	bne	r2,zero,2000910 <_ZN16CEth_UART_Socket4SendEPhm+0x8c>
 2000904:	00800044 	movi	r2,1
 2000908:	e0bfff05 	stb	r2,-4(fp)
 200090c:	00000106 	br	2000914 <_ZN16CEth_UART_Socket4SendEPhm+0x90>
 2000910:	e03fff05 	stb	zero,-4(fp)
 2000914:	e0bfff03 	ldbu	r2,-4(fp)
 2000918:	e0bffa05 	stb	r2,-24(fp)
			p_Data++;
 200091c:	e0bffd17 	ldw	r2,-12(fp)
 2000920:	10800044 	addi	r2,r2,1
 2000924:	e0bffd15 	stw	r2,-12(fp)
		uiFreeSpace = alt_up_rs232_get_available_space_in_write_FIFO(m_pDevice);

		if(uiFreeSpace > iLength)
			uiFreeSpace = iLength;

		for (alt_u32 i = 0; i < uiFreeSpace; i++)
 2000928:	e0bff917 	ldw	r2,-28(fp)
 200092c:	10800044 	addi	r2,r2,1
 2000930:	e0bff915 	stw	r2,-28(fp)
 2000934:	e0fff917 	ldw	r3,-28(fp)
 2000938:	e0bffb17 	ldw	r2,-20(fp)
 200093c:	18bfe636 	bltu	r3,r2,20008d8 <_ZN16CEth_UART_Socket4SendEPhm+0x54>
		{
			fail = fail || (alt_up_rs232_write_data(m_pDevice, *p_Data) < 0);
			p_Data++;
		}
		iLength = iLength - uiFreeSpace;
 2000940:	e0bffe17 	ldw	r2,-8(fp)
 2000944:	e0fffb17 	ldw	r3,-20(fp)
 2000948:	10c5c83a 	sub	r2,r2,r3
 200094c:	e0bffe15 	stw	r2,-8(fp)
bool CEth_UART_Socket::Send(data_t *p_Data, alt_u32 iLength)
{
	alt_u32 uiFreeSpace = 0;
	bool fail = false;

	while(iLength > 0)
 2000950:	e0bffe17 	ldw	r2,-8(fp)
 2000954:	1004c03a 	cmpne	r2,r2,zero
 2000958:	103fd41e 	bne	r2,zero,20008ac <_ZN16CEth_UART_Socket4SendEPhm+0x28>
		}
		iLength = iLength - uiFreeSpace;
	}


	return !fail;
 200095c:	e0bffa03 	ldbu	r2,-24(fp)
 2000960:	1080005c 	xori	r2,r2,1
 2000964:	10803fcc 	andi	r2,r2,255
}
 2000968:	e037883a 	mov	sp,fp
 200096c:	dfc00117 	ldw	ra,4(sp)
 2000970:	df000017 	ldw	fp,0(sp)
 2000974:	dec00204 	addi	sp,sp,8
 2000978:	f800283a 	ret

0200097c <_ZN16CEth_UART_SocketC1Ev>:
#include <system.h>
#include "..\etc\utility.h"

#define UARTNAME "/dev/uart_0"

CEth_UART_Socket::CEth_UART_Socket()
 200097c:	defffd04 	addi	sp,sp,-12
 2000980:	dfc00215 	stw	ra,8(sp)
 2000984:	df000115 	stw	fp,4(sp)
 2000988:	df000104 	addi	fp,sp,4
 200098c:	e13fff15 	stw	r4,-4(fp)
{
	m_pDevice = alt_up_rs232_open_dev(UARTNAME);
 2000990:	01008074 	movhi	r4,513
 2000994:	21096904 	addi	r4,r4,9636
 2000998:	20105e40 	call	20105e4 <alt_up_rs232_open_dev>
 200099c:	e0ffff17 	ldw	r3,-4(fp)
 20009a0:	18800015 	stw	r2,0(r3)

	m_iTxFrameNr = 0;
 20009a4:	e0bfff17 	ldw	r2,-4(fp)
 20009a8:	10000115 	stw	zero,4(r2)
}
 20009ac:	e037883a 	mov	sp,fp
 20009b0:	dfc00117 	ldw	ra,4(sp)
 20009b4:	df000017 	ldw	fp,0(sp)
 20009b8:	dec00204 	addi	sp,sp,8
 20009bc:	f800283a 	ret

020009c0 <_ZN16CEth_UART_SocketC2Ev>:
#include <system.h>
#include "..\etc\utility.h"

#define UARTNAME "/dev/uart_0"

CEth_UART_Socket::CEth_UART_Socket()
 20009c0:	defffd04 	addi	sp,sp,-12
 20009c4:	dfc00215 	stw	ra,8(sp)
 20009c8:	df000115 	stw	fp,4(sp)
 20009cc:	df000104 	addi	fp,sp,4
 20009d0:	e13fff15 	stw	r4,-4(fp)
{
	m_pDevice = alt_up_rs232_open_dev(UARTNAME);
 20009d4:	01008074 	movhi	r4,513
 20009d8:	21096904 	addi	r4,r4,9636
 20009dc:	20105e40 	call	20105e4 <alt_up_rs232_open_dev>
 20009e0:	e0ffff17 	ldw	r3,-4(fp)
 20009e4:	18800015 	stw	r2,0(r3)

	m_iTxFrameNr = 0;
 20009e8:	e0bfff17 	ldw	r2,-4(fp)
 20009ec:	10000115 	stw	zero,4(r2)
}
 20009f0:	e037883a 	mov	sp,fp
 20009f4:	dfc00117 	ldw	ra,4(sp)
 20009f8:	df000017 	ldw	fp,0(sp)
 20009fc:	dec00204 	addi	sp,sp,8
 2000a00:	f800283a 	ret

02000a04 <_Z13motor_settingmmmmmm>:
#include <sys/time.h>



void motor_setting(unsigned long phase1, unsigned long duty1,unsigned long phase2, unsigned long duty2,
		unsigned long period,unsigned long enable)
 2000a04:	defff504 	addi	sp,sp,-44
 2000a08:	df000a15 	stw	fp,40(sp)
 2000a0c:	df000a04 	addi	fp,sp,40
 2000a10:	e13ffc15 	stw	r4,-16(fp)
 2000a14:	e17ffd15 	stw	r5,-12(fp)
 2000a18:	e1bffe15 	stw	r6,-8(fp)
 2000a1c:	e1ffff15 	stw	r7,-4(fp)
{
	volatile unsigned int * pwm_en		=(volatile unsigned int *)	PWM_EN;
 2000a20:	00a18034 	movhi	r2,34304
 2000a24:	10844004 	addi	r2,r2,4352
 2000a28:	e0bffb15 	stw	r2,-20(fp)
	volatile unsigned int * pwm_period	=(volatile unsigned int *)	PWM_PERIOD;
 2000a2c:	00a18034 	movhi	r2,34304
 2000a30:	10844104 	addi	r2,r2,4356
 2000a34:	e0bffa15 	stw	r2,-24(fp)
	volatile unsigned int * pwm_phase1	=(volatile unsigned int *)	PWM_PHASE1;
 2000a38:	00a18034 	movhi	r2,34304
 2000a3c:	10844404 	addi	r2,r2,4368
 2000a40:	e0bff915 	stw	r2,-28(fp)
	volatile unsigned int * pwm_phase2	=(volatile unsigned int *)	PWM_PHASE2;
 2000a44:	00a18034 	movhi	r2,34304
 2000a48:	10844504 	addi	r2,r2,4372
 2000a4c:	e0bff815 	stw	r2,-32(fp)
	volatile unsigned int * pwm_duty1	=(volatile unsigned int *)	PWM_DUTY1;
 2000a50:	00a18034 	movhi	r2,34304
 2000a54:	10844204 	addi	r2,r2,4360
 2000a58:	e0bff715 	stw	r2,-36(fp)
	volatile unsigned int * pwm_duty2	=(volatile unsigned int *)	PWM_DUTY2;
 2000a5c:	00a18034 	movhi	r2,34304
 2000a60:	10844304 	addi	r2,r2,4364
 2000a64:	e0bff615 	stw	r2,-40(fp)

	// Check for invalid parameters
	if(enable > 2)
 2000a68:	e0800217 	ldw	r2,8(fp)
 2000a6c:	108000f0 	cmpltui	r2,r2,3
 2000a70:	1000011e 	bne	r2,zero,2000a78 <_Z13motor_settingmmmmmm+0x74>
		enable = 0;
 2000a74:	e0000215 	stw	zero,8(fp)

	if(duty1 > 100000)
 2000a78:	e0fffd17 	ldw	r3,-12(fp)
 2000a7c:	008000b4 	movhi	r2,2
 2000a80:	10a1a804 	addi	r2,r2,-31072
 2000a84:	10c0032e 	bgeu	r2,r3,2000a94 <_Z13motor_settingmmmmmm+0x90>
		duty1 = 100000;
 2000a88:	008000b4 	movhi	r2,2
 2000a8c:	10a1a804 	addi	r2,r2,-31072
 2000a90:	e0bffd15 	stw	r2,-12(fp)

	if(duty2 > 100000)
 2000a94:	e0ffff17 	ldw	r3,-4(fp)
 2000a98:	008000b4 	movhi	r2,2
 2000a9c:	10a1a804 	addi	r2,r2,-31072
 2000aa0:	10c0032e 	bgeu	r2,r3,2000ab0 <_Z13motor_settingmmmmmm+0xac>
		duty2 = 100000;
 2000aa4:	008000b4 	movhi	r2,2
 2000aa8:	10a1a804 	addi	r2,r2,-31072
 2000aac:	e0bfff15 	stw	r2,-4(fp)

	// Write settings to PWM-generator
	* pwm_en		= enable;
 2000ab0:	e0fffb17 	ldw	r3,-20(fp)
 2000ab4:	e0800217 	ldw	r2,8(fp)
 2000ab8:	18800015 	stw	r2,0(r3)
	* pwm_period	= period;
 2000abc:	e0fffa17 	ldw	r3,-24(fp)
 2000ac0:	e0800117 	ldw	r2,4(fp)
 2000ac4:	18800015 	stw	r2,0(r3)
	* pwm_phase1	= phase1;
 2000ac8:	e0fff917 	ldw	r3,-28(fp)
 2000acc:	e0bffc17 	ldw	r2,-16(fp)
 2000ad0:	18800015 	stw	r2,0(r3)
	* pwm_phase2	= phase2;
 2000ad4:	e0fff817 	ldw	r3,-32(fp)
 2000ad8:	e0bffe17 	ldw	r2,-8(fp)
 2000adc:	18800015 	stw	r2,0(r3)
	* pwm_duty1		= duty1;
 2000ae0:	e0fff717 	ldw	r3,-36(fp)
 2000ae4:	e0bffd17 	ldw	r2,-12(fp)
 2000ae8:	18800015 	stw	r2,0(r3)
	* pwm_duty2		= duty2;
 2000aec:	e0fff617 	ldw	r3,-40(fp)
 2000af0:	e0bfff17 	ldw	r2,-4(fp)
 2000af4:	18800015 	stw	r2,0(r3)

}
 2000af8:	e037883a 	mov	sp,fp
 2000afc:	df000017 	ldw	fp,0(sp)
 2000b00:	dec00104 	addi	sp,sp,4
 2000b04:	f800283a 	ret

02000b08 <_Z8setSpeedl>:

void setSpeed(alt_32 uiSpeed)
 2000b08:	defffb04 	addi	sp,sp,-20
 2000b0c:	dfc00415 	stw	ra,16(sp)
 2000b10:	df000315 	stw	fp,12(sp)
 2000b14:	df000304 	addi	fp,sp,12
 2000b18:	e13fff15 	stw	r4,-4(fp)
{
	if(uiSpeed > 0)
 2000b1c:	e0bfff17 	ldw	r2,-4(fp)
 2000b20:	10800050 	cmplti	r2,r2,1
 2000b24:	10000b1e 	bne	r2,zero,2000b54 <_Z8setSpeedl+0x4c>
	{
		motor_setting(0,uiSpeed,0,0,100000,1);
 2000b28:	e17fff17 	ldw	r5,-4(fp)
 2000b2c:	008000b4 	movhi	r2,2
 2000b30:	10a1a804 	addi	r2,r2,-31072
 2000b34:	d8800015 	stw	r2,0(sp)
 2000b38:	00800044 	movi	r2,1
 2000b3c:	d8800115 	stw	r2,4(sp)
 2000b40:	0009883a 	mov	r4,zero
 2000b44:	000d883a 	mov	r6,zero
 2000b48:	000f883a 	mov	r7,zero
 2000b4c:	2000a040 	call	2000a04 <_Z13motor_settingmmmmmm>
 2000b50:	00000c06 	br	2000b84 <_Z8setSpeedl+0x7c>
	}
	else
	{
		motor_setting(0,0,0,-1 * uiSpeed,100000,2);
 2000b54:	e0bfff17 	ldw	r2,-4(fp)
 2000b58:	0085c83a 	sub	r2,zero,r2
 2000b5c:	100f883a 	mov	r7,r2
 2000b60:	008000b4 	movhi	r2,2
 2000b64:	10a1a804 	addi	r2,r2,-31072
 2000b68:	d8800015 	stw	r2,0(sp)
 2000b6c:	00800084 	movi	r2,2
 2000b70:	d8800115 	stw	r2,4(sp)
 2000b74:	0009883a 	mov	r4,zero
 2000b78:	000b883a 	mov	r5,zero
 2000b7c:	000d883a 	mov	r6,zero
 2000b80:	2000a040 	call	2000a04 <_Z13motor_settingmmmmmm>
	}

}
 2000b84:	e037883a 	mov	sp,fp
 2000b88:	dfc00117 	ldw	ra,4(sp)
 2000b8c:	df000017 	ldw	fp,0(sp)
 2000b90:	dec00204 	addi	sp,sp,8
 2000b94:	f800283a 	ret

02000b98 <_Z22measureSpeedUnblockingv>:
		return current_speed;
	else
		return current_speed * -1;
}

alt_32 measureSpeedUnblocking(void)
 2000b98:	defff904 	addi	sp,sp,-28
 2000b9c:	dfc00615 	stw	ra,24(sp)
 2000ba0:	df000515 	stw	fp,20(sp)
 2000ba4:	df000504 	addi	fp,sp,20
{
	volatile alt_u32 * pEnc = (volatile alt_u32 *) (0x80000000 | MOTOR_ENCODER_0_BASE);
 2000ba8:	00a18034 	movhi	r2,34304
 2000bac:	10844c04 	addi	r2,r2,4400
 2000bb0:	e0bffc15 	stw	r2,-16(fp)
	volatile alt_u32 * pDir = (volatile alt_u32 *) (0x80000000 | MOTOR_ENCODER_0_BASE + 4);
 2000bb4:	00a18034 	movhi	r2,34304
 2000bb8:	10844d04 	addi	r2,r2,4404
 2000bbc:	e0bffb15 	stw	r2,-20(fp)
	volatile alt_u32 pDirOld;
	volatile alt_u32 current_speed;

	// NOTE: Call every 10 ms!!!!
	current_speed = *pEnc;
 2000bc0:	e0bffc17 	ldw	r2,-16(fp)
 2000bc4:	10800017 	ldw	r2,0(r2)
 2000bc8:	e0bffe15 	stw	r2,-8(fp)
	pDirOld = *pDir;
 2000bcc:	e0bffb17 	ldw	r2,-20(fp)
 2000bd0:	10800017 	ldw	r2,0(r2)
 2000bd4:	e0bffd15 	stw	r2,-12(fp)
	*pEnc =  1;
 2000bd8:	e0fffc17 	ldw	r3,-16(fp)
 2000bdc:	00800044 	movi	r2,1
 2000be0:	18800015 	stw	r2,0(r3)

	current_speed *= 100;
 2000be4:	e13ffe17 	ldw	r4,-8(fp)
 2000be8:	01401904 	movi	r5,100
 2000bec:	200d0480 	call	200d048 <__mulsi3>
 2000bf0:	e0bffe15 	stw	r2,-8(fp)
	current_speed *= WHEEL_SCALE;
 2000bf4:	e13ffe17 	ldw	r4,-8(fp)
 2000bf8:	01405cc4 	movi	r5,371
 2000bfc:	200d0480 	call	200d048 <__mulsi3>
 2000c00:	e0bffe15 	stw	r2,-8(fp)
	current_speed /= 4288;
 2000c04:	e13ffe17 	ldw	r4,-8(fp)
 2000c08:	01443004 	movi	r5,4288
 2000c0c:	200d0380 	call	200d038 <__udivsi3>
 2000c10:	e0bffe15 	stw	r2,-8(fp)

	if(pDirOld == INVERTED)
 2000c14:	e0bffd17 	ldw	r2,-12(fp)
 2000c18:	108000a0 	cmpeqi	r2,r2,2
 2000c1c:	10803fcc 	andi	r2,r2,255
 2000c20:	1005003a 	cmpeq	r2,r2,zero
 2000c24:	1000031e 	bne	r2,zero,2000c34 <_Z22measureSpeedUnblockingv+0x9c>
		return current_speed;
 2000c28:	e0bffe17 	ldw	r2,-8(fp)
 2000c2c:	e0bfff15 	stw	r2,-4(fp)
 2000c30:	00000306 	br	2000c40 <_Z22measureSpeedUnblockingv+0xa8>
	else
		return current_speed * -1;
 2000c34:	e0bffe17 	ldw	r2,-8(fp)
 2000c38:	0085c83a 	sub	r2,zero,r2
 2000c3c:	e0bfff15 	stw	r2,-4(fp)
 2000c40:	e0bfff17 	ldw	r2,-4(fp)
}
 2000c44:	e037883a 	mov	sp,fp
 2000c48:	dfc00117 	ldw	ra,4(sp)
 2000c4c:	df000017 	ldw	fp,0(sp)
 2000c50:	dec00204 	addi	sp,sp,8
 2000c54:	f800283a 	ret

02000c58 <_Z12measureSpeedv>:
		motor_setting(0,0,0,-1 * uiSpeed,100000,2);
	}

}

alt_32 measureSpeed(void)
 2000c58:	defffa04 	addi	sp,sp,-24
 2000c5c:	dfc00515 	stw	ra,20(sp)
 2000c60:	df000415 	stw	fp,16(sp)
 2000c64:	df000404 	addi	fp,sp,16
{
	volatile alt_u32 * pEnc = (volatile alt_u32 *) (0x80000000 | MOTOR_ENCODER_0_BASE);
 2000c68:	00a18034 	movhi	r2,34304
 2000c6c:	10844c04 	addi	r2,r2,4400
 2000c70:	e0bffd15 	stw	r2,-12(fp)
	volatile alt_u32 * pDir = (volatile alt_u32 *) (0x80000000 | MOTOR_ENCODER_0_BASE + 4);
 2000c74:	00a18034 	movhi	r2,34304
 2000c78:	10844d04 	addi	r2,r2,4404
 2000c7c:	e0bffc15 	stw	r2,-16(fp)
	volatile alt_u32 current_speed;

	*pEnc =  1;
 2000c80:	e0fffd17 	ldw	r3,-12(fp)
 2000c84:	00800044 	movi	r2,1
 2000c88:	18800015 	stw	r2,0(r3)
	delay(10);
 2000c8c:	01000284 	movi	r4,10
 2000c90:	20001f40 	call	20001f4 <_Z5delayj>
	current_speed = *pEnc;
 2000c94:	e0bffd17 	ldw	r2,-12(fp)
 2000c98:	10800017 	ldw	r2,0(r2)
 2000c9c:	e0bffe15 	stw	r2,-8(fp)



	current_speed *= 100;
 2000ca0:	e13ffe17 	ldw	r4,-8(fp)
 2000ca4:	01401904 	movi	r5,100
 2000ca8:	200d0480 	call	200d048 <__mulsi3>
 2000cac:	e0bffe15 	stw	r2,-8(fp)
	current_speed *= WHEEL_SCALE;
 2000cb0:	e13ffe17 	ldw	r4,-8(fp)
 2000cb4:	01405cc4 	movi	r5,371
 2000cb8:	200d0480 	call	200d048 <__mulsi3>
 2000cbc:	e0bffe15 	stw	r2,-8(fp)
	current_speed /= 4288;
 2000cc0:	e13ffe17 	ldw	r4,-8(fp)
 2000cc4:	01443004 	movi	r5,4288
 2000cc8:	200d0380 	call	200d038 <__udivsi3>
 2000ccc:	e0bffe15 	stw	r2,-8(fp)

	if(*pDir == INVERTED)
 2000cd0:	e0bffc17 	ldw	r2,-16(fp)
 2000cd4:	10800017 	ldw	r2,0(r2)
 2000cd8:	108000a0 	cmpeqi	r2,r2,2
 2000cdc:	10803fcc 	andi	r2,r2,255
 2000ce0:	1005003a 	cmpeq	r2,r2,zero
 2000ce4:	1000031e 	bne	r2,zero,2000cf4 <_Z12measureSpeedv+0x9c>
		return current_speed;
 2000ce8:	e0bffe17 	ldw	r2,-8(fp)
 2000cec:	e0bfff15 	stw	r2,-4(fp)
 2000cf0:	00000306 	br	2000d00 <_Z12measureSpeedv+0xa8>
	else
		return current_speed * -1;
 2000cf4:	e0bffe17 	ldw	r2,-8(fp)
 2000cf8:	0085c83a 	sub	r2,zero,r2
 2000cfc:	e0bfff15 	stw	r2,-4(fp)
 2000d00:	e0bfff17 	ldw	r2,-4(fp)
}
 2000d04:	e037883a 	mov	sp,fp
 2000d08:	dfc00117 	ldw	ra,4(sp)
 2000d0c:	df000017 	ldw	fp,0(sp)
 2000d10:	dec00204 	addi	sp,sp,8
 2000d14:	f800283a 	ret

02000d18 <_Z15measuredistancem>:
 *      Author: Florian
 */

#include "ultrasound_interface.h"

alt_32 measuredistance(const alt_u32 base_address)
 2000d18:	defff904 	addi	sp,sp,-28
 2000d1c:	dfc00615 	stw	ra,24(sp)
 2000d20:	df000515 	stw	fp,20(sp)
 2000d24:	df000504 	addi	fp,sp,20
 2000d28:	e13fff15 	stw	r4,-4(fp)
{
	alt_u32 state;
	alt_u32 measure_data;
	alt_32 distance;
	alt_u32 iTimeout = 0;
 2000d2c:	e03ffb15 	stw	zero,-20(fp)

	state = get_sensor_state(base_address);
 2000d30:	e0bfff17 	ldw	r2,-4(fp)
 2000d34:	10800204 	addi	r2,r2,8
 2000d38:	10800037 	ldwio	r2,0(r2)
 2000d3c:	e0bffe15 	stw	r2,-8(fp)
	while (state == 1)
 2000d40:	00000706 	br	2000d60 <_Z15measuredistancem+0x48>
	{
		state = get_sensor_state(base_address);
 2000d44:	e0bfff17 	ldw	r2,-4(fp)
 2000d48:	10800204 	addi	r2,r2,8
 2000d4c:	10800037 	ldwio	r2,0(r2)
 2000d50:	e0bffe15 	stw	r2,-8(fp)
		iTimeout++;
 2000d54:	e0bffb17 	ldw	r2,-20(fp)
 2000d58:	10800044 	addi	r2,r2,1
 2000d5c:	e0bffb15 	stw	r2,-20(fp)
	alt_u32 measure_data;
	alt_32 distance;
	alt_u32 iTimeout = 0;

	state = get_sensor_state(base_address);
	while (state == 1)
 2000d60:	e0bffe17 	ldw	r2,-8(fp)
 2000d64:	10800060 	cmpeqi	r2,r2,1
 2000d68:	103ff61e 	bne	r2,zero,2000d44 <_Z15measuredistancem+0x2c>
		iTimeout++;
		//if(iTimeout > 20)
		//	return -1;
	}

	trigger_clear(base_address);
 2000d6c:	e0bfff17 	ldw	r2,-4(fp)
 2000d70:	10000035 	stwio	zero,0(r2)
	trigger_sensor(base_address);
 2000d74:	e0bfff17 	ldw	r2,-4(fp)
 2000d78:	1007883a 	mov	r3,r2
 2000d7c:	00800044 	movi	r2,1
 2000d80:	18800035 	stwio	r2,0(r3)
	trigger_clear(base_address);
 2000d84:	e0bfff17 	ldw	r2,-4(fp)
 2000d88:	10000035 	stwio	zero,0(r2)

	state = get_sensor_state(base_address);
 2000d8c:	e0bfff17 	ldw	r2,-4(fp)
 2000d90:	10800204 	addi	r2,r2,8
 2000d94:	10800037 	ldwio	r2,0(r2)
 2000d98:	e0bffe15 	stw	r2,-8(fp)
	iTimeout = 0;
 2000d9c:	e03ffb15 	stw	zero,-20(fp)
	while (state != 2)
 2000da0:	00000706 	br	2000dc0 <_Z15measuredistancem+0xa8>
	{
		state = get_sensor_state(base_address);
 2000da4:	e0bfff17 	ldw	r2,-4(fp)
 2000da8:	10800204 	addi	r2,r2,8
 2000dac:	10800037 	ldwio	r2,0(r2)
 2000db0:	e0bffe15 	stw	r2,-8(fp)
		iTimeout++;
 2000db4:	e0bffb17 	ldw	r2,-20(fp)
 2000db8:	10800044 	addi	r2,r2,1
 2000dbc:	e0bffb15 	stw	r2,-20(fp)
	trigger_sensor(base_address);
	trigger_clear(base_address);

	state = get_sensor_state(base_address);
	iTimeout = 0;
	while (state != 2)
 2000dc0:	e0bffe17 	ldw	r2,-8(fp)
 2000dc4:	10800098 	cmpnei	r2,r2,2
 2000dc8:	103ff61e 	bne	r2,zero,2000da4 <_Z15measuredistancem+0x8c>
		iTimeout++;
		//if(iTimeout > 20)
		//	return -1;
	}

	measure_data = get_sensor_data(base_address);
 2000dcc:	e0bfff17 	ldw	r2,-4(fp)
 2000dd0:	10800104 	addi	r2,r2,4
 2000dd4:	10800037 	ldwio	r2,0(r2)
 2000dd8:	e0bffd15 	stw	r2,-12(fp)
	if (measure_data == -1)
 2000ddc:	e0bffd17 	ldw	r2,-12(fp)
 2000de0:	10bfffd8 	cmpnei	r2,r2,-1
 2000de4:	1000031e 	bne	r2,zero,2000df4 <_Z15measuredistancem+0xdc>
		distance = -1;
 2000de8:	00bfffc4 	movi	r2,-1
 2000dec:	e0bffc15 	stw	r2,-16(fp)
 2000df0:	00000406 	br	2000e04 <_Z15measuredistancem+0xec>
	else
	{
		distance = measure_data / 588;
 2000df4:	e13ffd17 	ldw	r4,-12(fp)
 2000df8:	01409304 	movi	r5,588
 2000dfc:	200d0380 	call	200d038 <__udivsi3>
 2000e00:	e0bffc15 	stw	r2,-16(fp)
	}

	return distance;
 2000e04:	e0bffc17 	ldw	r2,-16(fp)
}
 2000e08:	e037883a 	mov	sp,fp
 2000e0c:	dfc00117 	ldw	ra,4(sp)
 2000e10:	df000017 	ldw	fp,0(sp)
 2000e14:	dec00204 	addi	sp,sp,8
 2000e18:	f800283a 	ret

02000e1c <_Z14alarm_callbackPv>:
 * Alarm callback. This function is called by the timer after 10ms. The return value will be
 * the next timer value.
 * This function will simply set the bCycleFinished to true. Thereby the WaitForEndOfCycle function
 * will not block anymore.
 */
alt_u32 alarm_callback(void* context)
 2000e1c:	defffe04 	addi	sp,sp,-8
 2000e20:	df000115 	stw	fp,4(sp)
 2000e24:	df000104 	addi	fp,sp,4
 2000e28:	e13fff15 	stw	r4,-4(fp)
{
	bCycleFinished = true;
 2000e2c:	00800044 	movi	r2,1
 2000e30:	d0a70105 	stb	r2,-25596(gp)
	return 10;
 2000e34:	00800284 	movi	r2,10
}
 2000e38:	e037883a 	mov	sp,fp
 2000e3c:	df000017 	ldw	fp,0(sp)
 2000e40:	dec00104 	addi	sp,sp,4
 2000e44:	f800283a 	ret

02000e48 <_Z17waitForEndOfCyclev>:


	return true;
}

bool waitForEndOfCycle()
 2000e48:	deffff04 	addi	sp,sp,-4
 2000e4c:	df000015 	stw	fp,0(sp)
 2000e50:	d839883a 	mov	fp,sp
{
	while(!bCycleFinished)
 2000e54:	00000306 	br	2000e64 <_Z17waitForEndOfCyclev+0x1c>
	{
		*pLED = 0x08;
 2000e58:	d0e00017 	ldw	r3,-32768(gp)
 2000e5c:	00800204 	movi	r2,8
 2000e60:	18800015 	stw	r2,0(r3)
	return true;
}

bool waitForEndOfCycle()
{
	while(!bCycleFinished)
 2000e64:	d0a70103 	ldbu	r2,-25596(gp)
 2000e68:	1080005c 	xori	r2,r2,1
 2000e6c:	10803fcc 	andi	r2,r2,255
 2000e70:	1004c03a 	cmpne	r2,r2,zero
 2000e74:	103ff81e 	bne	r2,zero,2000e58 <_Z17waitForEndOfCyclev+0x10>
	{
		*pLED = 0x08;
	}
	*pLED = *pLED & 0xF7;
 2000e78:	d0e00017 	ldw	r3,-32768(gp)
 2000e7c:	d0a00017 	ldw	r2,-32768(gp)
 2000e80:	10800017 	ldw	r2,0(r2)
 2000e84:	10803dcc 	andi	r2,r2,247
 2000e88:	18800015 	stw	r2,0(r3)

	bCycleFinished = false;
 2000e8c:	d0270105 	stb	zero,-25596(gp)
	return true;
 2000e90:	00800044 	movi	r2,1
}
 2000e94:	e037883a 	mov	sp,fp
 2000e98:	df000017 	ldw	fp,0(sp)
 2000e9c:	dec00104 	addi	sp,sp,4
 2000ea0:	f800283a 	ret

02000ea4 <_Z17setUpPIControllerv>:
	}

	return true;
}

bool setUpPIController()
 2000ea4:	deffb904 	addi	sp,sp,-284
 2000ea8:	dfc04615 	stw	ra,280(sp)
 2000eac:	df004515 	stw	fp,276(sp)
 2000eb0:	ddc04415 	stw	r23,272(sp)
 2000eb4:	dd804315 	stw	r22,268(sp)
 2000eb8:	dd404215 	stw	r21,264(sp)
 2000ebc:	dd004115 	stw	r20,260(sp)
 2000ec0:	dcc04015 	stw	r19,256(sp)
 2000ec4:	dc803f15 	stw	r18,252(sp)
 2000ec8:	dc403e15 	stw	r17,248(sp)
 2000ecc:	dc003d15 	stw	r16,244(sp)
 2000ed0:	df003d04 	addi	fp,sp,244
 2000ed4:	00808074 	movhi	r2,513
 2000ed8:	10adca04 	addi	r2,r2,-18648
 2000edc:	e0bfef15 	stw	r2,-68(fp)
 2000ee0:	00808074 	movhi	r2,513
 2000ee4:	10890704 	addi	r2,r2,9244
 2000ee8:	e0bff015 	stw	r2,-64(fp)
 2000eec:	e0bff104 	addi	r2,fp,-60
 2000ef0:	e0ffc504 	addi	r3,fp,-236
 2000ef4:	10c00015 	stw	r3,0(r2)
 2000ef8:	00c08034 	movhi	r3,512
 2000efc:	18c44404 	addi	r3,r3,4368
 2000f00:	10c00115 	stw	r3,4(r2)
 2000f04:	16c00215 	stw	sp,8(r2)
 2000f08:	e13fe904 	addi	r4,fp,-92
 2000f0c:	200d0800 	call	200d080 <_Unwind_SjLj_Register>
{
	LOG_DEBUG("in pid");
	CCarMessage *pMessage = 0;
 2000f10:	e03fc815 	stw	zero,-224(fp)
	alt_u32 uiTries = 0;
 2000f14:	e03fc715 	stw	zero,-228(fp)
	alt_u8 cBuffer[128];
	alt_u32 uiReceivedCount = 0;
 2000f18:	e03fc615 	stw	zero,-232(fp)

	alt_32 uiT;

	// Stop
	iDesiredSpeed = 0;
 2000f1c:	d026fc15 	stw	zero,-25616(gp)
	iCurrentSpeed = 0;
 2000f20:	d026fb15 	stw	zero,-25620(gp)

	// set speed to 0
	LOG_DEBUG("speed=0");

	setSpeed(0);
 2000f24:	00bfffc4 	movi	r2,-1
 2000f28:	e0bfea15 	stw	r2,-88(fp)
 2000f2c:	0009883a 	mov	r4,zero
 2000f30:	2000b080 	call	2000b08 <_Z8setSpeedl>
	delay(250);
 2000f34:	01003e84 	movi	r4,250
 2000f38:	20001f40 	call	20001f4 <_Z5delayj>

	LOG_DEBUG("speed=30000");
	// Full speed forward
	setSpeed(30000);
 2000f3c:	011d4c04 	movi	r4,30000
 2000f40:	2000b080 	call	2000b08 <_Z8setSpeedl>
	delay(500);
 2000f44:	01007d04 	movi	r4,500
 2000f48:	20001f40 	call	20001f4 <_Z5delayj>
	// Measure speed at T1 (=10ns)
	LOG_DEBUG("measure speed");

	uiT = measureSpeed();
 2000f4c:	2000c580 	call	2000c58 <_Z12measureSpeedv>
 2000f50:	e0bfc515 	stw	r2,-236(fp)
	// reset speed to 0
	setSpeed(0);
 2000f54:	0009883a 	mov	r4,zero
 2000f58:	2000b080 	call	2000b08 <_Z8setSpeedl>
	delay(250);
 2000f5c:	01003e84 	movi	r4,250
 2000f60:	20001f40 	call	20001f4 <_Z5delayj>

	LOG_DEBUG("speed=-30000");

	// Full speed backwards
	setSpeed(-30000);
 2000f64:	0122b404 	movi	r4,-30000
 2000f68:	2000b080 	call	2000b08 <_Z8setSpeedl>
	delay(500);
 2000f6c:	01007d04 	movi	r4,500
 2000f70:	20001f40 	call	20001f4 <_Z5delayj>

	// Measure speed at Tk (=10020ns) which should be the VMax
	uiMaxSpeed = measureSpeed();
 2000f74:	2000c580 	call	2000c58 <_Z12measureSpeedv>
 2000f78:	d0a6fd15 	stw	r2,-25612(gp)


	setSpeed(0);
 2000f7c:	0009883a 	mov	r4,zero
 2000f80:	2000b080 	call	2000b08 <_Z8setSpeedl>
	delay(250);
 2000f84:	01003e84 	movi	r4,250
 2000f88:	20001f40 	call	20001f4 <_Z5delayj>
	// Reset the controller if exists
	if(pController){
 2000f8c:	d0a6fe17 	ldw	r2,-25608(gp)
 2000f90:	1005003a 	cmpeq	r2,r2,zero
 2000f94:	1000091e 	bne	r2,zero,2000fbc <_Z17setUpPIControllerv+0x118>
		delete(pController);
 2000f98:	d0a6fe17 	ldw	r2,-25608(gp)
 2000f9c:	e0bffd15 	stw	r2,-12(fp)
 2000fa0:	e0fffd17 	ldw	r3,-12(fp)
 2000fa4:	1805003a 	cmpeq	r2,r3,zero
 2000fa8:	1000041e 	bne	r2,zero,2000fbc <_Z17setUpPIControllerv+0x118>
 2000fac:	e13ffd17 	ldw	r4,-12(fp)
 2000fb0:	20020f40 	call	20020f4 <_ZN13CPIControllerD1Ev>
 2000fb4:	e13ffd17 	ldw	r4,-12(fp)
 2000fb8:	200bc9c0 	call	200bc9c <_ZdlPv>
	}
	//preset values for PI Controller, to allow skipping of control init
	uiMaxSpeed=500;
 2000fbc:	00807d04 	movi	r2,500
 2000fc0:	d0a6fd15 	stw	r2,-25612(gp)
	uiT=3;
 2000fc4:	008000c4 	movi	r2,3
 2000fc8:	e0bfc515 	stw	r2,-236(fp)
	pController = new CPIController(uiMaxSpeed, uiT, -1*uiMaxSpeed, uiMaxSpeed);
 2000fcc:	00bfffc4 	movi	r2,-1
 2000fd0:	e0bfea15 	stw	r2,-88(fp)
 2000fd4:	01000704 	movi	r4,28
 2000fd8:	200bea80 	call	200bea8 <_Znwm>
 2000fdc:	e0bffc15 	stw	r2,-16(fp)
 2000fe0:	d0a6fd17 	ldw	r2,-25612(gp)
 2000fe4:	100b883a 	mov	r5,r2
 2000fe8:	d0a6fd17 	ldw	r2,-25612(gp)
 2000fec:	0085c83a 	sub	r2,zero,r2
 2000ff0:	100f883a 	mov	r7,r2
 2000ff4:	d0a6fd17 	ldw	r2,-25612(gp)
 2000ff8:	d8800015 	stw	r2,0(sp)
 2000ffc:	00800084 	movi	r2,2
 2001000:	e0bfea15 	stw	r2,-88(fp)
 2001004:	e13ffc17 	ldw	r4,-16(fp)
 2001008:	e1bfc517 	ldw	r6,-236(fp)
 200100c:	20020640 	call	2002064 <_ZN13CPIControllerC1Ellll>
 2001010:	e0bffc17 	ldw	r2,-16(fp)
 2001014:	d0a6fe15 	stw	r2,-25608(gp)
 2001018:	00000a06 	br	2001044 <_Z17setUpPIControllerv+0x1a0>
 200101c:	e0ffff17 	ldw	r3,-4(fp)
 2001020:	e0fff715 	stw	r3,-36(fp)
 2001024:	e13ffc17 	ldw	r4,-16(fp)
 2001028:	200bc9c0 	call	200bc9c <_ZdlPv>
 200102c:	e0bff717 	ldw	r2,-36(fp)
 2001030:	e0bfff15 	stw	r2,-4(fp)
 2001034:	00bfffc4 	movi	r2,-1
 2001038:	e0bfea15 	stw	r2,-88(fp)
 200103c:	e13fff17 	ldw	r4,-4(fp)
 2001040:	200d34c0 	call	200d34c <_Unwind_SjLj_Resume>
	//LOG_DEBUG("MeasurementRequestSTart");

	while(true)
	{

		if(uiTries >= 5)
 2001044:	e0bfc717 	ldw	r2,-228(fp)
 2001048:	10800170 	cmpltui	r2,r2,5
 200104c:	1000071e 	bne	r2,zero,200106c <_Z17setUpPIControllerv+0x1c8>
		{
			*pLED = *pLED | 0x04;
 2001050:	d0e00017 	ldw	r3,-32768(gp)
 2001054:	d0a00017 	ldw	r2,-32768(gp)
 2001058:	10800017 	ldw	r2,0(r2)
 200105c:	10800114 	ori	r2,r2,4
 2001060:	18800015 	stw	r2,0(r3)
			return false;
 2001064:	e03ffb15 	stw	zero,-20(fp)
 2001068:	00009d06 	br	20012e0 <_Z17setUpPIControllerv+0x43c>
		}

		uiReceivedCount = pSocket->Receive(cBuffer, 128, 10);
 200106c:	d126ff17 	ldw	r4,-25604(gp)
 2001070:	e17fc904 	addi	r5,fp,-220
 2001074:	00bfffc4 	movi	r2,-1
 2001078:	e0bfea15 	stw	r2,-88(fp)
 200107c:	01802004 	movi	r6,128
 2001080:	01c00284 	movi	r7,10
 2001084:	20007580 	call	2000758 <_ZN16CEth_UART_Socket7ReceiveEPhmm>
 2001088:	e0bfc615 	stw	r2,-232(fp)
		if(uiReceivedCount <= 0)
 200108c:	e0bfc617 	ldw	r2,-232(fp)
 2001090:	1005003a 	cmpeq	r2,r2,zero
 2001094:	103feb1e 	bne	r2,zero,2001044 <_Z17setUpPIControllerv+0x1a0>
			continue;

		if(pProtocol)
 2001098:	d0a70017 	ldw	r2,-25600(gp)
 200109c:	1005003a 	cmpeq	r2,r2,zero
 20010a0:	10000a1e 	bne	r2,zero,20010cc <_Z17setUpPIControllerv+0x228>
		{
			delete(pProtocol);
 20010a4:	d0a70017 	ldw	r2,-25600(gp)
 20010a8:	1005003a 	cmpeq	r2,r2,zero
 20010ac:	1000061e 	bne	r2,zero,20010c8 <_Z17setUpPIControllerv+0x224>
 20010b0:	d0a70017 	ldw	r2,-25600(gp)
 20010b4:	10800017 	ldw	r2,0(r2)
 20010b8:	10800104 	addi	r2,r2,4
 20010bc:	10800017 	ldw	r2,0(r2)
 20010c0:	d1270017 	ldw	r4,-25600(gp)
 20010c4:	103ee83a 	callr	r2
			pProtocol = 0;
 20010c8:	d0270015 	stw	zero,-25600(gp)
		}
		pProtocol = new CCarProtocol(cBuffer, uiReceivedCount);
 20010cc:	00bfffc4 	movi	r2,-1
 20010d0:	e0bfea15 	stw	r2,-88(fp)
 20010d4:	01000b04 	movi	r4,44
 20010d8:	200bea80 	call	200bea8 <_Znwm>
 20010dc:	e0bffa15 	stw	r2,-24(fp)
 20010e0:	e1bfc617 	ldw	r6,-232(fp)
 20010e4:	e17fc904 	addi	r5,fp,-220
 20010e8:	00800044 	movi	r2,1
 20010ec:	e0bfea15 	stw	r2,-88(fp)
 20010f0:	e13ffa17 	ldw	r4,-24(fp)
 20010f4:	2008b080 	call	2008b08 <_ZN12CCarProtocolC1EPhi>
 20010f8:	e0fffa17 	ldw	r3,-24(fp)
 20010fc:	d0e70015 	stw	r3,-25600(gp)
		if(pProtocol == 0 || !pProtocol->isValid() || pProtocol->getMessageCount() != 1)
 2001100:	d0a70017 	ldw	r2,-25600(gp)
 2001104:	1005003a 	cmpeq	r2,r2,zero
 2001108:	10001d1e 	bne	r2,zero,2001180 <_Z17setUpPIControllerv+0x2dc>
 200110c:	00001006 	br	2001150 <_Z17setUpPIControllerv+0x2ac>
 2001110:	e7003b04 	addi	fp,fp,236
 2001114:	e0bfea17 	ldw	r2,-88(fp)
 2001118:	e0ffeb17 	ldw	r3,-84(fp)
 200111c:	e0ffff15 	stw	r3,-4(fp)
 2001120:	10800060 	cmpeqi	r2,r2,1
 2001124:	103fbd1e 	bne	r2,zero,200101c <_Z17setUpPIControllerv+0x178>
 2001128:	e0bfff17 	ldw	r2,-4(fp)
 200112c:	e0bff615 	stw	r2,-40(fp)
		if(pProtocol)
		{
			delete(pProtocol);
			pProtocol = 0;
		}
		pProtocol = new CCarProtocol(cBuffer, uiReceivedCount);
 2001130:	e13ffa17 	ldw	r4,-24(fp)
 2001134:	200bc9c0 	call	200bc9c <_ZdlPv>
 2001138:	e0fff617 	ldw	r3,-40(fp)
 200113c:	e0ffff15 	stw	r3,-4(fp)
 2001140:	00bfffc4 	movi	r2,-1
 2001144:	e0bfea15 	stw	r2,-88(fp)
 2001148:	e13fff17 	ldw	r4,-4(fp)
 200114c:	200d34c0 	call	200d34c <_Unwind_SjLj_Resume>
		if(pProtocol == 0 || !pProtocol->isValid() || pProtocol->getMessageCount() != 1)
 2001150:	d1270017 	ldw	r4,-25600(gp)
 2001154:	00bfffc4 	movi	r2,-1
 2001158:	e0bfea15 	stw	r2,-88(fp)
 200115c:	20075840 	call	2007584 <_ZN12CCarProtocol7isValidEv>
 2001160:	1080005c 	xori	r2,r2,1
 2001164:	10803fcc 	andi	r2,r2,255
 2001168:	1004c03a 	cmpne	r2,r2,zero
 200116c:	1000041e 	bne	r2,zero,2001180 <_Z17setUpPIControllerv+0x2dc>
 2001170:	d1270017 	ldw	r4,-25600(gp)
 2001174:	20076c00 	call	20076c0 <_ZN12CCarProtocol15getMessageCountEv>
 2001178:	10800060 	cmpeqi	r2,r2,1
 200117c:	1000031e 	bne	r2,zero,200118c <_Z17setUpPIControllerv+0x2e8>
 2001180:	00800044 	movi	r2,1
 2001184:	e0bff945 	stb	r2,-27(fp)
 2001188:	00000106 	br	2001190 <_Z17setUpPIControllerv+0x2ec>
 200118c:	e03ff945 	stb	zero,-27(fp)
 2001190:	e0bff943 	ldbu	r2,-27(fp)
 2001194:	10803fcc 	andi	r2,r2,255
 2001198:	1005003a 	cmpeq	r2,r2,zero
 200119c:	1000041e 	bne	r2,zero,20011b0 <_Z17setUpPIControllerv+0x30c>
		{
			uiTries++;
 20011a0:	e0bfc717 	ldw	r2,-228(fp)
 20011a4:	10800044 	addi	r2,r2,1
 20011a8:	e0bfc715 	stw	r2,-228(fp)
			continue;
 20011ac:	003fa506 	br	2001044 <_Z17setUpPIControllerv+0x1a0>
		}

		pMessage = pProtocol->getNthMessage(0);
 20011b0:	d1270017 	ldw	r4,-25600(gp)
 20011b4:	00bfffc4 	movi	r2,-1
 20011b8:	e0bfea15 	stw	r2,-88(fp)
 20011bc:	000b883a 	mov	r5,zero
 20011c0:	20076600 	call	2007660 <_ZN12CCarProtocol13getNthMessageEm>
 20011c4:	e0bfc815 	stw	r2,-224(fp)
		if(pMessage->isValid() && pMessage->getType() == 0x05)
 20011c8:	e13fc817 	ldw	r4,-224(fp)
 20011cc:	2006f980 	call	2006f98 <_ZN11CCarMessage7isValidEv>
 20011d0:	1080005c 	xori	r2,r2,1
 20011d4:	10803fcc 	andi	r2,r2,255
 20011d8:	1004c03a 	cmpne	r2,r2,zero
 20011dc:	1000081e 	bne	r2,zero,2001200 <_Z17setUpPIControllerv+0x35c>
 20011e0:	e13fc817 	ldw	r4,-224(fp)
 20011e4:	2006f400 	call	2006f40 <_ZN11CCarMessage7getTypeEv>
 20011e8:	10803fcc 	andi	r2,r2,255
 20011ec:	10800158 	cmpnei	r2,r2,5
 20011f0:	1000031e 	bne	r2,zero,2001200 <_Z17setUpPIControllerv+0x35c>
 20011f4:	00c00044 	movi	r3,1
 20011f8:	e0fff905 	stb	r3,-28(fp)
 20011fc:	00000106 	br	2001204 <_Z17setUpPIControllerv+0x360>
 2001200:	e03ff905 	stb	zero,-28(fp)
 2001204:	e0bff903 	ldbu	r2,-28(fp)
 2001208:	10803fcc 	andi	r2,r2,255
 200120c:	1004c03a 	cmpne	r2,r2,zero
 2001210:	1000011e 	bne	r2,zero,2001218 <_Z17setUpPIControllerv+0x374>
	pController = new CPIController(uiMaxSpeed, uiT, -1*uiMaxSpeed, uiMaxSpeed);

	// Get the MeasurementRequestMessage
	//LOG_DEBUG("MeasurementRequestSTart");

	while(true)
 2001214:	003f8b06 	br	2001044 <_Z17setUpPIControllerv+0x1a0>
	}

	LOG_DEBUG("MeasurementRequestMessageEnd");


	*pLED = *pLED & 0xFE;
 2001218:	d0e00017 	ldw	r3,-32768(gp)
 200121c:	d0a00017 	ldw	r2,-32768(gp)
 2001220:	10800017 	ldw	r2,0(r2)
 2001224:	10803f8c 	andi	r2,r2,254
 2001228:	18800015 	stw	r2,0(r3)
	((CMotorMeasurementMessage*) pMessage)->answerMessage((alt_16) uiMaxSpeed, WHEEL_SCALE, (alt_16) uiMaxSpeed, (alt_16) uiT, 0);
 200122c:	e13fc817 	ldw	r4,-224(fp)
 2001230:	d0a6fd17 	ldw	r2,-25612(gp)
 2001234:	117fffcc 	andi	r5,r2,65535
 2001238:	2960001c 	xori	r5,r5,32768
 200123c:	29600004 	addi	r5,r5,-32768
 2001240:	d0a6fd17 	ldw	r2,-25612(gp)
 2001244:	11ffffcc 	andi	r7,r2,65535
 2001248:	39e0001c 	xori	r7,r7,32768
 200124c:	39e00004 	addi	r7,r7,-32768
 2001250:	e0bfc517 	ldw	r2,-236(fp)
 2001254:	10bfffcc 	andi	r2,r2,65535
 2001258:	10a0001c 	xori	r2,r2,32768
 200125c:	10a00004 	addi	r2,r2,-32768
 2001260:	d8800015 	stw	r2,0(sp)
 2001264:	d8000115 	stw	zero,4(sp)
 2001268:	00bfffc4 	movi	r2,-1
 200126c:	e0bfea15 	stw	r2,-88(fp)
 2001270:	01805cc4 	movi	r6,371
 2001274:	2008c0c0 	call	2008c0c <_ZN24CMotorMeasurementMessage13answerMessageEstsss>

	pProtocol->getBytes(cBuffer);
 2001278:	d1270017 	ldw	r4,-25600(gp)
 200127c:	e17fc904 	addi	r5,fp,-220
 2001280:	20076e80 	call	20076e8 <_ZN12CCarProtocol8getBytesEPh>
	pSocket->Send(cBuffer, pProtocol->getLength());
 2001284:	d0a6ff17 	ldw	r2,-25604(gp)
 2001288:	e0bff815 	stw	r2,-32(fp)
 200128c:	d1270017 	ldw	r4,-25600(gp)
 2001290:	20075b00 	call	20075b0 <_ZN12CCarProtocol9getLengthEv>
 2001294:	100d883a 	mov	r6,r2
 2001298:	e17fc904 	addi	r5,fp,-220
 200129c:	e13ff817 	ldw	r4,-32(fp)
 20012a0:	20008840 	call	2000884 <_ZN16CEth_UART_Socket4SendEPhm>

	if(pProtocol){
 20012a4:	d0a70017 	ldw	r2,-25600(gp)
 20012a8:	1005003a 	cmpeq	r2,r2,zero
 20012ac:	10000a1e 	bne	r2,zero,20012d8 <_Z17setUpPIControllerv+0x434>
		delete(pProtocol);
 20012b0:	d0a70017 	ldw	r2,-25600(gp)
 20012b4:	1005003a 	cmpeq	r2,r2,zero
 20012b8:	1000061e 	bne	r2,zero,20012d4 <_Z17setUpPIControllerv+0x430>
 20012bc:	d0a70017 	ldw	r2,-25600(gp)
 20012c0:	10800017 	ldw	r2,0(r2)
 20012c4:	10800104 	addi	r2,r2,4
 20012c8:	10800017 	ldw	r2,0(r2)
 20012cc:	d1270017 	ldw	r4,-25600(gp)
 20012d0:	103ee83a 	callr	r2
		pProtocol = 0;
 20012d4:	d0270015 	stw	zero,-25600(gp)
	}


	return true;
 20012d8:	00c00044 	movi	r3,1
 20012dc:	e0fffb15 	stw	r3,-20(fp)
 20012e0:	e0bffb17 	ldw	r2,-20(fp)
 20012e4:	e0bffe15 	stw	r2,-8(fp)
 20012e8:	e13fe904 	addi	r4,fp,-92
 20012ec:	200d0900 	call	200d090 <_Unwind_SjLj_Unregister>
}
 20012f0:	e0bffe17 	ldw	r2,-8(fp)
 20012f4:	e037883a 	mov	sp,fp
 20012f8:	dfc00917 	ldw	ra,36(sp)
 20012fc:	df000817 	ldw	fp,32(sp)
 2001300:	ddc00717 	ldw	r23,28(sp)
 2001304:	dd800617 	ldw	r22,24(sp)
 2001308:	dd400517 	ldw	r21,20(sp)
 200130c:	dd000417 	ldw	r20,16(sp)
 2001310:	dcc00317 	ldw	r19,12(sp)
 2001314:	dc800217 	ldw	r18,8(sp)
 2001318:	dc400117 	ldw	r17,4(sp)
 200131c:	dc000017 	ldw	r16,0(sp)
 2001320:	dec00a04 	addi	sp,sp,40
 2001324:	f800283a 	ret

02001328 <_Z17waitForNextPacketv>:


	return true;
}

bool waitForNextPacket()
 2001328:	deffbe04 	addi	sp,sp,-264
 200132c:	dfc04115 	stw	ra,260(sp)
 2001330:	df004015 	stw	fp,256(sp)
 2001334:	ddc03f15 	stw	r23,252(sp)
 2001338:	dd803e15 	stw	r22,248(sp)
 200133c:	dd403d15 	stw	r21,244(sp)
 2001340:	dd003c15 	stw	r20,240(sp)
 2001344:	dcc03b15 	stw	r19,236(sp)
 2001348:	dc803a15 	stw	r18,232(sp)
 200134c:	dc403915 	stw	r17,228(sp)
 2001350:	dc003815 	stw	r16,224(sp)
 2001354:	df003804 	addi	fp,sp,224
 2001358:	00808074 	movhi	r2,513
 200135c:	10adca04 	addi	r2,r2,-18648
 2001360:	e0bff115 	stw	r2,-60(fp)
 2001364:	00808074 	movhi	r2,513
 2001368:	10890904 	addi	r2,r2,9252
 200136c:	e0bff215 	stw	r2,-56(fp)
 2001370:	e0bff304 	addi	r2,fp,-52
 2001374:	e0ffc804 	addi	r3,fp,-224
 2001378:	10c00015 	stw	r3,0(r2)
 200137c:	00c08034 	movhi	r3,512
 2001380:	18c50604 	addi	r3,r3,5144
 2001384:	10c00115 	stw	r3,4(r2)
 2001388:	16c00215 	stw	sp,8(r2)
 200138c:	e13feb04 	addi	r4,fp,-84
 2001390:	200d0800 	call	200d080 <_Unwind_SjLj_Register>
{
	CCarProtocol *pNewProtocol = 0;
 2001394:	e03fca15 	stw	zero,-216(fp)
	CCarMessage *pMessage = 0;
 2001398:	e03fc915 	stw	zero,-220(fp)
	alt_u8 cBuffer[128];
	alt_u32 uiReceivedCount = 0;
 200139c:	e03fc815 	stw	zero,-224(fp)

	// Get new package
	uiReceivedCount = pSocket->ReceiveImmediate(cBuffer, 128);
 20013a0:	d126ff17 	ldw	r4,-25604(gp)
 20013a4:	e17fcb04 	addi	r5,fp,-212
 20013a8:	00bfffc4 	movi	r2,-1
 20013ac:	e0bfec15 	stw	r2,-80(fp)
 20013b0:	01802004 	movi	r6,128
 20013b4:	20006840 	call	2000684 <_ZN16CEth_UART_Socket16ReceiveImmediateEPhm>
 20013b8:	e0bfc815 	stw	r2,-224(fp)
	if(uiReceivedCount > 0)
 20013bc:	e0bfc817 	ldw	r2,-224(fp)
 20013c0:	1005003a 	cmpeq	r2,r2,zero
 20013c4:	1000581e 	bne	r2,zero,2001528 <_Z17waitForNextPacketv+0x200>
	{
		*pLED = *pLED & 0xEF;
 20013c8:	d0e00017 	ldw	r3,-32768(gp)
 20013cc:	d0a00017 	ldw	r2,-32768(gp)
 20013d0:	10800017 	ldw	r2,0(r2)
 20013d4:	10803bcc 	andi	r2,r2,239
 20013d8:	18800015 	stw	r2,0(r3)

		pNewProtocol = new CCarProtocol(cBuffer, uiReceivedCount);
 20013dc:	01000b04 	movi	r4,44
 20013e0:	200bea80 	call	200bea8 <_Znwm>
 20013e4:	e0bffd15 	stw	r2,-12(fp)
 20013e8:	e1bfc817 	ldw	r6,-224(fp)
 20013ec:	e17fcb04 	addi	r5,fp,-212
 20013f0:	00800044 	movi	r2,1
 20013f4:	e0bfec15 	stw	r2,-80(fp)
 20013f8:	e13ffd17 	ldw	r4,-12(fp)
 20013fc:	2008b080 	call	2008b08 <_ZN12CCarProtocolC1EPhi>
 2001400:	e0bffd17 	ldw	r2,-12(fp)
 2001404:	e0bfca15 	stw	r2,-216(fp)
		LOG_DEBUG("cBuffer: '%c%c%c%c' 0x%0X%0X%0X%0X 0x%0X%0X%0X%0X", cBuffer[0], cBuffer[1],
				cBuffer[2], cBuffer[3], cBuffer[4], cBuffer[5], cBuffer[6], cBuffer[7],
				cBuffer[8], cBuffer[9], cBuffer[10], cBuffer[11]);

		// Is there a VelocityMessage then set the desired speed along with the message
		if(pNewProtocol != 0 && pNewProtocol->isValid() && pNewProtocol->getMessageCount() > 0)
 2001408:	e0bfca17 	ldw	r2,-216(fp)
 200140c:	1005003a 	cmpeq	r2,r2,zero
 2001410:	10001d1e 	bne	r2,zero,2001488 <_Z17waitForNextPacketv+0x160>
 2001414:	00000d06 	br	200144c <_Z17waitForNextPacketv+0x124>
 2001418:	e7003804 	addi	fp,fp,224
 200141c:	e0ffed17 	ldw	r3,-76(fp)
 2001420:	e0ffff15 	stw	r3,-4(fp)
 2001424:	e0bfff17 	ldw	r2,-4(fp)
 2001428:	e0bff815 	stw	r2,-32(fp)
	uiReceivedCount = pSocket->ReceiveImmediate(cBuffer, 128);
	if(uiReceivedCount > 0)
	{
		*pLED = *pLED & 0xEF;

		pNewProtocol = new CCarProtocol(cBuffer, uiReceivedCount);
 200142c:	e13ffd17 	ldw	r4,-12(fp)
 2001430:	200bc9c0 	call	200bc9c <_ZdlPv>
 2001434:	e0fff817 	ldw	r3,-32(fp)
 2001438:	e0ffff15 	stw	r3,-4(fp)
 200143c:	00bfffc4 	movi	r2,-1
 2001440:	e0bfec15 	stw	r2,-80(fp)
 2001444:	e13fff17 	ldw	r4,-4(fp)
 2001448:	200d34c0 	call	200d34c <_Unwind_SjLj_Resume>
		LOG_DEBUG("cBuffer: '%c%c%c%c' 0x%0X%0X%0X%0X 0x%0X%0X%0X%0X", cBuffer[0], cBuffer[1],
				cBuffer[2], cBuffer[3], cBuffer[4], cBuffer[5], cBuffer[6], cBuffer[7],
				cBuffer[8], cBuffer[9], cBuffer[10], cBuffer[11]);

		// Is there a VelocityMessage then set the desired speed along with the message
		if(pNewProtocol != 0 && pNewProtocol->isValid() && pNewProtocol->getMessageCount() > 0)
 200144c:	00bfffc4 	movi	r2,-1
 2001450:	e0bfec15 	stw	r2,-80(fp)
 2001454:	e13fca17 	ldw	r4,-216(fp)
 2001458:	20075840 	call	2007584 <_ZN12CCarProtocol7isValidEv>
 200145c:	1080005c 	xori	r2,r2,1
 2001460:	10803fcc 	andi	r2,r2,255
 2001464:	1004c03a 	cmpne	r2,r2,zero
 2001468:	1000071e 	bne	r2,zero,2001488 <_Z17waitForNextPacketv+0x160>
 200146c:	e13fca17 	ldw	r4,-216(fp)
 2001470:	20076c00 	call	20076c0 <_ZN12CCarProtocol15getMessageCountEv>
 2001474:	1005003a 	cmpeq	r2,r2,zero
 2001478:	1000031e 	bne	r2,zero,2001488 <_Z17waitForNextPacketv+0x160>
 200147c:	00800044 	movi	r2,1
 2001480:	e0bffc85 	stb	r2,-14(fp)
 2001484:	00000106 	br	200148c <_Z17waitForNextPacketv+0x164>
 2001488:	e03ffc85 	stb	zero,-14(fp)
 200148c:	e0bffc83 	ldbu	r2,-14(fp)
 2001490:	10803fcc 	andi	r2,r2,255
 2001494:	1005003a 	cmpeq	r2,r2,zero
 2001498:	1000281e 	bne	r2,zero,200153c <_Z17waitForNextPacketv+0x214>
		{
			pMessage = pNewProtocol->getNthMessage(0);
 200149c:	00bfffc4 	movi	r2,-1
 20014a0:	e0bfec15 	stw	r2,-80(fp)
 20014a4:	e13fca17 	ldw	r4,-216(fp)
 20014a8:	000b883a 	mov	r5,zero
 20014ac:	20076600 	call	2007660 <_ZN12CCarProtocol13getNthMessageEm>
 20014b0:	e0bfc915 	stw	r2,-220(fp)
			if(pMessage != 0 && pMessage->isValid() && pMessage->getType() == 4)
 20014b4:	e0bfc917 	ldw	r2,-220(fp)
 20014b8:	1005003a 	cmpeq	r2,r2,zero
 20014bc:	10000e1e 	bne	r2,zero,20014f8 <_Z17waitForNextPacketv+0x1d0>
 20014c0:	e13fc917 	ldw	r4,-220(fp)
 20014c4:	2006f980 	call	2006f98 <_ZN11CCarMessage7isValidEv>
 20014c8:	1080005c 	xori	r2,r2,1
 20014cc:	10803fcc 	andi	r2,r2,255
 20014d0:	1004c03a 	cmpne	r2,r2,zero
 20014d4:	1000081e 	bne	r2,zero,20014f8 <_Z17waitForNextPacketv+0x1d0>
 20014d8:	e13fc917 	ldw	r4,-220(fp)
 20014dc:	2006f400 	call	2006f40 <_ZN11CCarMessage7getTypeEv>
 20014e0:	10803fcc 	andi	r2,r2,255
 20014e4:	10800118 	cmpnei	r2,r2,4
 20014e8:	1000031e 	bne	r2,zero,20014f8 <_Z17waitForNextPacketv+0x1d0>
 20014ec:	00c00044 	movi	r3,1
 20014f0:	e0fffc45 	stb	r3,-15(fp)
 20014f4:	00000106 	br	20014fc <_Z17waitForNextPacketv+0x1d4>
 20014f8:	e03ffc45 	stb	zero,-15(fp)
 20014fc:	e0bffc43 	ldbu	r2,-15(fp)
 2001500:	10803fcc 	andi	r2,r2,255
 2001504:	1005003a 	cmpeq	r2,r2,zero
 2001508:	10000c1e 	bne	r2,zero,200153c <_Z17waitForNextPacketv+0x214>
			{
				iDesiredSpeed = ((CMotorVelocityMessage*) pMessage)->getIDesiredSpeed();
 200150c:	e13fc917 	ldw	r4,-220(fp)
 2001510:	2001fc00 	call	2001fc0 <_ZNK21CMotorVelocityMessage16getIDesiredSpeedEv>
 2001514:	10bfffcc 	andi	r2,r2,65535
 2001518:	10a0001c 	xori	r2,r2,32768
 200151c:	10a00004 	addi	r2,r2,-32768
 2001520:	d0a6fc15 	stw	r2,-25616(gp)
 2001524:	00000506 	br	200153c <_Z17waitForNextPacketv+0x214>
			}
		}
	}
	else
	{
		*pLED = *pLED | 0x10;
 2001528:	d0e00017 	ldw	r3,-32768(gp)
 200152c:	d0a00017 	ldw	r2,-32768(gp)
 2001530:	10800017 	ldw	r2,0(r2)
 2001534:	10800414 	ori	r2,r2,16
 2001538:	18800015 	stw	r2,0(r3)
	}
	LOG_DEBUG("send answer of last packet");

	// Send answer of the last packet
	if(pProtocol != 0 && pProtocol->isValid())
 200153c:	d0a70017 	ldw	r2,-25600(gp)
 2001540:	1005003a 	cmpeq	r2,r2,zero
 2001544:	10000b1e 	bne	r2,zero,2001574 <_Z17waitForNextPacketv+0x24c>
 2001548:	d1270017 	ldw	r4,-25600(gp)
 200154c:	00bfffc4 	movi	r2,-1
 2001550:	e0bfec15 	stw	r2,-80(fp)
 2001554:	20075840 	call	2007584 <_ZN12CCarProtocol7isValidEv>
 2001558:	1080005c 	xori	r2,r2,1
 200155c:	10803fcc 	andi	r2,r2,255
 2001560:	1004c03a 	cmpne	r2,r2,zero
 2001564:	1000031e 	bne	r2,zero,2001574 <_Z17waitForNextPacketv+0x24c>
 2001568:	00800044 	movi	r2,1
 200156c:	e0bffc05 	stb	r2,-16(fp)
 2001570:	00000106 	br	2001578 <_Z17waitForNextPacketv+0x250>
 2001574:	e03ffc05 	stb	zero,-16(fp)
 2001578:	e0bffc03 	ldbu	r2,-16(fp)
 200157c:	10803fcc 	andi	r2,r2,255
 2001580:	1005003a 	cmpeq	r2,r2,zero
 2001584:	1000101e 	bne	r2,zero,20015c8 <_Z17waitForNextPacketv+0x2a0>
	{
		if(!pProtocol->getBytes(cBuffer))
 2001588:	d1270017 	ldw	r4,-25600(gp)
 200158c:	e17fcb04 	addi	r5,fp,-212
 2001590:	00bfffc4 	movi	r2,-1
 2001594:	e0bfec15 	stw	r2,-80(fp)
 2001598:	20076e80 	call	20076e8 <_ZN12CCarProtocol8getBytesEPh>
 200159c:	1080005c 	xori	r2,r2,1
 20015a0:	10803fcc 	andi	r2,r2,255
 20015a4:	1005003a 	cmpeq	r2,r2,zero
 20015a8:	1000071e 	bne	r2,zero,20015c8 <_Z17waitForNextPacketv+0x2a0>
		{
			*pLED = *pLED | 0x02;
 20015ac:	d0e00017 	ldw	r3,-32768(gp)
 20015b0:	d0a00017 	ldw	r2,-32768(gp)
 20015b4:	10800017 	ldw	r2,0(r2)
 20015b8:	10800094 	ori	r2,r2,2
 20015bc:	18800015 	stw	r2,0(r3)
			return false;
 20015c0:	e03ffb15 	stw	zero,-20(fp)
 20015c4:	00003506 	br	200169c <_Z17waitForNextPacketv+0x374>
		}
	}
	LOG_DEBUG("delete old protokol");

	if(pNewProtocol != 0 && pNewProtocol->isValid() && pNewProtocol->getMessageCount() > 0)
 20015c8:	e0bfca17 	ldw	r2,-216(fp)
 20015cc:	1005003a 	cmpeq	r2,r2,zero
 20015d0:	10000f1e 	bne	r2,zero,2001610 <_Z17waitForNextPacketv+0x2e8>
 20015d4:	00bfffc4 	movi	r2,-1
 20015d8:	e0bfec15 	stw	r2,-80(fp)
 20015dc:	e13fca17 	ldw	r4,-216(fp)
 20015e0:	20075840 	call	2007584 <_ZN12CCarProtocol7isValidEv>
 20015e4:	1080005c 	xori	r2,r2,1
 20015e8:	10803fcc 	andi	r2,r2,255
 20015ec:	1004c03a 	cmpne	r2,r2,zero
 20015f0:	1000071e 	bne	r2,zero,2001610 <_Z17waitForNextPacketv+0x2e8>
 20015f4:	e13fca17 	ldw	r4,-216(fp)
 20015f8:	20076c00 	call	20076c0 <_ZN12CCarProtocol15getMessageCountEv>
 20015fc:	1005003a 	cmpeq	r2,r2,zero
 2001600:	1000031e 	bne	r2,zero,2001610 <_Z17waitForNextPacketv+0x2e8>
 2001604:	00c00044 	movi	r3,1
 2001608:	e0fffa05 	stb	r3,-24(fp)
 200160c:	00000106 	br	2001614 <_Z17waitForNextPacketv+0x2ec>
 2001610:	e03ffa05 	stb	zero,-24(fp)
 2001614:	e0bffa03 	ldbu	r2,-24(fp)
 2001618:	10803fcc 	andi	r2,r2,255
 200161c:	1005003a 	cmpeq	r2,r2,zero
 2001620:	10001c1e 	bne	r2,zero,2001694 <_Z17waitForNextPacketv+0x36c>
	{
		pNewProtocol->getBytes(cBuffer);
 2001624:	e17fcb04 	addi	r5,fp,-212
 2001628:	00bfffc4 	movi	r2,-1
 200162c:	e0bfec15 	stw	r2,-80(fp)
 2001630:	e13fca17 	ldw	r4,-216(fp)
 2001634:	20076e80 	call	20076e8 <_ZN12CCarProtocol8getBytesEPh>
		pSocket->Send(cBuffer, pNewProtocol->getLength());
 2001638:	d0a6ff17 	ldw	r2,-25604(gp)
 200163c:	e0bff915 	stw	r2,-28(fp)
 2001640:	e13fca17 	ldw	r4,-216(fp)
 2001644:	20075b00 	call	20075b0 <_ZN12CCarProtocol9getLengthEv>
 2001648:	100d883a 	mov	r6,r2
 200164c:	e17fcb04 	addi	r5,fp,-212
 2001650:	e13ff917 	ldw	r4,-28(fp)
 2001654:	20008840 	call	2000884 <_ZN16CEth_UART_Socket4SendEPhm>
		//printf("send NewProtocol\n");
		// Delete old Packet
		if(pProtocol)
 2001658:	d0a70017 	ldw	r2,-25600(gp)
 200165c:	1005003a 	cmpeq	r2,r2,zero
 2001660:	10000a1e 	bne	r2,zero,200168c <_Z17waitForNextPacketv+0x364>
		{
			delete(pProtocol);
 2001664:	d0a70017 	ldw	r2,-25600(gp)
 2001668:	1005003a 	cmpeq	r2,r2,zero
 200166c:	1000061e 	bne	r2,zero,2001688 <_Z17waitForNextPacketv+0x360>
 2001670:	d0a70017 	ldw	r2,-25600(gp)
 2001674:	10800017 	ldw	r2,0(r2)
 2001678:	10800104 	addi	r2,r2,4
 200167c:	10800017 	ldw	r2,0(r2)
 2001680:	d1270017 	ldw	r4,-25600(gp)
 2001684:	103ee83a 	callr	r2
			pProtocol = 0;
 2001688:	d0270015 	stw	zero,-25600(gp)
		}

		pProtocol = pNewProtocol;
 200168c:	e0bfca17 	ldw	r2,-216(fp)
 2001690:	d0a70015 	stw	r2,-25600(gp)
	}

	return true;
 2001694:	00c00044 	movi	r3,1
 2001698:	e0fffb15 	stw	r3,-20(fp)
 200169c:	e0bffb17 	ldw	r2,-20(fp)
 20016a0:	e0bffe15 	stw	r2,-8(fp)
 20016a4:	e13feb04 	addi	r4,fp,-84
 20016a8:	200d0900 	call	200d090 <_Unwind_SjLj_Unregister>
}
 20016ac:	e0bffe17 	ldw	r2,-8(fp)
 20016b0:	e037883a 	mov	sp,fp
 20016b4:	dfc00917 	ldw	ra,36(sp)
 20016b8:	df000817 	ldw	fp,32(sp)
 20016bc:	ddc00717 	ldw	r23,28(sp)
 20016c0:	dd800617 	ldw	r22,24(sp)
 20016c4:	dd400517 	ldw	r21,20(sp)
 20016c8:	dd000417 	ldw	r20,16(sp)
 20016cc:	dcc00317 	ldw	r19,12(sp)
 20016d0:	dc800217 	ldw	r18,8(sp)
 20016d4:	dc400117 	ldw	r17,4(sp)
 20016d8:	dc000017 	ldw	r16,0(sp)
 20016dc:	dec00a04 	addi	sp,sp,40
 20016e0:	f800283a 	ret

020016e4 <_Z12controlSpeedv>:


	return false;
}

bool controlSpeed()
 20016e4:	defffb04 	addi	sp,sp,-20
 20016e8:	dfc00415 	stw	ra,16(sp)
 20016ec:	df000315 	stw	fp,12(sp)
 20016f0:	df000304 	addi	fp,sp,12
{
	alt_32 iNextSpeed = 0;
 20016f4:	e03ffe15 	stw	zero,-8(fp)

	// Finish running speed measurement
	iCurrentSpeed = measureSpeed();
 20016f8:	2000c580 	call	2000c58 <_Z12measureSpeedv>
 20016fc:	d0a6fb15 	stw	r2,-25620(gp)
	iCurrentSpeed = iCurrentSpeed * (-1); //Die Motoren auf dieser Seite sind um 180 Grad gedreht, insofern muss der Wert invertiert werden
 2001700:	d0a6fb17 	ldw	r2,-25620(gp)
 2001704:	0085c83a 	sub	r2,zero,r2
 2001708:	d0a6fb15 	stw	r2,-25620(gp)
	// Call PI-Controller with speed error
	iNextSpeed = pController->control(iDesiredSpeed - iCurrentSpeed);
 200170c:	d126fe17 	ldw	r4,-25608(gp)
 2001710:	d0e6fc17 	ldw	r3,-25616(gp)
 2001714:	d0a6fb17 	ldw	r2,-25620(gp)
 2001718:	188bc83a 	sub	r5,r3,r2
 200171c:	20021140 	call	2002114 <_ZN13CPIController7controlEl>
 2001720:	e0bffe15 	stw	r2,-8(fp)
	// Set new speed
	setSpeed(iNextSpeed + iCurrentSpeed);
 2001724:	d0e6fb17 	ldw	r3,-25620(gp)
 2001728:	e0bffe17 	ldw	r2,-8(fp)
 200172c:	1889883a 	add	r4,r3,r2
 2001730:	2000b080 	call	2000b08 <_Z8setSpeedl>
	//LOG_DEBUG("iNextSpeed: %hd iCurrentSpeed: %hd",iNextSpeed,iCurrentSpeed);

	// Is there a VelocityMessage then set the current speed as an answer
	if(pProtocol != 0 && pProtocol->isValid() && pProtocol->getMessageCount() > 0)
 2001734:	d0a70017 	ldw	r2,-25600(gp)
 2001738:	1005003a 	cmpeq	r2,r2,zero
 200173c:	10000d1e 	bne	r2,zero,2001774 <_Z12controlSpeedv+0x90>
 2001740:	d1270017 	ldw	r4,-25600(gp)
 2001744:	20075840 	call	2007584 <_ZN12CCarProtocol7isValidEv>
 2001748:	1080005c 	xori	r2,r2,1
 200174c:	10803fcc 	andi	r2,r2,255
 2001750:	1004c03a 	cmpne	r2,r2,zero
 2001754:	1000071e 	bne	r2,zero,2001774 <_Z12controlSpeedv+0x90>
 2001758:	d1270017 	ldw	r4,-25600(gp)
 200175c:	20076c00 	call	20076c0 <_ZN12CCarProtocol15getMessageCountEv>
 2001760:	1005003a 	cmpeq	r2,r2,zero
 2001764:	1000031e 	bne	r2,zero,2001774 <_Z12controlSpeedv+0x90>
 2001768:	00800044 	movi	r2,1
 200176c:	e0bfff45 	stb	r2,-3(fp)
 2001770:	00000106 	br	2001778 <_Z12controlSpeedv+0x94>
 2001774:	e03fff45 	stb	zero,-3(fp)
 2001778:	e0bfff43 	ldbu	r2,-3(fp)
 200177c:	10803fcc 	andi	r2,r2,255
 2001780:	1005003a 	cmpeq	r2,r2,zero
 2001784:	1000201e 	bne	r2,zero,2001808 <_Z12controlSpeedv+0x124>
	{
		CCarMessage *pMessage = pProtocol->getNthMessage(0);
 2001788:	d1270017 	ldw	r4,-25600(gp)
 200178c:	000b883a 	mov	r5,zero
 2001790:	20076600 	call	2007660 <_ZN12CCarProtocol13getNthMessageEm>
 2001794:	e0bffd15 	stw	r2,-12(fp)
		if(pMessage != 0 && pMessage->isValid() && pMessage->getType() == 4)
 2001798:	e0bffd17 	ldw	r2,-12(fp)
 200179c:	1005003a 	cmpeq	r2,r2,zero
 20017a0:	10000e1e 	bne	r2,zero,20017dc <_Z12controlSpeedv+0xf8>
 20017a4:	e13ffd17 	ldw	r4,-12(fp)
 20017a8:	2006f980 	call	2006f98 <_ZN11CCarMessage7isValidEv>
 20017ac:	1080005c 	xori	r2,r2,1
 20017b0:	10803fcc 	andi	r2,r2,255
 20017b4:	1004c03a 	cmpne	r2,r2,zero
 20017b8:	1000081e 	bne	r2,zero,20017dc <_Z12controlSpeedv+0xf8>
 20017bc:	e13ffd17 	ldw	r4,-12(fp)
 20017c0:	2006f400 	call	2006f40 <_ZN11CCarMessage7getTypeEv>
 20017c4:	10803fcc 	andi	r2,r2,255
 20017c8:	10800118 	cmpnei	r2,r2,4
 20017cc:	1000031e 	bne	r2,zero,20017dc <_Z12controlSpeedv+0xf8>
 20017d0:	00800044 	movi	r2,1
 20017d4:	e0bfff05 	stb	r2,-4(fp)
 20017d8:	00000106 	br	20017e0 <_Z12controlSpeedv+0xfc>
 20017dc:	e03fff05 	stb	zero,-4(fp)
 20017e0:	e0bfff03 	ldbu	r2,-4(fp)
 20017e4:	10803fcc 	andi	r2,r2,255
 20017e8:	1005003a 	cmpeq	r2,r2,zero
 20017ec:	1000061e 	bne	r2,zero,2001808 <_Z12controlSpeedv+0x124>
		{
			((CMotorVelocityMessage*) pMessage)->answerMessage(iCurrentSpeed);
 20017f0:	e13ffd17 	ldw	r4,-12(fp)
 20017f4:	d0a6fb17 	ldw	r2,-25620(gp)
 20017f8:	117fffcc 	andi	r5,r2,65535
 20017fc:	2960001c 	xori	r5,r5,32768
 2001800:	29600004 	addi	r5,r5,-32768
 2001804:	20095ec0 	call	20095ec <_ZN21CMotorVelocityMessage13answerMessageEs>
		}
	}


	return true;
 2001808:	00800044 	movi	r2,1
}
 200180c:	e037883a 	mov	sp,fp
 2001810:	dfc00117 	ldw	ra,4(sp)
 2001814:	df000017 	ldw	fp,0(sp)
 2001818:	dec00204 	addi	sp,sp,8
 200181c:	f800283a 	ret

02001820 <_Z11sendWelcomev>:

	// This function is always successful
	return true;
}

bool sendWelcome()
 2001820:	deffb804 	addi	sp,sp,-288
 2001824:	dfc04715 	stw	ra,284(sp)
 2001828:	df004615 	stw	fp,280(sp)
 200182c:	ddc04515 	stw	r23,276(sp)
 2001830:	dd804415 	stw	r22,272(sp)
 2001834:	dd404315 	stw	r21,268(sp)
 2001838:	dd004215 	stw	r20,264(sp)
 200183c:	dcc04115 	stw	r19,260(sp)
 2001840:	dc804015 	stw	r18,256(sp)
 2001844:	dc403f15 	stw	r17,252(sp)
 2001848:	dc003e15 	stw	r16,248(sp)
 200184c:	df003e04 	addi	fp,sp,248
 2001850:	00808074 	movhi	r2,513
 2001854:	10adca04 	addi	r2,r2,-18648
 2001858:	e0bfee15 	stw	r2,-72(fp)
 200185c:	00808074 	movhi	r2,513
 2001860:	10890a84 	addi	r2,r2,9258
 2001864:	e0bfef15 	stw	r2,-68(fp)
 2001868:	e0bff004 	addi	r2,fp,-64
 200186c:	e0ffc304 	addi	r3,fp,-244
 2001870:	10c00015 	stw	r3,0(r2)
 2001874:	00c08034 	movhi	r3,512
 2001878:	18c6b304 	addi	r3,r3,6860
 200187c:	10c00115 	stw	r3,4(r2)
 2001880:	16c00215 	stw	sp,8(r2)
 2001884:	e13fe804 	addi	r4,fp,-96
 2001888:	200d0800 	call	200d080 <_Unwind_SjLj_Register>
{
	LOG_DEBUG("wait entry");

	CCarMessage * pMessage = 0;
 200188c:	e03fc615 	stw	zero,-232(fp)
	alt_u32 uiTries = 0;         // Counts the tries, if >= 5 return
 2001890:	e03fc515 	stw	zero,-236(fp)
	alt_u8 cBuffer[128];         // Standard byte buffer
	alt_u32 uiReceivedCount = 0; // Count of received bytes (further: iLength)
 2001894:	e03fc415 	stw	zero,-240(fp)

	// Prepare welcome message
	LOG_DEBUG("allocate msg");

	// set led on
	*pLED |= 0x01;
 2001898:	d0e00017 	ldw	r3,-32768(gp)
 200189c:	d0a00017 	ldw	r2,-32768(gp)
 20018a0:	10800017 	ldw	r2,0(r2)
 20018a4:	10800054 	ori	r2,r2,1
 20018a8:	18800015 	stw	r2,0(r3)
 20018ac:	00000006 	br	20018b0 <_Z11sendWelcomev+0x90>
	while(true)
	{
		LOG_DEBUG("loop %d",  (int) uiTries);

		// Put the WelcomeMessage into the protocol wrapper.
		if(pProtocol) {
 20018b0:	d0a70017 	ldw	r2,-25600(gp)
 20018b4:	1005003a 	cmpeq	r2,r2,zero
 20018b8:	10000c1e 	bne	r2,zero,20018ec <_Z11sendWelcomev+0xcc>
			delete(pProtocol);
 20018bc:	d0a70017 	ldw	r2,-25600(gp)
 20018c0:	1005003a 	cmpeq	r2,r2,zero
 20018c4:	1000081e 	bne	r2,zero,20018e8 <_Z11sendWelcomev+0xc8>
 20018c8:	d0a70017 	ldw	r2,-25600(gp)
 20018cc:	10800017 	ldw	r2,0(r2)
 20018d0:	10800104 	addi	r2,r2,4
 20018d4:	10c00017 	ldw	r3,0(r2)
 20018d8:	d1270017 	ldw	r4,-25600(gp)
 20018dc:	00bfffc4 	movi	r2,-1
 20018e0:	e0bfe915 	stw	r2,-92(fp)
 20018e4:	183ee83a 	callr	r3
			pProtocol = 0;
 20018e8:	d0270015 	stw	zero,-25600(gp)
		}
		wMsg = new CWelcomeMessage(FIRMWARE_VERSION, COMPONENT_TYPE, COMPONENT_ID, uiAvailableOperations);
 20018ec:	00bfffc4 	movi	r2,-1
 20018f0:	e0bfe915 	stw	r2,-92(fp)
 20018f4:	01000504 	movi	r4,20
 20018f8:	200bea80 	call	200bea8 <_Znwm>
 20018fc:	e0bffc15 	stw	r2,-16(fp)
 2001900:	d0a6fa04 	addi	r2,gp,-25624
 2001904:	d8800015 	stw	r2,0(sp)
 2001908:	008000c4 	movi	r2,3
 200190c:	e0bfe915 	stw	r2,-92(fp)
 2001910:	e13ffc17 	ldw	r4,-16(fp)
 2001914:	01400404 	movi	r5,16
 2001918:	01800044 	movi	r6,1
 200191c:	01c000c4 	movi	r7,3
 2001920:	200a9fc0 	call	200a9fc <_ZN15CWelcomeMessageC1EhhhPh>
 2001924:	e0bffc17 	ldw	r2,-16(fp)
 2001928:	e0bfc715 	stw	r2,-228(fp)
		pProtocol = new CCarProtocol(0, (CCarMessage **) &wMsg, 1);
 200192c:	00bfffc4 	movi	r2,-1
 2001930:	e0bfe915 	stw	r2,-92(fp)
 2001934:	01000b04 	movi	r4,44
 2001938:	200bea80 	call	200bea8 <_Znwm>
 200193c:	e0bffb15 	stw	r2,-20(fp)
 2001940:	e1bfc704 	addi	r6,fp,-228
 2001944:	00800084 	movi	r2,2
 2001948:	e0bfe915 	stw	r2,-92(fp)
 200194c:	e13ffb17 	ldw	r4,-20(fp)
 2001950:	000b883a 	mov	r5,zero
 2001954:	01c00044 	movi	r7,1
 2001958:	20074c40 	call	20074c4 <_ZN12CCarProtocolC1EtPP11CCarMessagem>
 200195c:	00000a06 	br	2001988 <_Z11sendWelcomev+0x168>
 2001960:	e0fffe17 	ldw	r3,-8(fp)
 2001964:	e0fff715 	stw	r3,-36(fp)
		// Put the WelcomeMessage into the protocol wrapper.
		if(pProtocol) {
			delete(pProtocol);
			pProtocol = 0;
		}
		wMsg = new CWelcomeMessage(FIRMWARE_VERSION, COMPONENT_TYPE, COMPONENT_ID, uiAvailableOperations);
 2001968:	e13ffc17 	ldw	r4,-16(fp)
 200196c:	200bc9c0 	call	200bc9c <_ZdlPv>
 2001970:	e0bff717 	ldw	r2,-36(fp)
 2001974:	e0bffe15 	stw	r2,-8(fp)
 2001978:	00bfffc4 	movi	r2,-1
 200197c:	e0bfe915 	stw	r2,-92(fp)
 2001980:	e13ffe17 	ldw	r4,-8(fp)
 2001984:	200d34c0 	call	200d34c <_Unwind_SjLj_Resume>
		pProtocol = new CCarProtocol(0, (CCarMessage **) &wMsg, 1);
 2001988:	e0fffb17 	ldw	r3,-20(fp)
 200198c:	d0e70015 	stw	r3,-25600(gp)
		pProtocol->getBytes(cBuffer);
 2001990:	d1270017 	ldw	r4,-25600(gp)
 2001994:	e17fc804 	addi	r5,fp,-224
 2001998:	00bfffc4 	movi	r2,-1
 200199c:	e0bfe915 	stw	r2,-92(fp)
 20019a0:	20076e80 	call	20076e8 <_ZN12CCarProtocol8getBytesEPh>
		//LOG_DEBUG("cBuffer: '%c%c%c%c' 0x%02X%02X%02X%02X 0x%02X%02X%02X%02X", cBuffer[0], cBuffer[1],
			//	cBuffer[2], cBuffer[3], cBuffer[4], cBuffer[5], cBuffer[6], cBuffer[7],
			//	cBuffer[8], cBuffer[9], cBuffer[10], cBuffer[11]);

		// Send out the packet.
		if(uiTries % 50 == 0)
 20019a4:	e13fc517 	ldw	r4,-236(fp)
 20019a8:	01400c84 	movi	r5,50
 20019ac:	200d0400 	call	200d040 <__umodsi3>
 20019b0:	1005003a 	cmpeq	r2,r2,zero
 20019b4:	10000b1e 	bne	r2,zero,20019e4 <_Z11sendWelcomev+0x1c4>
 20019b8:	00001506 	br	2001a10 <_Z11sendWelcomev+0x1f0>
 20019bc:	e0bffe17 	ldw	r2,-8(fp)
 20019c0:	e0bff615 	stw	r2,-40(fp)
		if(pProtocol) {
			delete(pProtocol);
			pProtocol = 0;
		}
		wMsg = new CWelcomeMessage(FIRMWARE_VERSION, COMPONENT_TYPE, COMPONENT_ID, uiAvailableOperations);
		pProtocol = new CCarProtocol(0, (CCarMessage **) &wMsg, 1);
 20019c4:	e13ffb17 	ldw	r4,-20(fp)
 20019c8:	200bc9c0 	call	200bc9c <_ZdlPv>
 20019cc:	e0fff617 	ldw	r3,-40(fp)
 20019d0:	e0fffe15 	stw	r3,-8(fp)
 20019d4:	00bfffc4 	movi	r2,-1
 20019d8:	e0bfe915 	stw	r2,-92(fp)
 20019dc:	e13ffe17 	ldw	r4,-8(fp)
 20019e0:	200d34c0 	call	200d34c <_Unwind_SjLj_Resume>
			//	cBuffer[8], cBuffer[9], cBuffer[10], cBuffer[11]);

		// Send out the packet.
		if(uiTries % 50 == 0)
		{
			success = pSocket->Send(cBuffer, pProtocol->getLength());
 20019e4:	d0a6ff17 	ldw	r2,-25604(gp)
 20019e8:	e0bffa15 	stw	r2,-24(fp)
 20019ec:	d1270017 	ldw	r4,-25600(gp)
 20019f0:	00bfffc4 	movi	r2,-1
 20019f4:	e0bfe915 	stw	r2,-92(fp)
 20019f8:	20075b00 	call	20075b0 <_ZN12CCarProtocol9getLengthEv>
 20019fc:	100d883a 	mov	r6,r2
 2001a00:	e17fc804 	addi	r5,fp,-224
 2001a04:	e13ffa17 	ldw	r4,-24(fp)
 2001a08:	20008840 	call	2000884 <_ZN16CEth_UART_Socket4SendEPhm>
 2001a0c:	e0bfc305 	stb	r2,-244(fp)
		}
		//LOG_DEBUG("sent? %x", success);

		// Receive bytes from socket (timed blocking)
		uiReceivedCount = pSocket->Receive(cBuffer, 128, 10);
 2001a10:	d126ff17 	ldw	r4,-25604(gp)
 2001a14:	e17fc804 	addi	r5,fp,-224
 2001a18:	00bfffc4 	movi	r2,-1
 2001a1c:	e0bfe915 	stw	r2,-92(fp)
 2001a20:	01802004 	movi	r6,128
 2001a24:	01c00284 	movi	r7,10
 2001a28:	20007580 	call	2000758 <_ZN16CEth_UART_Socket7ReceiveEPhmm>
 2001a2c:	e0bfc415 	stw	r2,-240(fp)
		if(uiReceivedCount <= 0)
 2001a30:	e0bfc417 	ldw	r2,-240(fp)
 2001a34:	1004c03a 	cmpne	r2,r2,zero
 2001a38:	1000041e 	bne	r2,zero,2001a4c <_Z11sendWelcomev+0x22c>
		{
			//LOG_DEBUG("incomplete packet");
			uiTries++;
 2001a3c:	e0bfc517 	ldw	r2,-236(fp)
 2001a40:	10800044 	addi	r2,r2,1
 2001a44:	e0bfc515 	stw	r2,-236(fp)
			continue; // If nothing was received
 2001a48:	003f9906 	br	20018b0 <_Z11sendWelcomev+0x90>
		}
		
		// Is there a current protocol, delete it and generate a new one out of received data
		if(pProtocol){
 2001a4c:	d0a70017 	ldw	r2,-25600(gp)
 2001a50:	1005003a 	cmpeq	r2,r2,zero
 2001a54:	10000c1e 	bne	r2,zero,2001a88 <_Z11sendWelcomev+0x268>
			delete(pProtocol);
 2001a58:	d0a70017 	ldw	r2,-25600(gp)
 2001a5c:	1005003a 	cmpeq	r2,r2,zero
 2001a60:	1000081e 	bne	r2,zero,2001a84 <_Z11sendWelcomev+0x264>
 2001a64:	d0a70017 	ldw	r2,-25600(gp)
 2001a68:	10800017 	ldw	r2,0(r2)
 2001a6c:	10800104 	addi	r2,r2,4
 2001a70:	10c00017 	ldw	r3,0(r2)
 2001a74:	d1270017 	ldw	r4,-25600(gp)
 2001a78:	00bfffc4 	movi	r2,-1
 2001a7c:	e0bfe915 	stw	r2,-92(fp)
 2001a80:	183ee83a 	callr	r3
			pProtocol = 0;
 2001a84:	d0270015 	stw	zero,-25600(gp)
		}
		pProtocol = new CCarProtocol(cBuffer, uiReceivedCount);
 2001a88:	00bfffc4 	movi	r2,-1
 2001a8c:	e0bfe915 	stw	r2,-92(fp)
 2001a90:	01000b04 	movi	r4,44
 2001a94:	200bea80 	call	200bea8 <_Znwm>
 2001a98:	e0bff915 	stw	r2,-28(fp)
 2001a9c:	e1bfc417 	ldw	r6,-240(fp)
 2001aa0:	e17fc804 	addi	r5,fp,-224
 2001aa4:	00800044 	movi	r2,1
 2001aa8:	e0bfe915 	stw	r2,-92(fp)
 2001aac:	e13ff917 	ldw	r4,-28(fp)
 2001ab0:	2008b080 	call	2008b08 <_ZN12CCarProtocolC1EPhi>
 2001ab4:	e0fff917 	ldw	r3,-28(fp)
 2001ab8:	d0e70015 	stw	r3,-25600(gp)

		// Was the protocol generation unsuccessful then count one more try and continue
		if(pProtocol == 0 || !pProtocol->isValid() || pProtocol->getMessageCount() < 1u)
 2001abc:	d0a70017 	ldw	r2,-25600(gp)
 2001ac0:	1005003a 	cmpeq	r2,r2,zero
 2001ac4:	1000221e 	bne	r2,zero,2001b50 <_Z11sendWelcomev+0x330>
 2001ac8:	00001506 	br	2001b20 <_Z11sendWelcomev+0x300>
 2001acc:	e7003d04 	addi	fp,fp,244
 2001ad0:	e0bfe917 	ldw	r2,-92(fp)
 2001ad4:	e0bfff15 	stw	r2,-4(fp)
 2001ad8:	e0ffea17 	ldw	r3,-88(fp)
 2001adc:	e0fffe15 	stw	r3,-8(fp)
 2001ae0:	e0ffff17 	ldw	r3,-4(fp)
 2001ae4:	18800060 	cmpeqi	r2,r3,1
 2001ae8:	103fb41e 	bne	r2,zero,20019bc <_Z11sendWelcomev+0x19c>
 2001aec:	e0ffff17 	ldw	r3,-4(fp)
 2001af0:	188000a0 	cmpeqi	r2,r3,2
 2001af4:	103f9a1e 	bne	r2,zero,2001960 <_Z11sendWelcomev+0x140>
 2001af8:	e0bffe17 	ldw	r2,-8(fp)
 2001afc:	e0bff515 	stw	r2,-44(fp)
		// Is there a current protocol, delete it and generate a new one out of received data
		if(pProtocol){
			delete(pProtocol);
			pProtocol = 0;
		}
		pProtocol = new CCarProtocol(cBuffer, uiReceivedCount);
 2001b00:	e13ff917 	ldw	r4,-28(fp)
 2001b04:	200bc9c0 	call	200bc9c <_ZdlPv>
 2001b08:	e0fff517 	ldw	r3,-44(fp)
 2001b0c:	e0fffe15 	stw	r3,-8(fp)
 2001b10:	00bfffc4 	movi	r2,-1
 2001b14:	e0bfe915 	stw	r2,-92(fp)
 2001b18:	e13ffe17 	ldw	r4,-8(fp)
 2001b1c:	200d34c0 	call	200d34c <_Unwind_SjLj_Resume>

		// Was the protocol generation unsuccessful then count one more try and continue
		if(pProtocol == 0 || !pProtocol->isValid() || pProtocol->getMessageCount() < 1u)
 2001b20:	d1270017 	ldw	r4,-25600(gp)
 2001b24:	00bfffc4 	movi	r2,-1
 2001b28:	e0bfe915 	stw	r2,-92(fp)
 2001b2c:	20075840 	call	2007584 <_ZN12CCarProtocol7isValidEv>
 2001b30:	1080005c 	xori	r2,r2,1
 2001b34:	10803fcc 	andi	r2,r2,255
 2001b38:	1004c03a 	cmpne	r2,r2,zero
 2001b3c:	1000041e 	bne	r2,zero,2001b50 <_Z11sendWelcomev+0x330>
 2001b40:	d1270017 	ldw	r4,-25600(gp)
 2001b44:	20076c00 	call	20076c0 <_ZN12CCarProtocol15getMessageCountEv>
 2001b48:	1004c03a 	cmpne	r2,r2,zero
 2001b4c:	1000031e 	bne	r2,zero,2001b5c <_Z11sendWelcomev+0x33c>
 2001b50:	00800044 	movi	r2,1
 2001b54:	e0bff845 	stb	r2,-31(fp)
 2001b58:	00000106 	br	2001b60 <_Z11sendWelcomev+0x340>
 2001b5c:	e03ff845 	stb	zero,-31(fp)
 2001b60:	e0bff843 	ldbu	r2,-31(fp)
 2001b64:	10803fcc 	andi	r2,r2,255
 2001b68:	1005003a 	cmpeq	r2,r2,zero
 2001b6c:	1000041e 	bne	r2,zero,2001b80 <_Z11sendWelcomev+0x360>
		{
			//printf("invalid packet pProtocol %u isValid %d messageCount %1u\n", pProtocol, !pProtocol->isValid(), pProtocol->getMessageCount());
			uiTries++;
 2001b70:	e0bfc517 	ldw	r2,-236(fp)
 2001b74:	10800044 	addi	r2,r2,1
 2001b78:	e0bfc515 	stw	r2,-236(fp)
			continue;
 2001b7c:	003f4c06 	br	20018b0 <_Z11sendWelcomev+0x90>
		}

		// Check if the first message was a WelcomeMessage then break
		pMessage = pProtocol->getNthMessage(0);
 2001b80:	d1270017 	ldw	r4,-25600(gp)
 2001b84:	00bfffc4 	movi	r2,-1
 2001b88:	e0bfe915 	stw	r2,-92(fp)
 2001b8c:	000b883a 	mov	r5,zero
 2001b90:	20076600 	call	2007660 <_ZN12CCarProtocol13getNthMessageEm>
 2001b94:	e0bfc615 	stw	r2,-232(fp)
		if(pMessage->isValid() && pMessage->getType() == 0x01)
 2001b98:	e13fc617 	ldw	r4,-232(fp)
 2001b9c:	2006f980 	call	2006f98 <_ZN11CCarMessage7isValidEv>
 2001ba0:	1080005c 	xori	r2,r2,1
 2001ba4:	10803fcc 	andi	r2,r2,255
 2001ba8:	1004c03a 	cmpne	r2,r2,zero
 2001bac:	1000081e 	bne	r2,zero,2001bd0 <_Z11sendWelcomev+0x3b0>
 2001bb0:	e13fc617 	ldw	r4,-232(fp)
 2001bb4:	2006f400 	call	2006f40 <_ZN11CCarMessage7getTypeEv>
 2001bb8:	10803fcc 	andi	r2,r2,255
 2001bbc:	10800058 	cmpnei	r2,r2,1
 2001bc0:	1000031e 	bne	r2,zero,2001bd0 <_Z11sendWelcomev+0x3b0>
 2001bc4:	00c00044 	movi	r3,1
 2001bc8:	e0fff805 	stb	r3,-32(fp)
 2001bcc:	00000106 	br	2001bd4 <_Z11sendWelcomev+0x3b4>
 2001bd0:	e03ff805 	stb	zero,-32(fp)
 2001bd4:	e0bff803 	ldbu	r2,-32(fp)
 2001bd8:	10803fcc 	andi	r2,r2,255
 2001bdc:	1005003a 	cmpeq	r2,r2,zero
 2001be0:	1000171e 	bne	r2,zero,2001c40 <_Z11sendWelcomev+0x420>
		{
			LOG_DEBUG("valid message");
			*pLED &= 0xFE;
 2001be4:	d0e00017 	ldw	r3,-32768(gp)
 2001be8:	d0a00017 	ldw	r2,-32768(gp)
 2001bec:	10800017 	ldw	r2,0(r2)
 2001bf0:	10803f8c 	andi	r2,r2,254
 2001bf4:	18800015 	stw	r2,0(r3)
			if(pProtocol) {
 2001bf8:	d0a70017 	ldw	r2,-25600(gp)
 2001bfc:	1005003a 	cmpeq	r2,r2,zero
 2001c00:	10000c1e 	bne	r2,zero,2001c34 <_Z11sendWelcomev+0x414>
				delete(pProtocol);
 2001c04:	d0a70017 	ldw	r2,-25600(gp)
 2001c08:	1005003a 	cmpeq	r2,r2,zero
 2001c0c:	1000081e 	bne	r2,zero,2001c30 <_Z11sendWelcomev+0x410>
 2001c10:	d0a70017 	ldw	r2,-25600(gp)
 2001c14:	10800017 	ldw	r2,0(r2)
 2001c18:	10800104 	addi	r2,r2,4
 2001c1c:	10c00017 	ldw	r3,0(r2)
 2001c20:	d1270017 	ldw	r4,-25600(gp)
 2001c24:	00bfffc4 	movi	r2,-1
 2001c28:	e0bfe915 	stw	r2,-92(fp)
 2001c2c:	183ee83a 	callr	r3
				pProtocol = 0;
 2001c30:	d0270015 	stw	zero,-25600(gp)
			}
			return true;
 2001c34:	00800044 	movi	r2,1
 2001c38:	e0bffd15 	stw	r2,-12(fp)
 2001c3c:	00000406 	br	2001c50 <_Z11sendWelcomev+0x430>
		}
		uiTries++;
 2001c40:	e0bfc517 	ldw	r2,-236(fp)
 2001c44:	10800044 	addi	r2,r2,1
 2001c48:	e0bfc515 	stw	r2,-236(fp)
	// set led on
	*pLED |= 0x01;

	LOG_DEBUG("pre while");

	while(true)
 2001c4c:	003f1806 	br	20018b0 <_Z11sendWelcomev+0x90>
 2001c50:	e13fe804 	addi	r4,fp,-96
 2001c54:	200d0900 	call	200d090 <_Unwind_SjLj_Unregister>

	}


	return false;
}
 2001c58:	e0bffd17 	ldw	r2,-12(fp)
 2001c5c:	e037883a 	mov	sp,fp
 2001c60:	dfc00917 	ldw	ra,36(sp)
 2001c64:	df000817 	ldw	fp,32(sp)
 2001c68:	ddc00717 	ldw	r23,28(sp)
 2001c6c:	dd800617 	ldw	r22,24(sp)
 2001c70:	dd400517 	ldw	r21,20(sp)
 2001c74:	dd000417 	ldw	r20,16(sp)
 2001c78:	dcc00317 	ldw	r19,12(sp)
 2001c7c:	dc800217 	ldw	r18,8(sp)
 2001c80:	dc400117 	ldw	r17,4(sp)
 2001c84:	dc000017 	ldw	r16,0(sp)
 2001c88:	dec00a04 	addi	sp,sp,40
 2001c8c:	f800283a 	ret

02001c90 <_Z4initv>:

}



bool init()
 2001c90:	deffe504 	addi	sp,sp,-108
 2001c94:	dfc01a15 	stw	ra,104(sp)
 2001c98:	df001915 	stw	fp,100(sp)
 2001c9c:	ddc01815 	stw	r23,96(sp)
 2001ca0:	dd801715 	stw	r22,92(sp)
 2001ca4:	dd401615 	stw	r21,88(sp)
 2001ca8:	dd001515 	stw	r20,84(sp)
 2001cac:	dcc01415 	stw	r19,80(sp)
 2001cb0:	dc801315 	stw	r18,76(sp)
 2001cb4:	dc401215 	stw	r17,72(sp)
 2001cb8:	dc001115 	stw	r16,68(sp)
 2001cbc:	df001104 	addi	fp,sp,68
 2001cc0:	00808074 	movhi	r2,513
 2001cc4:	10adca04 	addi	r2,r2,-18648
 2001cc8:	e0bff515 	stw	r2,-44(fp)
 2001ccc:	00808074 	movhi	r2,513
 2001cd0:	10890d04 	addi	r2,r2,9268
 2001cd4:	e0bff615 	stw	r2,-40(fp)
 2001cd8:	e0bff704 	addi	r2,fp,-36
 2001cdc:	e0ffef04 	addi	r3,fp,-68
 2001ce0:	10c00015 	stw	r3,0(r2)
 2001ce4:	00c08034 	movhi	r3,512
 2001ce8:	18c75904 	addi	r3,r3,7524
 2001cec:	10c00115 	stw	r3,4(r2)
 2001cf0:	16c00215 	stw	sp,8(r2)
 2001cf4:	e13fef04 	addi	r4,fp,-68
 2001cf8:	200d0800 	call	200d080 <_Unwind_SjLj_Register>
{
	// Set speed to 0
	iDesiredSpeed = 0;
 2001cfc:	d026fc15 	stw	zero,-25616(gp)
	iCurrentSpeed = 0;
 2001d00:	d026fb15 	stw	zero,-25620(gp)
	setSpeed(0);
 2001d04:	00bfffc4 	movi	r2,-1
 2001d08:	e0bff015 	stw	r2,-64(fp)
 2001d0c:	0009883a 	mov	r4,zero
 2001d10:	2000b080 	call	2000b08 <_Z8setSpeedl>

	// Check LEDs
	*pLED = 0xFF;
 2001d14:	d0e00017 	ldw	r3,-32768(gp)
 2001d18:	00803fc4 	movi	r2,255
 2001d1c:	18800015 	stw	r2,0(r3)
	delay(1000);
 2001d20:	0100fa04 	movi	r4,1000
 2001d24:	20001f40 	call	20001f4 <_Z5delayj>
	*pLED = 0x00;
 2001d28:	d0a00017 	ldw	r2,-32768(gp)
 2001d2c:	10000015 	stw	zero,0(r2)

	bCycleFinished = false;
 2001d30:	d0270105 	stb	zero,-25596(gp)

	// Generate new socket object
	pSocket = new CEth_UART_Socket();
 2001d34:	01000204 	movi	r4,8
 2001d38:	200bea80 	call	200bea8 <_Znwm>
 2001d3c:	e0bffd15 	stw	r2,-12(fp)
 2001d40:	00800044 	movi	r2,1
 2001d44:	e0bff015 	stw	r2,-64(fp)
 2001d48:	e13ffd17 	ldw	r4,-12(fp)
 2001d4c:	200097c0 	call	200097c <_ZN16CEth_UART_SocketC1Ev>
 2001d50:	e0bffd17 	ldw	r2,-12(fp)
 2001d54:	d0a6ff15 	stw	r2,-25604(gp)

	// This function is always successful
	return true;
 2001d58:	00800044 	movi	r2,1
 2001d5c:	e0bffe15 	stw	r2,-8(fp)
 2001d60:	00000d06 	br	2001d98 <_Z4initv+0x108>
 2001d64:	e7001104 	addi	fp,fp,68
 2001d68:	e0fff117 	ldw	r3,-60(fp)
 2001d6c:	e0ffff15 	stw	r3,-4(fp)
 2001d70:	e0bfff17 	ldw	r2,-4(fp)
 2001d74:	e0bffc15 	stw	r2,-16(fp)
	*pLED = 0x00;

	bCycleFinished = false;

	// Generate new socket object
	pSocket = new CEth_UART_Socket();
 2001d78:	e13ffd17 	ldw	r4,-12(fp)
 2001d7c:	200bc9c0 	call	200bc9c <_ZdlPv>
 2001d80:	e0fffc17 	ldw	r3,-16(fp)
 2001d84:	e0ffff15 	stw	r3,-4(fp)
 2001d88:	00bfffc4 	movi	r2,-1
 2001d8c:	e0bff015 	stw	r2,-64(fp)
 2001d90:	e13fff17 	ldw	r4,-4(fp)
 2001d94:	200d34c0 	call	200d34c <_Unwind_SjLj_Resume>
 2001d98:	e13fef04 	addi	r4,fp,-68
 2001d9c:	200d0900 	call	200d090 <_Unwind_SjLj_Unregister>

	// This function is always successful
	return true;
}
 2001da0:	e0bffe17 	ldw	r2,-8(fp)
 2001da4:	e037883a 	mov	sp,fp
 2001da8:	dfc00917 	ldw	ra,36(sp)
 2001dac:	df000817 	ldw	fp,32(sp)
 2001db0:	ddc00717 	ldw	r23,28(sp)
 2001db4:	dd800617 	ldw	r22,24(sp)
 2001db8:	dd400517 	ldw	r21,20(sp)
 2001dbc:	dd000417 	ldw	r20,16(sp)
 2001dc0:	dcc00317 	ldw	r19,12(sp)
 2001dc4:	dc800217 	ldw	r18,8(sp)
 2001dc8:	dc400117 	ldw	r17,4(sp)
 2001dcc:	dc000017 	ldw	r16,0(sp)
 2001dd0:	dec00a04 	addi	sp,sp,40
 2001dd4:	f800283a 	ret

02001dd8 <main>:

// Export interface
#include "main.h"
#include "ErrHandler.h"

int main (void)
 2001dd8:	defff904 	addi	sp,sp,-28
 2001ddc:	dfc00615 	stw	ra,24(sp)
 2001de0:	df000515 	stw	fp,20(sp)
 2001de4:	dc000415 	stw	r16,16(sp)
 2001de8:	df000404 	addi	fp,sp,16




	bool ret;
	alt_u16 state = 0; // State to distinguish between the small cycles
 2001dec:	e03ffe0d 	sth	zero,-8(fp)
	CCarMessage *pCurrentMessage = 0; // The current message
 2001df0:	e03ffd15 	stw	zero,-12(fp)
	LOG_DEBUG("init");
	//printf("init");
	if(!init())
 2001df4:	2001c900 	call	2001c90 <_Z4initv>
 2001df8:	1080005c 	xori	r2,r2,1
 2001dfc:	10803fcc 	andi	r2,r2,255
 2001e00:	1004c03a 	cmpne	r2,r2,zero
 2001e04:	1000601e 	bne	r2,zero,2001f88 <main+0x1b0>
	{
		goto fail;
	}

	*pLED = 0xAA;
 2001e08:	d0e00017 	ldw	r3,-32768(gp)
 2001e0c:	00802a84 	movi	r2,170
 2001e10:	18800015 	stw	r2,0(r3)

	LOG_DEBUG("wait");
	ret = sendWelcome();
 2001e14:	20018200 	call	2001820 <_Z11sendWelcomev>
 2001e18:	e0bffe85 	stb	r2,-6(fp)
	if(!ret) {
 2001e1c:	e0bffe83 	ldbu	r2,-6(fp)
 2001e20:	1080005c 	xori	r2,r2,1
 2001e24:	10803fcc 	andi	r2,r2,255
 2001e28:	1004c03a 	cmpne	r2,r2,zero
 2001e2c:	1000561e 	bne	r2,zero,2001f88 <main+0x1b0>
		goto fail;
	}
	*pLED = 0;
 2001e30:	d0a00017 	ldw	r2,-32768(gp)
 2001e34:	10000015 	stw	zero,0(r2)

	LOG_DEBUG("setuppid");
	ret = setUpPIController();
 2001e38:	2000ea40 	call	2000ea4 <_Z17setUpPIControllerv>
 2001e3c:	e0bffe85 	stb	r2,-6(fp)
	if(!ret)
 2001e40:	e0bffe83 	ldbu	r2,-6(fp)
 2001e44:	1080005c 	xori	r2,r2,1
 2001e48:	10803fcc 	andi	r2,r2,255
 2001e4c:	1004c03a 	cmpne	r2,r2,zero
 2001e50:	10004d1e 	bne	r2,zero,2001f88 <main+0x1b0>
	}
	LOG_DEBUG("after setuppid");


	// Restore speed = 0
	iDesiredSpeed = 0;
 2001e54:	d026fc15 	stw	zero,-25616(gp)
	iCurrentSpeed = 0;
 2001e58:	d026fb15 	stw	zero,-25620(gp)
	setSpeed(0);
 2001e5c:	0009883a 	mov	r4,zero
 2001e60:	2000b080 	call	2000b08 <_Z8setSpeedl>
	//alt_alarm_start(&alarm, 10, callback, 0);

	// Small cycle:
	while(true)
	{
		if(!waitForNextPacket())
 2001e64:	20013280 	call	2001328 <_Z17waitForNextPacketv>
 2001e68:	1080005c 	xori	r2,r2,1
 2001e6c:	10803fcc 	andi	r2,r2,255
 2001e70:	1004c03a 	cmpne	r2,r2,zero
 2001e74:	1000441e 	bne	r2,zero,2001f88 <main+0x1b0>
			goto fail;
		//if(!waitForEndOfCycle())//	Alter Code, welcher noch zeitbasiert war. Die zeitbasierte Variante wurde fallengelassen, da das Cyclone 4 Board nicht zeitbasiert ist und eine Synchronisation aufgrund der Beschrnkungen seitens des Kommunikationsnetzwerks de facto unmglich erscheint
		//	goto fail;
		//LOG_DEBUG("EndofCycle");
		if(!controlSpeed())
 2001e78:	20016e40 	call	20016e4 <_Z12controlSpeedv>
 2001e7c:	1080005c 	xori	r2,r2,1
 2001e80:	10803fcc 	andi	r2,r2,255
 2001e84:	1004c03a 	cmpne	r2,r2,zero
 2001e88:	10003f1e 	bne	r2,zero,2001f88 <main+0x1b0>
		//}

		//else
		//{
			// Get current message and call doAction()
		for (state = 0; pProtocol != 0 && pProtocol->isValid() && state < pProtocol->getMessageCount(); state++)	{
 2001e8c:	e03ffe0d 	sth	zero,-8(fp)
 2001e90:	00002706 	br	2001f30 <main+0x158>
		//if(pProtocol != 0 && pProtocol->isValid() && state < pProtocol->getMessageCount())
		//	{
				alt_u32 count = pProtocol->getMessageCount();
 2001e94:	d1270017 	ldw	r4,-25600(gp)
 2001e98:	20076c00 	call	20076c0 <_ZN12CCarProtocol15getMessageCountEv>
 2001e9c:	e0bffc15 	stw	r2,-16(fp)
				count = count - state - 1;
 2001ea0:	e0fffe0b 	ldhu	r3,-8(fp)
 2001ea4:	e0bffc17 	ldw	r2,-16(fp)
 2001ea8:	10c5c83a 	sub	r2,r2,r3
 2001eac:	10bfffc4 	addi	r2,r2,-1
 2001eb0:	e0bffc15 	stw	r2,-16(fp)
				pCurrentMessage = 0;
 2001eb4:	e03ffd15 	stw	zero,-12(fp)
				pCurrentMessage = pProtocol->getNthMessage(count);
 2001eb8:	d1270017 	ldw	r4,-25600(gp)
 2001ebc:	e17ffc17 	ldw	r5,-16(fp)
 2001ec0:	20076600 	call	2007660 <_ZN12CCarProtocol13getNthMessageEm>
 2001ec4:	e0bffd15 	stw	r2,-12(fp)
				LOG_DEBUG("getNthMessage");
				if(pCurrentMessage != 0 && pCurrentMessage->isValid())
 2001ec8:	e0bffd17 	ldw	r2,-12(fp)
 2001ecc:	1005003a 	cmpeq	r2,r2,zero
 2001ed0:	1000091e 	bne	r2,zero,2001ef8 <main+0x120>
 2001ed4:	e13ffd17 	ldw	r4,-12(fp)
 2001ed8:	2006f980 	call	2006f98 <_ZN11CCarMessage7isValidEv>
 2001edc:	1080005c 	xori	r2,r2,1
 2001ee0:	10803fcc 	andi	r2,r2,255
 2001ee4:	1004c03a 	cmpne	r2,r2,zero
 2001ee8:	1000031e 	bne	r2,zero,2001ef8 <main+0x120>
 2001eec:	00800044 	movi	r2,1
 2001ef0:	e0bfff05 	stb	r2,-4(fp)
 2001ef4:	00000106 	br	2001efc <main+0x124>
 2001ef8:	e03fff05 	stb	zero,-4(fp)
 2001efc:	e0bfff03 	ldbu	r2,-4(fp)
 2001f00:	10803fcc 	andi	r2,r2,255
 2001f04:	1005003a 	cmpeq	r2,r2,zero
 2001f08:	1000061e 	bne	r2,zero,2001f24 <main+0x14c>
					pCurrentMessage->doAction();
 2001f0c:	e0bffd17 	ldw	r2,-12(fp)
 2001f10:	10800017 	ldw	r2,0(r2)
 2001f14:	10800204 	addi	r2,r2,8
 2001f18:	10800017 	ldw	r2,0(r2)
 2001f1c:	e13ffd17 	ldw	r4,-12(fp)
 2001f20:	103ee83a 	callr	r2
		//}

		//else
		//{
			// Get current message and call doAction()
		for (state = 0; pProtocol != 0 && pProtocol->isValid() && state < pProtocol->getMessageCount(); state++)	{
 2001f24:	e0bffe0b 	ldhu	r2,-8(fp)
 2001f28:	10800044 	addi	r2,r2,1
 2001f2c:	e0bffe0d 	sth	r2,-8(fp)
 2001f30:	d0a70017 	ldw	r2,-25600(gp)
 2001f34:	1005003a 	cmpeq	r2,r2,zero
 2001f38:	10000d1e 	bne	r2,zero,2001f70 <main+0x198>
 2001f3c:	d1270017 	ldw	r4,-25600(gp)
 2001f40:	20075840 	call	2007584 <_ZN12CCarProtocol7isValidEv>
 2001f44:	1080005c 	xori	r2,r2,1
 2001f48:	10803fcc 	andi	r2,r2,255
 2001f4c:	1004c03a 	cmpne	r2,r2,zero
 2001f50:	1000071e 	bne	r2,zero,2001f70 <main+0x198>
 2001f54:	e43ffe0b 	ldhu	r16,-8(fp)
 2001f58:	d1270017 	ldw	r4,-25600(gp)
 2001f5c:	20076c00 	call	20076c0 <_ZN12CCarProtocol15getMessageCountEv>
 2001f60:	8080032e 	bgeu	r16,r2,2001f70 <main+0x198>
 2001f64:	00800044 	movi	r2,1
 2001f68:	e0bfff45 	stb	r2,-3(fp)
 2001f6c:	00000106 	br	2001f74 <main+0x19c>
 2001f70:	e03fff45 	stb	zero,-3(fp)
 2001f74:	e0bfff43 	ldbu	r2,-3(fp)
 2001f78:	10803fcc 	andi	r2,r2,255
 2001f7c:	1004c03a 	cmpne	r2,r2,zero
 2001f80:	103fc41e 	bne	r2,zero,2001e94 <main+0xbc>
	//alt_u32 (*callback) (void*);
	//callback = alarm_callback;
	//alt_alarm_start(&alarm, 10, callback, 0);

	// Small cycle:
	while(true)
 2001f84:	003fb706 	br	2001e64 <main+0x8c>


// Label for failure
fail:
	LOG_DEBUG("fail");
	setSpeed(0);
 2001f88:	0009883a 	mov	r4,zero
 2001f8c:	2000b080 	call	2000b08 <_Z8setSpeedl>
	*pLED = 0x80;
 2001f90:	d0e00017 	ldw	r3,-32768(gp)
 2001f94:	00802004 	movi	r2,128
 2001f98:	18800015 	stw	r2,0(r3)
	delay(10000);
 2001f9c:	0109c404 	movi	r4,10000
 2001fa0:	20001f40 	call	20001f4 <_Z5delayj>
	return -1;
 2001fa4:	00bfffc4 	movi	r2,-1



}
 2001fa8:	e037883a 	mov	sp,fp
 2001fac:	dfc00217 	ldw	ra,8(sp)
 2001fb0:	df000117 	ldw	fp,4(sp)
 2001fb4:	dc000017 	ldw	r16,0(sp)
 2001fb8:	dec00304 	addi	sp,sp,12
 2001fbc:	f800283a 	ret

02001fc0 <_ZNK21CMotorVelocityMessage16getIDesiredSpeedEv>:

	alt_16 getICurrentSpeed() const {
		return m_iCurrentSpeed;
	}

	alt_16 getIDesiredSpeed() const {
 2001fc0:	defffe04 	addi	sp,sp,-8
 2001fc4:	df000115 	stw	fp,4(sp)
 2001fc8:	df000104 	addi	fp,sp,4
 2001fcc:	e13fff15 	stw	r4,-4(fp)
		return m_iDesiredSpeed;
 2001fd0:	e0bfff17 	ldw	r2,-4(fp)
 2001fd4:	1080028b 	ldhu	r2,10(r2)
 2001fd8:	10bfffcc 	andi	r2,r2,65535
 2001fdc:	10a0001c 	xori	r2,r2,32768
 2001fe0:	10a00004 	addi	r2,r2,-32768
	}
 2001fe4:	e037883a 	mov	sp,fp
 2001fe8:	df000017 	ldw	fp,0(sp)
 2001fec:	dec00104 	addi	sp,sp,4
 2001ff0:	f800283a 	ret

02001ff4 <_ZN13CPIControllerC2Ellll>:
#include "pidcontroller.h"
#include "ErrHandler.h"

CPIController::CPIController(alt_32 iPValue, alt_32 iIValue, alt_32 iMinimum, alt_32 iMaximum)
 2001ff4:	defffb04 	addi	sp,sp,-20
 2001ff8:	df000415 	stw	fp,16(sp)
 2001ffc:	df000404 	addi	fp,sp,16
 2002000:	e13ffc15 	stw	r4,-16(fp)
 2002004:	e17ffd15 	stw	r5,-12(fp)
 2002008:	e1bffe15 	stw	r6,-8(fp)
 200200c:	e1ffff15 	stw	r7,-4(fp)
{
	m_iPValue = iPValue;
 2002010:	e0fffc17 	ldw	r3,-16(fp)
 2002014:	e0bffd17 	ldw	r2,-12(fp)
 2002018:	18800015 	stw	r2,0(r3)
	m_iIValue = iIValue;
 200201c:	e0fffc17 	ldw	r3,-16(fp)
 2002020:	e0bffe17 	ldw	r2,-8(fp)
 2002024:	18800115 	stw	r2,4(r3)

	m_iMinimum = iMinimum;
 2002028:	e0fffc17 	ldw	r3,-16(fp)
 200202c:	e0bfff17 	ldw	r2,-4(fp)
 2002030:	18800215 	stw	r2,8(r3)
	m_iMaximum = iMaximum;
 2002034:	e0fffc17 	ldw	r3,-16(fp)
 2002038:	e0800117 	ldw	r2,4(fp)
 200203c:	18800315 	stw	r2,12(r3)

	m_iErrorSum = 0;
 2002040:	e0bffc17 	ldw	r2,-16(fp)
 2002044:	10000415 	stw	zero,16(r2)
 2002048:	10000515 	stw	zero,20(r2)
	m_iLastError = 0;
 200204c:	e0bffc17 	ldw	r2,-16(fp)
 2002050:	10000615 	stw	zero,24(r2)
	//LOG_DEBUG("Controller set up with P=%d, I=%d",m_iPValue,m_iIValue);
}
 2002054:	e037883a 	mov	sp,fp
 2002058:	df000017 	ldw	fp,0(sp)
 200205c:	dec00104 	addi	sp,sp,4
 2002060:	f800283a 	ret

02002064 <_ZN13CPIControllerC1Ellll>:
#include "pidcontroller.h"
#include "ErrHandler.h"

CPIController::CPIController(alt_32 iPValue, alt_32 iIValue, alt_32 iMinimum, alt_32 iMaximum)
 2002064:	defffb04 	addi	sp,sp,-20
 2002068:	df000415 	stw	fp,16(sp)
 200206c:	df000404 	addi	fp,sp,16
 2002070:	e13ffc15 	stw	r4,-16(fp)
 2002074:	e17ffd15 	stw	r5,-12(fp)
 2002078:	e1bffe15 	stw	r6,-8(fp)
 200207c:	e1ffff15 	stw	r7,-4(fp)
{
	m_iPValue = iPValue;
 2002080:	e0fffc17 	ldw	r3,-16(fp)
 2002084:	e0bffd17 	ldw	r2,-12(fp)
 2002088:	18800015 	stw	r2,0(r3)
	m_iIValue = iIValue;
 200208c:	e0fffc17 	ldw	r3,-16(fp)
 2002090:	e0bffe17 	ldw	r2,-8(fp)
 2002094:	18800115 	stw	r2,4(r3)

	m_iMinimum = iMinimum;
 2002098:	e0fffc17 	ldw	r3,-16(fp)
 200209c:	e0bfff17 	ldw	r2,-4(fp)
 20020a0:	18800215 	stw	r2,8(r3)
	m_iMaximum = iMaximum;
 20020a4:	e0fffc17 	ldw	r3,-16(fp)
 20020a8:	e0800117 	ldw	r2,4(fp)
 20020ac:	18800315 	stw	r2,12(r3)

	m_iErrorSum = 0;
 20020b0:	e0bffc17 	ldw	r2,-16(fp)
 20020b4:	10000415 	stw	zero,16(r2)
 20020b8:	10000515 	stw	zero,20(r2)
	m_iLastError = 0;
 20020bc:	e0bffc17 	ldw	r2,-16(fp)
 20020c0:	10000615 	stw	zero,24(r2)
	//LOG_DEBUG("Controller set up with P=%d, I=%d",m_iPValue,m_iIValue);
}
 20020c4:	e037883a 	mov	sp,fp
 20020c8:	df000017 	ldw	fp,0(sp)
 20020cc:	dec00104 	addi	sp,sp,4
 20020d0:	f800283a 	ret

020020d4 <_ZN13CPIControllerD2Ev>:


CPIController::~CPIController(void){}
 20020d4:	defffe04 	addi	sp,sp,-8
 20020d8:	df000115 	stw	fp,4(sp)
 20020dc:	df000104 	addi	fp,sp,4
 20020e0:	e13fff15 	stw	r4,-4(fp)
 20020e4:	e037883a 	mov	sp,fp
 20020e8:	df000017 	ldw	fp,0(sp)
 20020ec:	dec00104 	addi	sp,sp,4
 20020f0:	f800283a 	ret

020020f4 <_ZN13CPIControllerD1Ev>:
 20020f4:	defffe04 	addi	sp,sp,-8
 20020f8:	df000115 	stw	fp,4(sp)
 20020fc:	df000104 	addi	fp,sp,4
 2002100:	e13fff15 	stw	r4,-4(fp)
 2002104:	e037883a 	mov	sp,fp
 2002108:	df000017 	ldw	fp,0(sp)
 200210c:	dec00104 	addi	sp,sp,4
 2002110:	f800283a 	ret

02002114 <_ZN13CPIController7controlEl>:

alt_32 CPIController::control(alt_32 iError)
 2002114:	defff904 	addi	sp,sp,-28
 2002118:	dfc00615 	stw	ra,24(sp)
 200211c:	df000515 	stw	fp,20(sp)
 2002120:	df000504 	addi	fp,sp,20
 2002124:	e13ffe15 	stw	r4,-8(fp)
 2002128:	e17fff15 	stw	r5,-4(fp)
{
	alt_32 iResultP, iResultI, iResult;

	// Compute P Type:
	iResultP = iError / m_iPValue;
 200212c:	e0bffe17 	ldw	r2,-8(fp)
 2002130:	11400017 	ldw	r5,0(r2)
 2002134:	e13fff17 	ldw	r4,-4(fp)
 2002138:	200cf780 	call	200cf78 <__divsi3>
 200213c:	e0bffd15 	stw	r2,-12(fp)

	// Compute I Type:
	m_iErrorSum += iError;
 2002140:	e0bffe17 	ldw	r2,-8(fp)
 2002144:	11800417 	ldw	r6,16(r2)
 2002148:	11c00517 	ldw	r7,20(r2)
 200214c:	e0bfff17 	ldw	r2,-4(fp)
 2002150:	1005d7fa 	srai	r2,r2,31
 2002154:	e13fff17 	ldw	r4,-4(fp)
 2002158:	100b883a 	mov	r5,r2
 200215c:	3105883a 	add	r2,r6,r4
 2002160:	1191803a 	cmpltu	r8,r2,r6
 2002164:	3947883a 	add	r3,r7,r5
 2002168:	40c9883a 	add	r4,r8,r3
 200216c:	2007883a 	mov	r3,r4
 2002170:	1009883a 	mov	r4,r2
 2002174:	180b883a 	mov	r5,r3
 2002178:	e0bffe17 	ldw	r2,-8(fp)
 200217c:	11000415 	stw	r4,16(r2)
 2002180:	11400515 	stw	r5,20(r2)
	iResultI = m_iErrorSum  / m_iIValue;
 2002184:	e0bffe17 	ldw	r2,-8(fp)
 2002188:	11400417 	ldw	r5,16(r2)
 200218c:	11800517 	ldw	r6,20(r2)
 2002190:	e0bffe17 	ldw	r2,-8(fp)
 2002194:	11000117 	ldw	r4,4(r2)
 2002198:	200fd7fa 	srai	r7,r4,31
 200219c:	2005883a 	mov	r2,r4
 20021a0:	3807883a 	mov	r3,r7
 20021a4:	2809883a 	mov	r4,r5
 20021a8:	300b883a 	mov	r5,r6
 20021ac:	100d883a 	mov	r6,r2
 20021b0:	180f883a 	mov	r7,r3
 20021b4:	200c7e40 	call	200c7e4 <__divdi3>
 20021b8:	1009883a 	mov	r4,r2
 20021bc:	180b883a 	mov	r5,r3
 20021c0:	2005883a 	mov	r2,r4
 20021c4:	2807883a 	mov	r3,r5
 20021c8:	e0bffc15 	stw	r2,-16(fp)
	m_iLastError = iError;
 20021cc:	e0fffe17 	ldw	r3,-8(fp)
 20021d0:	e0bfff17 	ldw	r2,-4(fp)
 20021d4:	18800615 	stw	r2,24(r3)

	// Complete Controller
	iResult = iResultP + iResultI;
 20021d8:	e0fffd17 	ldw	r3,-12(fp)
 20021dc:	e0bffc17 	ldw	r2,-16(fp)
 20021e0:	1885883a 	add	r2,r3,r2
 20021e4:	e0bffb15 	stw	r2,-20(fp)

	// Check for bounds
	if(iResult < m_iMinimum)
 20021e8:	e0bffe17 	ldw	r2,-8(fp)
 20021ec:	10c00217 	ldw	r3,8(r2)
 20021f0:	e0bffb17 	ldw	r2,-20(fp)
 20021f4:	10c0040e 	bge	r2,r3,2002208 <_ZN13CPIController7controlEl+0xf4>
		iResult = m_iMinimum;
 20021f8:	e0bffe17 	ldw	r2,-8(fp)
 20021fc:	10800217 	ldw	r2,8(r2)
 2002200:	e0bffb15 	stw	r2,-20(fp)
 2002204:	00000706 	br	2002224 <_ZN13CPIController7controlEl+0x110>
	else if(iResult > m_iMaximum)
 2002208:	e0bffe17 	ldw	r2,-8(fp)
 200220c:	10c00317 	ldw	r3,12(r2)
 2002210:	e0bffb17 	ldw	r2,-20(fp)
 2002214:	1880030e 	bge	r3,r2,2002224 <_ZN13CPIController7controlEl+0x110>
		iResult = m_iMaximum;
 2002218:	e0bffe17 	ldw	r2,-8(fp)
 200221c:	10800317 	ldw	r2,12(r2)
 2002220:	e0bffb15 	stw	r2,-20(fp)

	iResult  *= 100000;
 2002224:	e13ffb17 	ldw	r4,-20(fp)
 2002228:	014000b4 	movhi	r5,2
 200222c:	2961a804 	addi	r5,r5,-31072
 2002230:	200d0480 	call	200d048 <__mulsi3>
 2002234:	e0bffb15 	stw	r2,-20(fp)
	iResult  /= (m_iMaximum + 1);
 2002238:	e0bffe17 	ldw	r2,-8(fp)
 200223c:	10800317 	ldw	r2,12(r2)
 2002240:	11400044 	addi	r5,r2,1
 2002244:	e13ffb17 	ldw	r4,-20(fp)
 2002248:	200cf780 	call	200cf78 <__divsi3>
 200224c:	e0bffb15 	stw	r2,-20(fp)
	//LOG_DEBUG("iresult: %d",iResult);
	if(iResult < 10000 && iResult > -10000)
 2002250:	e0bffb17 	ldw	r2,-20(fp)
 2002254:	1089c408 	cmpgei	r2,r2,10000
 2002258:	1000041e 	bne	r2,zero,200226c <_ZN13CPIController7controlEl+0x158>
 200225c:	e0bffb17 	ldw	r2,-20(fp)
 2002260:	10b63c50 	cmplti	r2,r2,-9999
 2002264:	1000011e 	bne	r2,zero,200226c <_ZN13CPIController7controlEl+0x158>
		iResult = 0;
 2002268:	e03ffb15 	stw	zero,-20(fp)

	return iResult;
 200226c:	e0bffb17 	ldw	r2,-20(fp)
}
 2002270:	e037883a 	mov	sp,fp
 2002274:	dfc00117 	ldw	ra,4(sp)
 2002278:	df000017 	ldw	fp,0(sp)
 200227c:	dec00204 	addi	sp,sp,8
 2002280:	f800283a 	ret

02002284 <_ZN13CPIController16changeControllerEll>:

void CPIController::changeController(alt_32 iPValue, alt_32 iIValue)
 2002284:	defffc04 	addi	sp,sp,-16
 2002288:	df000315 	stw	fp,12(sp)
 200228c:	df000304 	addi	fp,sp,12
 2002290:	e13ffd15 	stw	r4,-12(fp)
 2002294:	e17ffe15 	stw	r5,-8(fp)
 2002298:	e1bfff15 	stw	r6,-4(fp)
{
	m_iPValue = iPValue;
 200229c:	e0fffd17 	ldw	r3,-12(fp)
 20022a0:	e0bffe17 	ldw	r2,-8(fp)
 20022a4:	18800015 	stw	r2,0(r3)
	m_iIValue = iIValue;
 20022a8:	e0fffd17 	ldw	r3,-12(fp)
 20022ac:	e0bfff17 	ldw	r2,-4(fp)
 20022b0:	18800115 	stw	r2,4(r3)
}
 20022b4:	e037883a 	mov	sp,fp
 20022b8:	df000017 	ldw	fp,0(sp)
 20022bc:	dec00104 	addi	sp,sp,4
 20022c0:	f800283a 	ret

020022c4 <_ZN13CPIController13getControllerEPlS0_>:

void CPIController::getController(alt_32 *p_iPValue, alt_32 *p_iIValue)
 20022c4:	defffc04 	addi	sp,sp,-16
 20022c8:	df000315 	stw	fp,12(sp)
 20022cc:	df000304 	addi	fp,sp,12
 20022d0:	e13ffd15 	stw	r4,-12(fp)
 20022d4:	e17ffe15 	stw	r5,-8(fp)
 20022d8:	e1bfff15 	stw	r6,-4(fp)
{
	*p_iPValue = m_iPValue;
 20022dc:	e0bffd17 	ldw	r2,-12(fp)
 20022e0:	10c00017 	ldw	r3,0(r2)
 20022e4:	e0bffe17 	ldw	r2,-8(fp)
 20022e8:	10c00015 	stw	r3,0(r2)
	*p_iIValue = m_iIValue;
 20022ec:	e0bffd17 	ldw	r2,-12(fp)
 20022f0:	10c00117 	ldw	r3,4(r2)
 20022f4:	e0bfff17 	ldw	r2,-4(fp)
 20022f8:	10c00015 	stw	r3,0(r2)
}
 20022fc:	e037883a 	mov	sp,fp
 2002300:	df000017 	ldw	fp,0(sp)
 2002304:	dec00104 	addi	sp,sp,4
 2002308:	f800283a 	ret

0200230c <_Z8i2c_stopmm>:
    SCL_LOW(clk_base); // clock low
    SCL_DELAY;
}

// SDA 0->1 while SCL=1
void i2c_stop(alt_u32 clk_base, alt_u32 data_base){
 200230c:	defffc04 	addi	sp,sp,-16
 2002310:	dfc00315 	stw	ra,12(sp)
 2002314:	df000215 	stw	fp,8(sp)
 2002318:	df000204 	addi	fp,sp,8
 200231c:	e13ffe15 	stw	r4,-8(fp)
 2002320:	e17fff15 	stw	r5,-4(fp)
    // assume SCL = 0
    
    SDA_DIR_OUT(data_base);  // data output enabled
 2002324:	e0bfff17 	ldw	r2,-4(fp)
 2002328:	10800104 	addi	r2,r2,4
 200232c:	1007883a 	mov	r3,r2
 2002330:	00800044 	movi	r2,1
 2002334:	18800035 	stwio	r2,0(r3)
    SDA_LOW(data_base); // Data Low
 2002338:	e0bfff17 	ldw	r2,-4(fp)
 200233c:	10000035 	stwio	zero,0(r2)
    //SCL_DELAY; 
    SCL_HIGH(clk_base);  // clock high
 2002340:	e0bffe17 	ldw	r2,-8(fp)
 2002344:	1007883a 	mov	r3,r2
 2002348:	00800044 	movi	r2,1
 200234c:	18800035 	stwio	r2,0(r3)
    SCL_DELAY; // clock high long delay
 2002350:	01000044 	movi	r4,1
 2002354:	200ebf80 	call	200ebf8 <usleep>
    SDA_HIGH(data_base); // data high
 2002358:	e0bfff17 	ldw	r2,-4(fp)
 200235c:	1007883a 	mov	r3,r2
 2002360:	00800044 	movi	r2,1
 2002364:	18800035 	stwio	r2,0(r3)
    SCL_DELAY; // data high delay
 2002368:	01000044 	movi	r4,1
 200236c:	200ebf80 	call	200ebf8 <usleep>
    

    
}
 2002370:	e037883a 	mov	sp,fp
 2002374:	dfc00117 	ldw	ra,4(sp)
 2002378:	df000017 	ldw	fp,0(sp)
 200237c:	dec00204 	addi	sp,sp,8
 2002380:	f800283a 	ret

02002384 <_Z9i2c_startmm>:
///////////// Interncal function (i2cXXX) body //////////////////////////////////////////////
/////////////////////////////////////////////////////////////////////////////////////////////


//SDA 1->0 while SCL=1
void i2c_start(alt_u32 clk_base, alt_u32 data_base){
 2002384:	defffc04 	addi	sp,sp,-16
 2002388:	dfc00315 	stw	ra,12(sp)
 200238c:	df000215 	stw	fp,8(sp)
 2002390:	df000204 	addi	fp,sp,8
 2002394:	e13ffe15 	stw	r4,-8(fp)
 2002398:	e17fff15 	stw	r5,-4(fp)
    
    // make sure it is in normal state
    SDA_DIR_OUT(data_base);  // data output enabled
 200239c:	e0bfff17 	ldw	r2,-4(fp)
 20023a0:	10800104 	addi	r2,r2,4
 20023a4:	1007883a 	mov	r3,r2
 20023a8:	00800044 	movi	r2,1
 20023ac:	18800035 	stwio	r2,0(r3)
    
    
    
    // start condition
    SDA_HIGH(data_base); // data high
 20023b0:	e0bfff17 	ldw	r2,-4(fp)
 20023b4:	1007883a 	mov	r3,r2
 20023b8:	00800044 	movi	r2,1
 20023bc:	18800035 	stwio	r2,0(r3)
    SCL_HIGH(clk_base);
 20023c0:	e0bffe17 	ldw	r2,-8(fp)
 20023c4:	1007883a 	mov	r3,r2
 20023c8:	00800044 	movi	r2,1
 20023cc:	18800035 	stwio	r2,0(r3)
    SCL_DELAY;
 20023d0:	01000044 	movi	r4,1
 20023d4:	200ebf80 	call	200ebf8 <usleep>
     
    SDA_LOW(data_base); // data low
 20023d8:	e0bfff17 	ldw	r2,-4(fp)
 20023dc:	10000035 	stwio	zero,0(r2)
    SCL_DELAY; 
 20023e0:	01000044 	movi	r4,1
 20023e4:	200ebf80 	call	200ebf8 <usleep>
    SCL_LOW(clk_base); // clock low
 20023e8:	e0bffe17 	ldw	r2,-8(fp)
 20023ec:	10000035 	stwio	zero,0(r2)
    SCL_DELAY;
 20023f0:	01000044 	movi	r4,1
 20023f4:	200ebf80 	call	200ebf8 <usleep>
}
 20023f8:	e037883a 	mov	sp,fp
 20023fc:	dfc00117 	ldw	ra,4(sp)
 2002400:	df000017 	ldw	fp,0(sp)
 2002404:	dec00204 	addi	sp,sp,8
 2002408:	f800283a 	ret

0200240c <_Z8i2c_readmmPhb>:
    SCL_LOW(clk_base); // clock low         
    SCL_DELAY; // clock low delay
    return bAck;
}    

void i2c_read(alt_u32 clk_base, alt_u32 data_base, alt_u8 *pData, bool bAck){ // return true if device response ack
 200240c:	defff804 	addi	sp,sp,-32
 2002410:	dfc00715 	stw	ra,28(sp)
 2002414:	df000615 	stw	fp,24(sp)
 2002418:	df000604 	addi	fp,sp,24
 200241c:	e13ffc15 	stw	r4,-16(fp)
 2002420:	e17ffd15 	stw	r5,-12(fp)
 2002424:	e1bffe15 	stw	r6,-8(fp)
 2002428:	e1ffff05 	stb	r7,-4(fp)
    alt_u8 Data=0;
 200242c:	e03ffb05 	stb	zero,-20(fp)
    int i;
    
    // assume SCL = low
    
    SDA_DIR_IN(data_base);  // set data read mode
 2002430:	e0bffd17 	ldw	r2,-12(fp)
 2002434:	10800104 	addi	r2,r2,4
 2002438:	10000035 	stwio	zero,0(r2)
    SCL_LOW(clk_base); // clock low
 200243c:	e0bffc17 	ldw	r2,-16(fp)
 2002440:	10000035 	stwio	zero,0(r2)
    SCL_DELAY; // clock low delay
 2002444:	01000044 	movi	r4,1
 2002448:	200ebf80 	call	200ebf8 <usleep>

    for(i=0;i<8;i++){
 200244c:	e03ffa15 	stw	zero,-24(fp)
 2002450:	00001906 	br	20024b8 <_Z8i2c_readmmPhb+0xac>
        Data <<= 1;
 2002454:	e0bffb03 	ldbu	r2,-20(fp)
 2002458:	1085883a 	add	r2,r2,r2
 200245c:	e0bffb05 	stb	r2,-20(fp)
        SCL_HIGH(clk_base);  // clock high
 2002460:	e0bffc17 	ldw	r2,-16(fp)
 2002464:	1007883a 	mov	r3,r2
 2002468:	00800044 	movi	r2,1
 200246c:	18800035 	stwio	r2,0(r3)
        SCL_DELAY;
 2002470:	01000044 	movi	r4,1
 2002474:	200ebf80 	call	200ebf8 <usleep>
        if (SDA_READ(data_base))  // read data   
 2002478:	e0bffd17 	ldw	r2,-12(fp)
 200247c:	10800037 	ldwio	r2,0(r2)
 2002480:	1004c03a 	cmpne	r2,r2,zero
 2002484:	10803fcc 	andi	r2,r2,255
 2002488:	1005003a 	cmpeq	r2,r2,zero
 200248c:	1000031e 	bne	r2,zero,200249c <_Z8i2c_readmmPhb+0x90>
            Data |= 0x01;
 2002490:	e0bffb03 	ldbu	r2,-20(fp)
 2002494:	10800054 	ori	r2,r2,1
 2002498:	e0bffb05 	stb	r2,-20(fp)
        SCL_LOW(clk_base);  // clock log  
 200249c:	e0bffc17 	ldw	r2,-16(fp)
 20024a0:	10000035 	stwio	zero,0(r2)
        SCL_DELAY;
 20024a4:	01000044 	movi	r4,1
 20024a8:	200ebf80 	call	200ebf8 <usleep>
    
    SDA_DIR_IN(data_base);  // set data read mode
    SCL_LOW(clk_base); // clock low
    SCL_DELAY; // clock low delay

    for(i=0;i<8;i++){
 20024ac:	e0bffa17 	ldw	r2,-24(fp)
 20024b0:	10800044 	addi	r2,r2,1
 20024b4:	e0bffa15 	stw	r2,-24(fp)
 20024b8:	e0bffa17 	ldw	r2,-24(fp)
 20024bc:	10800210 	cmplti	r2,r2,8
 20024c0:	103fe41e 	bne	r2,zero,2002454 <_Z8i2c_readmmPhb+0x48>
        SCL_LOW(clk_base);  // clock log  
        SCL_DELAY;
    }
    
    // send ACK
    SCL_LOW(clk_base);  // new, make sure data change at clk low
 20024c4:	e0bffc17 	ldw	r2,-16(fp)
 20024c8:	10000035 	stwio	zero,0(r2)
    SDA_DIR_OUT(data_base);  // set data write mode
 20024cc:	e0bffd17 	ldw	r2,-12(fp)
 20024d0:	10800104 	addi	r2,r2,4
 20024d4:	1007883a 	mov	r3,r2
 20024d8:	00800044 	movi	r2,1
 20024dc:	18800035 	stwio	r2,0(r3)
    if (bAck)
 20024e0:	e0bfff03 	ldbu	r2,-4(fp)
 20024e4:	1005003a 	cmpeq	r2,r2,zero
 20024e8:	1000031e 	bne	r2,zero,20024f8 <_Z8i2c_readmmPhb+0xec>
        SDA_LOW(data_base);
 20024ec:	e0bffd17 	ldw	r2,-12(fp)
 20024f0:	10000035 	stwio	zero,0(r2)
 20024f4:	00000406 	br	2002508 <_Z8i2c_readmmPhb+0xfc>
    else
        SDA_HIGH(data_base);
 20024f8:	e0bffd17 	ldw	r2,-12(fp)
 20024fc:	1007883a 	mov	r3,r2
 2002500:	00800044 	movi	r2,1
 2002504:	18800035 	stwio	r2,0(r3)
    SCL_HIGH(clk_base); // clock high
 2002508:	e0bffc17 	ldw	r2,-16(fp)
 200250c:	1007883a 	mov	r3,r2
 2002510:	00800044 	movi	r2,1
 2002514:	18800035 	stwio	r2,0(r3)
    SCL_DELAY; // clock high  delay
 2002518:	01000044 	movi	r4,1
 200251c:	200ebf80 	call	200ebf8 <usleep>
    SCL_LOW(clk_base); // clock low
 2002520:	e0bffc17 	ldw	r2,-16(fp)
 2002524:	10000035 	stwio	zero,0(r2)
    SCL_DELAY; // clock low delay
 2002528:	01000044 	movi	r4,1
 200252c:	200ebf80 	call	200ebf8 <usleep>
    SDA_LOW(data_base);  // data low
 2002530:	e0bffd17 	ldw	r2,-12(fp)
 2002534:	10000035 	stwio	zero,0(r2)
    SCL_DELAY; // data low delay
 2002538:	01000044 	movi	r4,1
 200253c:	200ebf80 	call	200ebf8 <usleep>
//    SDA_DIR_IN;  // set data read mode
    
    *pData = Data;
 2002540:	e0fffe17 	ldw	r3,-8(fp)
 2002544:	e0bffb03 	ldbu	r2,-20(fp)
 2002548:	18800005 	stb	r2,0(r3)
}
 200254c:	e037883a 	mov	sp,fp
 2002550:	dfc00117 	ldw	ra,4(sp)
 2002554:	df000017 	ldw	fp,0(sp)
 2002558:	dec00204 	addi	sp,sp,8
 200255c:	f800283a 	ret

02002560 <_Z9i2c_writemmh>:
    

    
}

bool i2c_write(alt_u32 clk_base, alt_u32 data_base, alt_u8 Data){ // return true if device response ack
 2002560:	defff904 	addi	sp,sp,-28
 2002564:	dfc00615 	stw	ra,24(sp)
 2002568:	df000515 	stw	fp,20(sp)
 200256c:	df000504 	addi	fp,sp,20
 2002570:	e13ffd15 	stw	r4,-12(fp)
 2002574:	e17ffe15 	stw	r5,-8(fp)
 2002578:	e1bfff05 	stb	r6,-4(fp)
    alt_u8 Mask = 0x80;
 200257c:	00bfe004 	movi	r2,-128
 2002580:	e0bffc45 	stb	r2,-15(fp)
    bool bAck;
    int i;
    
    // assume, SCL = 0
    
    SDA_DIR_OUT(data_base);  // data write mode
 2002584:	e0bffe17 	ldw	r2,-8(fp)
 2002588:	10800104 	addi	r2,r2,4
 200258c:	1007883a 	mov	r3,r2
 2002590:	00800044 	movi	r2,1
 2002594:	18800035 	stwio	r2,0(r3)
    
    for(i=0;i<8;i++){
 2002598:	e03ffb15 	stw	zero,-20(fp)
 200259c:	00001e06 	br	2002618 <_Z9i2c_writemmh+0xb8>
        SCL_LOW(clk_base);  // new, make sure data change at clk low
 20025a0:	e0bffd17 	ldw	r2,-12(fp)
 20025a4:	10000035 	stwio	zero,0(r2)
        // output data on bus
        if (Data & Mask){ // there is a delay in this command
 20025a8:	e0ffff03 	ldbu	r3,-4(fp)
 20025ac:	e0bffc43 	ldbu	r2,-15(fp)
 20025b0:	1884703a 	and	r2,r3,r2
 20025b4:	1005003a 	cmpeq	r2,r2,zero
 20025b8:	1000051e 	bne	r2,zero,20025d0 <_Z9i2c_writemmh+0x70>
            SDA_HIGH(data_base);
 20025bc:	e0bffe17 	ldw	r2,-8(fp)
 20025c0:	1007883a 	mov	r3,r2
 20025c4:	00800044 	movi	r2,1
 20025c8:	18800035 	stwio	r2,0(r3)
 20025cc:	00000206 	br	20025d8 <_Z9i2c_writemmh+0x78>
        }else{    
            SDA_LOW(data_base);
 20025d0:	e0bffe17 	ldw	r2,-8(fp)
 20025d4:	10000035 	stwio	zero,0(r2)
        }
        Mask >>= 1; // there is a delay in this command
 20025d8:	e0bffc43 	ldbu	r2,-15(fp)
 20025dc:	1004d07a 	srli	r2,r2,1
 20025e0:	e0bffc45 	stb	r2,-15(fp)
        // clock high
        SCL_HIGH(clk_base);
 20025e4:	e0bffd17 	ldw	r2,-12(fp)
 20025e8:	1007883a 	mov	r3,r2
 20025ec:	00800044 	movi	r2,1
 20025f0:	18800035 	stwio	r2,0(r3)
        SCL_DELAY;
 20025f4:	01000044 	movi	r4,1
 20025f8:	200ebf80 	call	200ebf8 <usleep>
        SCL_LOW(clk_base);
 20025fc:	e0bffd17 	ldw	r2,-12(fp)
 2002600:	10000035 	stwio	zero,0(r2)
        SCL_DELAY;
 2002604:	01000044 	movi	r4,1
 2002608:	200ebf80 	call	200ebf8 <usleep>
    
    // assume, SCL = 0
    
    SDA_DIR_OUT(data_base);  // data write mode
    
    for(i=0;i<8;i++){
 200260c:	e0bffb17 	ldw	r2,-20(fp)
 2002610:	10800044 	addi	r2,r2,1
 2002614:	e0bffb15 	stw	r2,-20(fp)
 2002618:	e0bffb17 	ldw	r2,-20(fp)
 200261c:	10800210 	cmplti	r2,r2,8
 2002620:	103fdf1e 	bne	r2,zero,20025a0 <_Z9i2c_writemmh+0x40>
        SCL_LOW(clk_base);
        SCL_DELAY;
    }
    
    //===== get ack
    SDA_DIR_IN(data_base);  // data read mode
 2002624:	e0bffe17 	ldw	r2,-8(fp)
 2002628:	10800104 	addi	r2,r2,4
 200262c:	10000035 	stwio	zero,0(r2)
    //SCL_DELAY;
    // clock high
    SCL_HIGH(clk_base);  // clock high
 2002630:	e0bffd17 	ldw	r2,-12(fp)
 2002634:	1007883a 	mov	r3,r2
 2002638:	00800044 	movi	r2,1
 200263c:	18800035 	stwio	r2,0(r3)
    SCL_DELAY;  // clock high delay
 2002640:	01000044 	movi	r4,1
 2002644:	200ebf80 	call	200ebf8 <usleep>
    bAck = SDA_READ(data_base)?FALSE:TRUE;  // get ack
 2002648:	e0bffe17 	ldw	r2,-8(fp)
 200264c:	10800037 	ldwio	r2,0(r2)
 2002650:	1005003a 	cmpeq	r2,r2,zero
 2002654:	e0bffc05 	stb	r2,-16(fp)
    //SCL_DELAY;
    //SDA_DIR_OUT;
    SCL_LOW(clk_base); // clock low         
 2002658:	e0bffd17 	ldw	r2,-12(fp)
 200265c:	10000035 	stwio	zero,0(r2)
    SCL_DELAY; // clock low delay
 2002660:	01000044 	movi	r4,1
 2002664:	200ebf80 	call	200ebf8 <usleep>
    return bAck;
 2002668:	e0bffc03 	ldbu	r2,-16(fp)
}    
 200266c:	e037883a 	mov	sp,fp
 2002670:	dfc00117 	ldw	ra,4(sp)
 2002674:	df000017 	ldw	fp,0(sp)
 2002678:	dec00204 	addi	sp,sp,8
 200267c:	f800283a 	ret

02002680 <_Z16I2C_MultipleReadmmahPht>:
    return bSuccess;

    
}

bool I2C_MultipleRead(alt_u32 clk_base, alt_u32 data_base, alt_8 DeviceAddr, alt_u8 ControlAddr, alt_u8 *pBuf, alt_u16 len){
 2002680:	defff704 	addi	sp,sp,-36
 2002684:	dfc00815 	stw	ra,32(sp)
 2002688:	df000715 	stw	fp,28(sp)
 200268c:	df000704 	addi	fp,sp,28
 2002690:	e13ffb15 	stw	r4,-20(fp)
 2002694:	e17ffc15 	stw	r5,-16(fp)
 2002698:	e0800317 	ldw	r2,12(fp)
 200269c:	e1bffd05 	stb	r6,-12(fp)
 20026a0:	e1fffe05 	stb	r7,-8(fp)
 20026a4:	e0bfff0d 	sth	r2,-4(fp)
    int i;
    bool bSuccess = TRUE;
 20026a8:	00800044 	movi	r2,1
 20026ac:	e0bff905 	stb	r2,-28(fp)
    
   
    // device id
    //DeviceAddr = HMB_E2_I2C_ID;

    i2c_start(clk_base, data_base);
 20026b0:	e13ffb17 	ldw	r4,-20(fp)
 20026b4:	e17ffc17 	ldw	r5,-16(fp)
 20026b8:	20023840 	call	2002384 <_Z9i2c_startmm>
    if (!i2c_write(clk_base, data_base, DeviceAddr)){  // send ID
 20026bc:	e0bffd03 	ldbu	r2,-12(fp)
 20026c0:	11803fcc 	andi	r6,r2,255
 20026c4:	e13ffb17 	ldw	r4,-20(fp)
 20026c8:	e17ffc17 	ldw	r5,-16(fp)
 20026cc:	20025600 	call	2002560 <_Z9i2c_writemmh>
 20026d0:	1080005c 	xori	r2,r2,1
 20026d4:	10803fcc 	andi	r2,r2,255
 20026d8:	1005003a 	cmpeq	r2,r2,zero
 20026dc:	1000011e 	bne	r2,zero,20026e4 <_Z16I2C_MultipleReadmmahPht+0x64>
        bSuccess = FALSE;
 20026e0:	e03ff905 	stb	zero,-28(fp)
        I2C_DEBUG(("I2C HMB_E2 Fail: Address NACK!\n"));
    }
    if (bSuccess && !i2c_write(clk_base, data_base, ControlAddr)){ // send sub-address
 20026e4:	e0bff903 	ldbu	r2,-28(fp)
 20026e8:	1080005c 	xori	r2,r2,1
 20026ec:	10803fcc 	andi	r2,r2,255
 20026f0:	1004c03a 	cmpne	r2,r2,zero
 20026f4:	10000c1e 	bne	r2,zero,2002728 <_Z16I2C_MultipleReadmmahPht+0xa8>
 20026f8:	e1bffe03 	ldbu	r6,-8(fp)
 20026fc:	e13ffb17 	ldw	r4,-20(fp)
 2002700:	e17ffc17 	ldw	r5,-16(fp)
 2002704:	20025600 	call	2002560 <_Z9i2c_writemmh>
 2002708:	1080005c 	xori	r2,r2,1
 200270c:	1080005c 	xori	r2,r2,1
 2002710:	10803fcc 	andi	r2,r2,255
 2002714:	1004c03a 	cmpne	r2,r2,zero
 2002718:	1000031e 	bne	r2,zero,2002728 <_Z16I2C_MultipleReadmmahPht+0xa8>
 200271c:	00800044 	movi	r2,1
 2002720:	e0bfffc5 	stb	r2,-1(fp)
 2002724:	00000106 	br	200272c <_Z16I2C_MultipleReadmmahPht+0xac>
 2002728:	e03fffc5 	stb	zero,-1(fp)
 200272c:	e0bfffc3 	ldbu	r2,-1(fp)
 2002730:	10803fcc 	andi	r2,r2,255
 2002734:	1005003a 	cmpeq	r2,r2,zero
 2002738:	1000011e 	bne	r2,zero,2002740 <_Z16I2C_MultipleReadmmahPht+0xc0>
        bSuccess = FALSE;
 200273c:	e03ff905 	stb	zero,-28(fp)
        I2C_DEBUG(("I2C HMB_E2 Fail: SubAddress NACK!\n"));
    }    
    if (bSuccess)        
 2002740:	e0bff903 	ldbu	r2,-28(fp)
 2002744:	1005003a 	cmpeq	r2,r2,zero
 2002748:	1000031e 	bne	r2,zero,2002758 <_Z16I2C_MultipleReadmmahPht+0xd8>
        i2c_start(clk_base, data_base);  // restart
 200274c:	e13ffb17 	ldw	r4,-20(fp)
 2002750:	e17ffc17 	ldw	r5,-16(fp)
 2002754:	20023840 	call	2002384 <_Z9i2c_startmm>
    DeviceAddr |= 1; // Read
 2002758:	e0bffd03 	ldbu	r2,-12(fp)
 200275c:	10800054 	ori	r2,r2,1
 2002760:	e0bffd05 	stb	r2,-12(fp)
    if (bSuccess && !i2c_write(clk_base, data_base, DeviceAddr)){  // send id
 2002764:	e0bff903 	ldbu	r2,-28(fp)
 2002768:	1080005c 	xori	r2,r2,1
 200276c:	10803fcc 	andi	r2,r2,255
 2002770:	1004c03a 	cmpne	r2,r2,zero
 2002774:	10000d1e 	bne	r2,zero,20027ac <_Z16I2C_MultipleReadmmahPht+0x12c>
 2002778:	e0bffd03 	ldbu	r2,-12(fp)
 200277c:	11803fcc 	andi	r6,r2,255
 2002780:	e13ffb17 	ldw	r4,-20(fp)
 2002784:	e17ffc17 	ldw	r5,-16(fp)
 2002788:	20025600 	call	2002560 <_Z9i2c_writemmh>
 200278c:	1080005c 	xori	r2,r2,1
 2002790:	1080005c 	xori	r2,r2,1
 2002794:	10803fcc 	andi	r2,r2,255
 2002798:	1004c03a 	cmpne	r2,r2,zero
 200279c:	1000031e 	bne	r2,zero,20027ac <_Z16I2C_MultipleReadmmahPht+0x12c>
 20027a0:	00800044 	movi	r2,1
 20027a4:	e0bfff85 	stb	r2,-2(fp)
 20027a8:	00000106 	br	20027b0 <_Z16I2C_MultipleReadmmahPht+0x130>
 20027ac:	e03fff85 	stb	zero,-2(fp)
 20027b0:	e0bfff83 	ldbu	r2,-2(fp)
 20027b4:	10803fcc 	andi	r2,r2,255
 20027b8:	1005003a 	cmpeq	r2,r2,zero
 20027bc:	1000011e 	bne	r2,zero,20027c4 <_Z16I2C_MultipleReadmmahPht+0x144>
        bSuccess = FALSE;
 20027c0:	e03ff905 	stb	zero,-28(fp)
        I2C_DEBUG(("I2C HMB_E2 Fail: Address+1 NACK!\n"));
    }
    
    if (bSuccess){
 20027c4:	e0bff903 	ldbu	r2,-28(fp)
 20027c8:	1005003a 	cmpeq	r2,r2,zero
 20027cc:	1000161e 	bne	r2,zero,2002828 <_Z16I2C_MultipleReadmmahPht+0x1a8>
        for(i=0;i<len && bSuccess;i++){
 20027d0:	e03ffa15 	stw	zero,-24(fp)
 20027d4:	00000e06 	br	2002810 <_Z16I2C_MultipleReadmmahPht+0x190>
            i2c_read(clk_base, data_base, pBuf, (i==(len-1))?FALSE:TRUE);  // read
 20027d8:	e0bfff0b 	ldhu	r2,-4(fp)
 20027dc:	10ffffc4 	addi	r3,r2,-1
 20027e0:	e0bffa17 	ldw	r2,-24(fp)
 20027e4:	188ec03a 	cmpne	r7,r3,r2
 20027e8:	e13ffb17 	ldw	r4,-20(fp)
 20027ec:	e17ffc17 	ldw	r5,-16(fp)
 20027f0:	e1800217 	ldw	r6,8(fp)
 20027f4:	200240c0 	call	200240c <_Z8i2c_readmmPhb>
            pBuf++;
 20027f8:	e0800217 	ldw	r2,8(fp)
 20027fc:	10800044 	addi	r2,r2,1
 2002800:	e0800215 	stw	r2,8(fp)
        bSuccess = FALSE;
        I2C_DEBUG(("I2C HMB_E2 Fail: Address+1 NACK!\n"));
    }
    
    if (bSuccess){
        for(i=0;i<len && bSuccess;i++){
 2002804:	e0bffa17 	ldw	r2,-24(fp)
 2002808:	10800044 	addi	r2,r2,1
 200280c:	e0bffa15 	stw	r2,-24(fp)
 2002810:	e0ffff0b 	ldhu	r3,-4(fp)
 2002814:	e0bffa17 	ldw	r2,-24(fp)
 2002818:	10c0030e 	bge	r2,r3,2002828 <_Z16I2C_MultipleReadmmahPht+0x1a8>
 200281c:	e0bff903 	ldbu	r2,-28(fp)
 2002820:	1004c03a 	cmpne	r2,r2,zero
 2002824:	103fec1e 	bne	r2,zero,20027d8 <_Z16I2C_MultipleReadmmahPht+0x158>
            i2c_read(clk_base, data_base, pBuf, (i==(len-1))?FALSE:TRUE);  // read
            pBuf++;
        }            
    }        
    i2c_stop(clk_base, data_base);
 2002828:	e13ffb17 	ldw	r4,-20(fp)
 200282c:	e17ffc17 	ldw	r5,-16(fp)
 2002830:	200230c0 	call	200230c <_Z8i2c_stopmm>
    
    return bSuccess;    
 2002834:	e0bff903 	ldbu	r2,-28(fp)
    
}
 2002838:	e037883a 	mov	sp,fp
 200283c:	dfc00117 	ldw	ra,4(sp)
 2002840:	df000017 	ldw	fp,0(sp)
 2002844:	dec00204 	addi	sp,sp,8
 2002848:	f800283a 	ret

0200284c <_Z17I2C_MultipleWritemmahPht>:
    
    return bSuccess;
}


bool I2C_MultipleWrite(alt_u32 clk_base, alt_u32 data_base, alt_8 DeviceAddr, alt_u8 ControlAddr, alt_u8 *pData, alt_u16 len){
 200284c:	defff704 	addi	sp,sp,-36
 2002850:	dfc00815 	stw	ra,32(sp)
 2002854:	df000715 	stw	fp,28(sp)
 2002858:	df000704 	addi	fp,sp,28
 200285c:	e13ffb15 	stw	r4,-20(fp)
 2002860:	e17ffc15 	stw	r5,-16(fp)
 2002864:	e0800317 	ldw	r2,12(fp)
 2002868:	e1bffd05 	stb	r6,-12(fp)
 200286c:	e1fffe05 	stb	r7,-8(fp)
 2002870:	e0bfff0d 	sth	r2,-4(fp)
    bool bSuccess = TRUE;
 2002874:	00800044 	movi	r2,1
 2002878:	e0bffa05 	stb	r2,-24(fp)
    int i;

    i2c_start(clk_base, data_base);
 200287c:	e13ffb17 	ldw	r4,-20(fp)
 2002880:	e17ffc17 	ldw	r5,-16(fp)
 2002884:	20023840 	call	2002384 <_Z9i2c_startmm>
    if (!i2c_write(clk_base, data_base, DeviceAddr)){  // send ID
 2002888:	e0bffd03 	ldbu	r2,-12(fp)
 200288c:	11803fcc 	andi	r6,r2,255
 2002890:	e13ffb17 	ldw	r4,-20(fp)
 2002894:	e17ffc17 	ldw	r5,-16(fp)
 2002898:	20025600 	call	2002560 <_Z9i2c_writemmh>
 200289c:	1080005c 	xori	r2,r2,1
 20028a0:	10803fcc 	andi	r2,r2,255
 20028a4:	1005003a 	cmpeq	r2,r2,zero
 20028a8:	1000011e 	bne	r2,zero,20028b0 <_Z17I2C_MultipleWritemmahPht+0x64>
        bSuccess = FALSE;
 20028ac:	e03ffa05 	stb	zero,-24(fp)
        I2C_DEBUG(("I2C HMB_E2 Fail: Address NACK!\n"));
    }
    if (bSuccess && !i2c_write(clk_base, data_base, ControlAddr)){ // send sub-address
 20028b0:	e0bffa03 	ldbu	r2,-24(fp)
 20028b4:	1080005c 	xori	r2,r2,1
 20028b8:	10803fcc 	andi	r2,r2,255
 20028bc:	1004c03a 	cmpne	r2,r2,zero
 20028c0:	10000c1e 	bne	r2,zero,20028f4 <_Z17I2C_MultipleWritemmahPht+0xa8>
 20028c4:	e1bffe03 	ldbu	r6,-8(fp)
 20028c8:	e13ffb17 	ldw	r4,-20(fp)
 20028cc:	e17ffc17 	ldw	r5,-16(fp)
 20028d0:	20025600 	call	2002560 <_Z9i2c_writemmh>
 20028d4:	1080005c 	xori	r2,r2,1
 20028d8:	1080005c 	xori	r2,r2,1
 20028dc:	10803fcc 	andi	r2,r2,255
 20028e0:	1004c03a 	cmpne	r2,r2,zero
 20028e4:	1000031e 	bne	r2,zero,20028f4 <_Z17I2C_MultipleWritemmahPht+0xa8>
 20028e8:	00800044 	movi	r2,1
 20028ec:	e0bfff85 	stb	r2,-2(fp)
 20028f0:	00000106 	br	20028f8 <_Z17I2C_MultipleWritemmahPht+0xac>
 20028f4:	e03fff85 	stb	zero,-2(fp)
 20028f8:	e0bfff83 	ldbu	r2,-2(fp)
 20028fc:	10803fcc 	andi	r2,r2,255
 2002900:	1005003a 	cmpeq	r2,r2,zero
 2002904:	1000011e 	bne	r2,zero,200290c <_Z17I2C_MultipleWritemmahPht+0xc0>
        bSuccess = FALSE;
 2002908:	e03ffa05 	stb	zero,-24(fp)
        I2C_DEBUG(("I2C HMB_E2 Fail: SubAddress NACK!\n"));
    }            
    if (bSuccess){
 200290c:	e0bffa03 	ldbu	r2,-24(fp)
 2002910:	1005003a 	cmpeq	r2,r2,zero
 2002914:	1000151e 	bne	r2,zero,200296c <_Z17I2C_MultipleWritemmahPht+0x120>
        for(i=0;i<len && bSuccess;i++){
 2002918:	e03ff915 	stw	zero,-28(fp)
 200291c:	00000d06 	br	2002954 <_Z17I2C_MultipleWritemmahPht+0x108>
            bSuccess = i2c_write(clk_base, data_base, *pData);
 2002920:	e0800217 	ldw	r2,8(fp)
 2002924:	10800003 	ldbu	r2,0(r2)
 2002928:	11803fcc 	andi	r6,r2,255
 200292c:	e13ffb17 	ldw	r4,-20(fp)
 2002930:	e17ffc17 	ldw	r5,-16(fp)
 2002934:	20025600 	call	2002560 <_Z9i2c_writemmh>
 2002938:	e0bffa05 	stb	r2,-24(fp)
            pData++;
 200293c:	e0800217 	ldw	r2,8(fp)
 2002940:	10800044 	addi	r2,r2,1
 2002944:	e0800215 	stw	r2,8(fp)
    if (bSuccess && !i2c_write(clk_base, data_base, ControlAddr)){ // send sub-address
        bSuccess = FALSE;
        I2C_DEBUG(("I2C HMB_E2 Fail: SubAddress NACK!\n"));
    }            
    if (bSuccess){
        for(i=0;i<len && bSuccess;i++){
 2002948:	e0bff917 	ldw	r2,-28(fp)
 200294c:	10800044 	addi	r2,r2,1
 2002950:	e0bff915 	stw	r2,-28(fp)
 2002954:	e0ffff0b 	ldhu	r3,-4(fp)
 2002958:	e0bff917 	ldw	r2,-28(fp)
 200295c:	10c0030e 	bge	r2,r3,200296c <_Z17I2C_MultipleWritemmahPht+0x120>
 2002960:	e0bffa03 	ldbu	r2,-24(fp)
 2002964:	1004c03a 	cmpne	r2,r2,zero
 2002968:	103fed1e 	bne	r2,zero,2002920 <_Z17I2C_MultipleWritemmahPht+0xd4>
            pData++;
        }
        if (!bSuccess)         
            I2C_DEBUG(("I2C HMB_E2 Fail: write NACK!\n"));
    }
    i2c_stop(clk_base, data_base);
 200296c:	e13ffb17 	ldw	r4,-20(fp)
 2002970:	e17ffc17 	ldw	r5,-16(fp)
 2002974:	200230c0 	call	200230c <_Z8i2c_stopmm>
    
    usleep(7*1000); // delay to wait EE2 ready (at least 5 ms delay is required)
 2002978:	0106d604 	movi	r4,7000
 200297c:	200ebf80 	call	200ebf8 <usleep>
    
    return bSuccess;
 2002980:	e0bffa03 	ldbu	r2,-24(fp)

    
}
 2002984:	e037883a 	mov	sp,fp
 2002988:	dfc00117 	ldw	ra,4(sp)
 200298c:	df000017 	ldw	fp,0(sp)
 2002990:	dec00204 	addi	sp,sp,8
 2002994:	f800283a 	ret

02002998 <_Z8I2C_ReadmmahPh>:
    return bSuccess;

    
}

bool I2C_Read(alt_u32 clk_base, alt_u32 data_base, alt_8 DeviceAddr, alt_u8 ControlAddr, alt_u8 *pControlData){
 2002998:	defff904 	addi	sp,sp,-28
 200299c:	dfc00615 	stw	ra,24(sp)
 20029a0:	df000515 	stw	fp,20(sp)
 20029a4:	df000504 	addi	fp,sp,20
 20029a8:	e13ffc15 	stw	r4,-16(fp)
 20029ac:	e17ffd15 	stw	r5,-12(fp)
 20029b0:	e1bffe05 	stb	r6,-8(fp)
 20029b4:	e1ffff05 	stb	r7,-4(fp)
    bool bSuccess = TRUE;
 20029b8:	00800044 	movi	r2,1
 20029bc:	e0bffb05 	stb	r2,-20(fp)
    //alt_u8 DeviceAddr;
   
    // device id
    //DeviceAddr = HMB_E2_I2C_ID;

    i2c_start(clk_base, data_base);
 20029c0:	e13ffc17 	ldw	r4,-16(fp)
 20029c4:	e17ffd17 	ldw	r5,-12(fp)
 20029c8:	20023840 	call	2002384 <_Z9i2c_startmm>
    if (!i2c_write(clk_base, data_base, DeviceAddr)){  // send ID
 20029cc:	e0bffe03 	ldbu	r2,-8(fp)
 20029d0:	11803fcc 	andi	r6,r2,255
 20029d4:	e13ffc17 	ldw	r4,-16(fp)
 20029d8:	e17ffd17 	ldw	r5,-12(fp)
 20029dc:	20025600 	call	2002560 <_Z9i2c_writemmh>
 20029e0:	1080005c 	xori	r2,r2,1
 20029e4:	10803fcc 	andi	r2,r2,255
 20029e8:	1005003a 	cmpeq	r2,r2,zero
 20029ec:	1000011e 	bne	r2,zero,20029f4 <_Z8I2C_ReadmmahPh+0x5c>
        bSuccess = FALSE;
 20029f0:	e03ffb05 	stb	zero,-20(fp)
        I2C_DEBUG(("I2C HMB_E2 Fail: Address NACK!\n"));
    }
    if (bSuccess && !i2c_write(clk_base, data_base, ControlAddr)){ // send sub-address
 20029f4:	e0bffb03 	ldbu	r2,-20(fp)
 20029f8:	1080005c 	xori	r2,r2,1
 20029fc:	10803fcc 	andi	r2,r2,255
 2002a00:	1004c03a 	cmpne	r2,r2,zero
 2002a04:	10000c1e 	bne	r2,zero,2002a38 <_Z8I2C_ReadmmahPh+0xa0>
 2002a08:	e1bfff03 	ldbu	r6,-4(fp)
 2002a0c:	e13ffc17 	ldw	r4,-16(fp)
 2002a10:	e17ffd17 	ldw	r5,-12(fp)
 2002a14:	20025600 	call	2002560 <_Z9i2c_writemmh>
 2002a18:	1080005c 	xori	r2,r2,1
 2002a1c:	1080005c 	xori	r2,r2,1
 2002a20:	10803fcc 	andi	r2,r2,255
 2002a24:	1004c03a 	cmpne	r2,r2,zero
 2002a28:	1000031e 	bne	r2,zero,2002a38 <_Z8I2C_ReadmmahPh+0xa0>
 2002a2c:	00800044 	movi	r2,1
 2002a30:	e0bfff85 	stb	r2,-2(fp)
 2002a34:	00000106 	br	2002a3c <_Z8I2C_ReadmmahPh+0xa4>
 2002a38:	e03fff85 	stb	zero,-2(fp)
 2002a3c:	e0bfff83 	ldbu	r2,-2(fp)
 2002a40:	10803fcc 	andi	r2,r2,255
 2002a44:	1005003a 	cmpeq	r2,r2,zero
 2002a48:	1000011e 	bne	r2,zero,2002a50 <_Z8I2C_ReadmmahPh+0xb8>
        bSuccess = FALSE;
 2002a4c:	e03ffb05 	stb	zero,-20(fp)
        I2C_DEBUG(("I2C HMB_E2 Fail: SubAddress NACK!\n"));
    }            
    i2c_start(clk_base, data_base);  // restart
 2002a50:	e13ffc17 	ldw	r4,-16(fp)
 2002a54:	e17ffd17 	ldw	r5,-12(fp)
 2002a58:	20023840 	call	2002384 <_Z9i2c_startmm>
    DeviceAddr |= 1; // Read
 2002a5c:	e0bffe03 	ldbu	r2,-8(fp)
 2002a60:	10800054 	ori	r2,r2,1
 2002a64:	e0bffe05 	stb	r2,-8(fp)
    if (bSuccess && !i2c_write(clk_base, data_base, DeviceAddr)){  // send id
 2002a68:	e0bffb03 	ldbu	r2,-20(fp)
 2002a6c:	1080005c 	xori	r2,r2,1
 2002a70:	10803fcc 	andi	r2,r2,255
 2002a74:	1004c03a 	cmpne	r2,r2,zero
 2002a78:	10000d1e 	bne	r2,zero,2002ab0 <_Z8I2C_ReadmmahPh+0x118>
 2002a7c:	e0bffe03 	ldbu	r2,-8(fp)
 2002a80:	11803fcc 	andi	r6,r2,255
 2002a84:	e13ffc17 	ldw	r4,-16(fp)
 2002a88:	e17ffd17 	ldw	r5,-12(fp)
 2002a8c:	20025600 	call	2002560 <_Z9i2c_writemmh>
 2002a90:	1080005c 	xori	r2,r2,1
 2002a94:	1080005c 	xori	r2,r2,1
 2002a98:	10803fcc 	andi	r2,r2,255
 2002a9c:	1004c03a 	cmpne	r2,r2,zero
 2002aa0:	1000031e 	bne	r2,zero,2002ab0 <_Z8I2C_ReadmmahPh+0x118>
 2002aa4:	00800044 	movi	r2,1
 2002aa8:	e0bfff45 	stb	r2,-3(fp)
 2002aac:	00000106 	br	2002ab4 <_Z8I2C_ReadmmahPh+0x11c>
 2002ab0:	e03fff45 	stb	zero,-3(fp)
 2002ab4:	e0bfff43 	ldbu	r2,-3(fp)
 2002ab8:	10803fcc 	andi	r2,r2,255
 2002abc:	1005003a 	cmpeq	r2,r2,zero
 2002ac0:	1000011e 	bne	r2,zero,2002ac8 <_Z8I2C_ReadmmahPh+0x130>
        bSuccess = FALSE;
 2002ac4:	e03ffb05 	stb	zero,-20(fp)
        I2C_DEBUG(("I2C HMB_E2 Fail: Address+1 NACK!\n"));
    }
    
    if (bSuccess){
 2002ac8:	e0bffb03 	ldbu	r2,-20(fp)
 2002acc:	1005003a 	cmpeq	r2,r2,zero
 2002ad0:	1000051e 	bne	r2,zero,2002ae8 <_Z8I2C_ReadmmahPh+0x150>
        i2c_read(clk_base, data_base, pControlData, FALSE);  // read
 2002ad4:	e13ffc17 	ldw	r4,-16(fp)
 2002ad8:	e17ffd17 	ldw	r5,-12(fp)
 2002adc:	e1800217 	ldw	r6,8(fp)
 2002ae0:	000f883a 	mov	r7,zero
 2002ae4:	200240c0 	call	200240c <_Z8i2c_readmmPhb>
    }        
    i2c_stop(clk_base, data_base);
 2002ae8:	e13ffc17 	ldw	r4,-16(fp)
 2002aec:	e17ffd17 	ldw	r5,-12(fp)
 2002af0:	200230c0 	call	200230c <_Z8i2c_stopmm>
    
    return bSuccess;
 2002af4:	e0bffb03 	ldbu	r2,-20(fp)
}
 2002af8:	e037883a 	mov	sp,fp
 2002afc:	dfc00117 	ldw	ra,4(sp)
 2002b00:	df000017 	ldw	fp,0(sp)
 2002b04:	dec00204 	addi	sp,sp,8
 2002b08:	f800283a 	ret

02002b0c <_Z9I2C_Writemmahh>:
bool i2c_write(alt_u32 clk_base, alt_u32 data_base, alt_u8 Data);
void i2c_read(alt_u32 clk_base, alt_u32 data_base, alt_u8 *pData, bool bAck);



bool I2C_Write(alt_u32 clk_base, alt_u32 data_base, alt_8 DeviceAddr, alt_u8 ControlAddr, alt_u8 ControlData){
 2002b0c:	defff804 	addi	sp,sp,-32
 2002b10:	dfc00715 	stw	ra,28(sp)
 2002b14:	df000615 	stw	fp,24(sp)
 2002b18:	df000604 	addi	fp,sp,24
 2002b1c:	e13ffb15 	stw	r4,-20(fp)
 2002b20:	e17ffc15 	stw	r5,-16(fp)
 2002b24:	e0800217 	ldw	r2,8(fp)
 2002b28:	e1bffd05 	stb	r6,-12(fp)
 2002b2c:	e1fffe05 	stb	r7,-8(fp)
 2002b30:	e0bfff05 	stb	r2,-4(fp)
    bool bSuccess = TRUE;
 2002b34:	00800044 	movi	r2,1
 2002b38:	e0bffa05 	stb	r2,-24(fp)
    //alt_u8 DeviceAddr;
    
    // device id
    //DeviceAddr = HMB_E2_I2C_ID;

    i2c_start(clk_base, data_base);
 2002b3c:	e13ffb17 	ldw	r4,-20(fp)
 2002b40:	e17ffc17 	ldw	r5,-16(fp)
 2002b44:	20023840 	call	2002384 <_Z9i2c_startmm>
    if (!i2c_write(clk_base, data_base, DeviceAddr)){  // send ID
 2002b48:	e0bffd03 	ldbu	r2,-12(fp)
 2002b4c:	11803fcc 	andi	r6,r2,255
 2002b50:	e13ffb17 	ldw	r4,-20(fp)
 2002b54:	e17ffc17 	ldw	r5,-16(fp)
 2002b58:	20025600 	call	2002560 <_Z9i2c_writemmh>
 2002b5c:	1080005c 	xori	r2,r2,1
 2002b60:	10803fcc 	andi	r2,r2,255
 2002b64:	1005003a 	cmpeq	r2,r2,zero
 2002b68:	1000011e 	bne	r2,zero,2002b70 <_Z9I2C_Writemmahh+0x64>
        bSuccess = FALSE;
 2002b6c:	e03ffa05 	stb	zero,-24(fp)
        I2C_DEBUG(("I2C HMB_E2 Fail: Address NACK!\n"));
    }
    if (bSuccess && !i2c_write(clk_base, data_base, ControlAddr)){ // send sub-address
 2002b70:	e0bffa03 	ldbu	r2,-24(fp)
 2002b74:	1080005c 	xori	r2,r2,1
 2002b78:	10803fcc 	andi	r2,r2,255
 2002b7c:	1004c03a 	cmpne	r2,r2,zero
 2002b80:	10000c1e 	bne	r2,zero,2002bb4 <_Z9I2C_Writemmahh+0xa8>
 2002b84:	e1bffe03 	ldbu	r6,-8(fp)
 2002b88:	e13ffb17 	ldw	r4,-20(fp)
 2002b8c:	e17ffc17 	ldw	r5,-16(fp)
 2002b90:	20025600 	call	2002560 <_Z9i2c_writemmh>
 2002b94:	1080005c 	xori	r2,r2,1
 2002b98:	1080005c 	xori	r2,r2,1
 2002b9c:	10803fcc 	andi	r2,r2,255
 2002ba0:	1004c03a 	cmpne	r2,r2,zero
 2002ba4:	1000031e 	bne	r2,zero,2002bb4 <_Z9I2C_Writemmahh+0xa8>
 2002ba8:	00800044 	movi	r2,1
 2002bac:	e0bfff85 	stb	r2,-2(fp)
 2002bb0:	00000106 	br	2002bb8 <_Z9I2C_Writemmahh+0xac>
 2002bb4:	e03fff85 	stb	zero,-2(fp)
 2002bb8:	e0bfff83 	ldbu	r2,-2(fp)
 2002bbc:	10803fcc 	andi	r2,r2,255
 2002bc0:	1005003a 	cmpeq	r2,r2,zero
 2002bc4:	1000011e 	bne	r2,zero,2002bcc <_Z9I2C_Writemmahh+0xc0>
        bSuccess = FALSE;
 2002bc8:	e03ffa05 	stb	zero,-24(fp)
        I2C_DEBUG(("I2C HMB_E2 Fail: SubAddress NACK!\n"));
    }            
    if (bSuccess && !i2c_write(clk_base, data_base, ControlData)){  
 2002bcc:	e0bffa03 	ldbu	r2,-24(fp)
 2002bd0:	1080005c 	xori	r2,r2,1
 2002bd4:	10803fcc 	andi	r2,r2,255
 2002bd8:	1004c03a 	cmpne	r2,r2,zero
 2002bdc:	10000c1e 	bne	r2,zero,2002c10 <_Z9I2C_Writemmahh+0x104>
 2002be0:	e1bfff03 	ldbu	r6,-4(fp)
 2002be4:	e13ffb17 	ldw	r4,-20(fp)
 2002be8:	e17ffc17 	ldw	r5,-16(fp)
 2002bec:	20025600 	call	2002560 <_Z9i2c_writemmh>
 2002bf0:	1080005c 	xori	r2,r2,1
 2002bf4:	1080005c 	xori	r2,r2,1
 2002bf8:	10803fcc 	andi	r2,r2,255
 2002bfc:	1004c03a 	cmpne	r2,r2,zero
 2002c00:	1000031e 	bne	r2,zero,2002c10 <_Z9I2C_Writemmahh+0x104>
 2002c04:	00800044 	movi	r2,1
 2002c08:	e0bfff45 	stb	r2,-3(fp)
 2002c0c:	00000106 	br	2002c14 <_Z9I2C_Writemmahh+0x108>
 2002c10:	e03fff45 	stb	zero,-3(fp)
 2002c14:	e0bfff43 	ldbu	r2,-3(fp)
 2002c18:	10803fcc 	andi	r2,r2,255
 2002c1c:	1005003a 	cmpeq	r2,r2,zero
 2002c20:	1000011e 	bne	r2,zero,2002c28 <_Z9I2C_Writemmahh+0x11c>
        bSuccess = FALSE;
 2002c24:	e03ffa05 	stb	zero,-24(fp)
        I2C_DEBUG(("I2C HMB_E2 Fail: write NACK!\n"));
    }
    i2c_stop(clk_base, data_base);
 2002c28:	e13ffb17 	ldw	r4,-20(fp)
 2002c2c:	e17ffc17 	ldw	r5,-16(fp)
 2002c30:	200230c0 	call	200230c <_Z8i2c_stopmm>
    
    usleep(7*1000); // delay to wait EE2 ready (at least 5 ms delay is required)
 2002c34:	0106d604 	movi	r4,7000
 2002c38:	200ebf80 	call	200ebf8 <usleep>
    
    return bSuccess;
 2002c3c:	e0bffa03 	ldbu	r2,-24(fp)

    
}
 2002c40:	e037883a 	mov	sp,fp
 2002c44:	dfc00117 	ldw	ra,4(sp)
 2002c48:	df000017 	ldw	fp,0(sp)
 2002c4c:	dec00204 	addi	sp,sp,8
 2002c50:	f800283a 	ret

02002c54 <_Z15i2c_data_verifymmh>:
}

//==========================================================
// function for verify

bool i2c_data_verify(alt_u32 scl_base, alt_u32 sda_base, alt_u8 ControlAddr){
 2002c54:	defff804 	addi	sp,sp,-32
 2002c58:	dfc00715 	stw	ra,28(sp)
 2002c5c:	df000615 	stw	fp,24(sp)
 2002c60:	df000604 	addi	fp,sp,24
 2002c64:	e13ffd15 	stw	r4,-12(fp)
 2002c68:	e17ffe15 	stw	r5,-8(fp)
 2002c6c:	e1bfff05 	stb	r6,-4(fp)
    bool bPass;
    const alt_8 DeviceAddr = 0xA0;
 2002c70:	00bfe804 	movi	r2,-96
 2002c74:	e0bffb45 	stb	r2,-19(fp)
 * alt_nticks() returns the elapsed number of system clock ticks since reset.
 */

static ALT_INLINE alt_u32 ALT_ALWAYS_INLINE alt_nticks (void)
{
  return _alt_nticks;
 2002c78:	00808074 	movhi	r2,513
 2002c7c:	1098bf04 	addi	r2,r2,25340
 2002c80:	10800017 	ldw	r2,0(r2)
    alt_u8 OrgData, TestData, Data;
    
    TestData = alt_nticks();
 2002c84:	e0bffb05 	stb	r2,-20(fp)
    if (TestData == 0)
 2002c88:	e0bffb03 	ldbu	r2,-20(fp)
 2002c8c:	1004c03a 	cmpne	r2,r2,zero
 2002c90:	1000021e 	bne	r2,zero,2002c9c <_Z15i2c_data_verifymmh+0x48>
        TestData = 0x12;
 2002c94:	00800484 	movi	r2,18
 2002c98:	e0bffb05 	stb	r2,-20(fp)
    
    bPass = I2C_Read(scl_base, sda_base, DeviceAddr, ControlAddr, &OrgData);
 2002c9c:	e1ffff03 	ldbu	r7,-4(fp)
 2002ca0:	e0bffbc4 	addi	r2,fp,-17
 2002ca4:	d8800015 	stw	r2,0(sp)
 2002ca8:	e13ffd17 	ldw	r4,-12(fp)
 2002cac:	e17ffe17 	ldw	r5,-8(fp)
 2002cb0:	01bfe804 	movi	r6,-96
 2002cb4:	20029980 	call	2002998 <_Z8I2C_ReadmmahPh>
 2002cb8:	e0bffb85 	stb	r2,-18(fp)
    if (bPass) // write
 2002cbc:	e0bffb83 	ldbu	r2,-18(fp)
 2002cc0:	1005003a 	cmpeq	r2,r2,zero
 2002cc4:	1000081e 	bne	r2,zero,2002ce8 <_Z15i2c_data_verifymmh+0x94>
        bPass = I2C_Write(scl_base, sda_base, DeviceAddr, ControlAddr, TestData);
 2002cc8:	e1ffff03 	ldbu	r7,-4(fp)
 2002ccc:	e0bffb03 	ldbu	r2,-20(fp)
 2002cd0:	d8800015 	stw	r2,0(sp)
 2002cd4:	e13ffd17 	ldw	r4,-12(fp)
 2002cd8:	e17ffe17 	ldw	r5,-8(fp)
 2002cdc:	01bfe804 	movi	r6,-96
 2002ce0:	2002b0c0 	call	2002b0c <_Z9I2C_Writemmahh>
 2002ce4:	e0bffb85 	stb	r2,-18(fp)
    if (bPass) // read        
 2002ce8:	e0bffb83 	ldbu	r2,-18(fp)
 2002cec:	1005003a 	cmpeq	r2,r2,zero
 2002cf0:	1000081e 	bne	r2,zero,2002d14 <_Z15i2c_data_verifymmh+0xc0>
        bPass = I2C_Read(scl_base, sda_base, DeviceAddr, ControlAddr, &Data);
 2002cf4:	e1ffff03 	ldbu	r7,-4(fp)
 2002cf8:	e0bffc04 	addi	r2,fp,-16
 2002cfc:	d8800015 	stw	r2,0(sp)
 2002d00:	e13ffd17 	ldw	r4,-12(fp)
 2002d04:	e17ffe17 	ldw	r5,-8(fp)
 2002d08:	01bfe804 	movi	r6,-96
 2002d0c:	20029980 	call	2002998 <_Z8I2C_ReadmmahPh>
 2002d10:	e0bffb85 	stb	r2,-18(fp)
    if (bPass && (Data != TestData)) // verify
 2002d14:	e0bffb83 	ldbu	r2,-18(fp)
 2002d18:	1005003a 	cmpeq	r2,r2,zero
 2002d1c:	1000051e 	bne	r2,zero,2002d34 <_Z15i2c_data_verifymmh+0xe0>
 2002d20:	e0bffc03 	ldbu	r2,-16(fp)
 2002d24:	10c03fcc 	andi	r3,r2,255
 2002d28:	e0bffb03 	ldbu	r2,-20(fp)
 2002d2c:	18800126 	beq	r3,r2,2002d34 <_Z15i2c_data_verifymmh+0xe0>
        bPass = FALSE;        
 2002d30:	e03ffb85 	stb	zero,-18(fp)
    // restore        
    if (bPass) // write back
 2002d34:	e0bffb83 	ldbu	r2,-18(fp)
 2002d38:	1005003a 	cmpeq	r2,r2,zero
 2002d3c:	1000091e 	bne	r2,zero,2002d64 <_Z15i2c_data_verifymmh+0x110>
        bPass = I2C_Write(scl_base, sda_base, DeviceAddr, ControlAddr, OrgData);
 2002d40:	e1ffff03 	ldbu	r7,-4(fp)
 2002d44:	e0bffbc3 	ldbu	r2,-17(fp)
 2002d48:	10803fcc 	andi	r2,r2,255
 2002d4c:	d8800015 	stw	r2,0(sp)
 2002d50:	e13ffd17 	ldw	r4,-12(fp)
 2002d54:	e17ffe17 	ldw	r5,-8(fp)
 2002d58:	01bfe804 	movi	r6,-96
 2002d5c:	2002b0c0 	call	2002b0c <_Z9I2C_Writemmahh>
 2002d60:	e0bffb85 	stb	r2,-18(fp)
    if (bPass) // read        
 2002d64:	e0bffb83 	ldbu	r2,-18(fp)
 2002d68:	1005003a 	cmpeq	r2,r2,zero
 2002d6c:	1000081e 	bne	r2,zero,2002d90 <_Z15i2c_data_verifymmh+0x13c>
        bPass = I2C_Read(scl_base, sda_base, DeviceAddr, ControlAddr, &Data);
 2002d70:	e1ffff03 	ldbu	r7,-4(fp)
 2002d74:	e0bffc04 	addi	r2,fp,-16
 2002d78:	d8800015 	stw	r2,0(sp)
 2002d7c:	e13ffd17 	ldw	r4,-12(fp)
 2002d80:	e17ffe17 	ldw	r5,-8(fp)
 2002d84:	01bfe804 	movi	r6,-96
 2002d88:	20029980 	call	2002998 <_Z8I2C_ReadmmahPh>
 2002d8c:	e0bffb85 	stb	r2,-18(fp)
    if (bPass && (Data != OrgData)) // verify
 2002d90:	e0bffb83 	ldbu	r2,-18(fp)
 2002d94:	1005003a 	cmpeq	r2,r2,zero
 2002d98:	1000061e 	bne	r2,zero,2002db4 <_Z15i2c_data_verifymmh+0x160>
 2002d9c:	e0bffc03 	ldbu	r2,-16(fp)
 2002da0:	e0fffbc3 	ldbu	r3,-17(fp)
 2002da4:	11003fcc 	andi	r4,r2,255
 2002da8:	18803fcc 	andi	r2,r3,255
 2002dac:	20800126 	beq	r4,r2,2002db4 <_Z15i2c_data_verifymmh+0x160>
        bPass = FALSE; 
 2002db0:	e03ffb85 	stb	zero,-18(fp)
        
    return bPass;
 2002db4:	e0bffb83 	ldbu	r2,-18(fp)
}
 2002db8:	e037883a 	mov	sp,fp
 2002dbc:	dfc00117 	ldw	ra,4(sp)
 2002dc0:	df000017 	ldw	fp,0(sp)
 2002dc4:	dec00204 	addi	sp,sp,8
 2002dc8:	f800283a 	ret

02002dcc <_Z10I2C_Verifymmm>:




bool I2C_Verify(alt_u32 scl_base, alt_u32 sda_base, alt_u32 size){
 2002dcc:	defffa04 	addi	sp,sp,-24
 2002dd0:	dfc00515 	stw	ra,20(sp)
 2002dd4:	df000415 	stw	fp,16(sp)
 2002dd8:	df000404 	addi	fp,sp,16
 2002ddc:	e13ffd15 	stw	r4,-12(fp)
 2002de0:	e17ffe15 	stw	r5,-8(fp)
 2002de4:	e1bfff15 	stw	r6,-4(fp)
    bool bPass;
    if (size <= 256){
 2002de8:	e0bfff17 	ldw	r2,-4(fp)
 2002dec:	10804068 	cmpgeui	r2,r2,257
 2002df0:	1000101e 	bne	r2,zero,2002e34 <_Z10I2C_Verifymmm+0x68>
        // less or equal to 256 Bytes
        bPass = i2c_data_verify(scl_base, sda_base, 0);
 2002df4:	e13ffd17 	ldw	r4,-12(fp)
 2002df8:	e17ffe17 	ldw	r5,-8(fp)
 2002dfc:	000d883a 	mov	r6,zero
 2002e00:	2002c540 	call	2002c54 <_Z15i2c_data_verifymmh>
 2002e04:	e0bffc05 	stb	r2,-16(fp)
        if (bPass)
 2002e08:	e0bffc03 	ldbu	r2,-16(fp)
 2002e0c:	1005003a 	cmpeq	r2,r2,zero
 2002e10:	1000091e 	bne	r2,zero,2002e38 <_Z10I2C_Verifymmm+0x6c>
            bPass = i2c_data_verify(scl_base, sda_base, size-1);
 2002e14:	e0bfff17 	ldw	r2,-4(fp)
 2002e18:	10bfffc4 	addi	r2,r2,-1
 2002e1c:	11803fcc 	andi	r6,r2,255
 2002e20:	e13ffd17 	ldw	r4,-12(fp)
 2002e24:	e17ffe17 	ldw	r5,-8(fp)
 2002e28:	2002c540 	call	2002c54 <_Z15i2c_data_verifymmh>
 2002e2c:	e0bffc05 	stb	r2,-16(fp)
 2002e30:	00000106 	br	2002e38 <_Z10I2C_Verifymmm+0x6c>
    }else{
        bPass = FALSE;
 2002e34:	e03ffc05 	stb	zero,-16(fp)
        bPass = i2cl_data_verify(scl_base, sda_base, 0);
        if (bPass)
            bPass = i2cl_data_verify(scl_base, sda_base, size-1);
            */
    }
    return bPass;
 2002e38:	e0bffc03 	ldbu	r2,-16(fp)
}
 2002e3c:	e037883a 	mov	sp,fp
 2002e40:	dfc00117 	ldw	ra,4(sp)
 2002e44:	df000017 	ldw	fp,0(sp)
 2002e48:	dec00204 	addi	sp,sp,8
 2002e4c:	f800283a 	ret

02002e50 <_Z18ADXL345_SPI_IdReadmPh>:
    }        
    
    return bPass;
}

bool ADXL345_SPI_IdRead(alt_u32 device_base, alt_u8 *pId){
 2002e50:	defffb04 	addi	sp,sp,-20
 2002e54:	dfc00415 	stw	ra,16(sp)
 2002e58:	df000315 	stw	fp,12(sp)
 2002e5c:	df000304 	addi	fp,sp,12
 2002e60:	e13ffe15 	stw	r4,-8(fp)
 2002e64:	e17fff15 	stw	r5,-4(fp)
    bool bPass;
    bPass = SPI_Read(device_base, ADXL345_REG_DEVID, pId);
 2002e68:	e13ffe17 	ldw	r4,-8(fp)
 2002e6c:	000b883a 	mov	r5,zero
 2002e70:	e1bfff17 	ldw	r6,-4(fp)
 2002e74:	200345c0 	call	200345c <_Z8SPI_ReadmhPh>
 2002e78:	e0bffd05 	stb	r2,-12(fp)
    
    return bPass;
 2002e7c:	e0bffd03 	ldbu	r2,-12(fp)
}
 2002e80:	e037883a 	mov	sp,fp
 2002e84:	dfc00117 	ldw	ra,4(sp)
 2002e88:	df000017 	ldw	fp,0(sp)
 2002e8c:	dec00204 	addi	sp,sp,8
 2002e90:	f800283a 	ret

02002e94 <_Z23ADXL345_SPI_IsDataReadym>:
    
    return bDataReady;
        
}    

bool ADXL345_SPI_IsDataReady(alt_u32 device_base){
 2002e94:	defffc04 	addi	sp,sp,-16
 2002e98:	dfc00315 	stw	ra,12(sp)
 2002e9c:	df000215 	stw	fp,8(sp)
 2002ea0:	df000204 	addi	fp,sp,8
 2002ea4:	e13fff15 	stw	r4,-4(fp)
    bool bReady = FALSE;
 2002ea8:	e03ffe05 	stb	zero,-8(fp)
    alt_u8 data8;
    
    if (SPI_Read(device_base, ADXL345_REG_INT_SOURCE,&data8)){
 2002eac:	e1bffe44 	addi	r6,fp,-7
 2002eb0:	e13fff17 	ldw	r4,-4(fp)
 2002eb4:	01400c04 	movi	r5,48
 2002eb8:	200345c0 	call	200345c <_Z8SPI_ReadmhPh>
 2002ebc:	10803fcc 	andi	r2,r2,255
 2002ec0:	1005003a 	cmpeq	r2,r2,zero
 2002ec4:	1000081e 	bne	r2,zero,2002ee8 <_Z23ADXL345_SPI_IsDataReadym+0x54>
        if (data8 & XL345_DATAREADY)
 2002ec8:	e0bffe43 	ldbu	r2,-7(fp)
 2002ecc:	10803fcc 	andi	r2,r2,255
 2002ed0:	1080201c 	xori	r2,r2,128
 2002ed4:	10bfe004 	addi	r2,r2,-128
 2002ed8:	1004403a 	cmpge	r2,r2,zero
 2002edc:	1000021e 	bne	r2,zero,2002ee8 <_Z23ADXL345_SPI_IsDataReadym+0x54>
            bReady = TRUE;
 2002ee0:	00800044 	movi	r2,1
 2002ee4:	e0bffe05 	stb	r2,-8(fp)
    }            
    
    return bReady;
 2002ee8:	e0bffe03 	ldbu	r2,-8(fp)
}
 2002eec:	e037883a 	mov	sp,fp
 2002ef0:	dfc00117 	ldw	ra,4(sp)
 2002ef4:	df000017 	ldw	fp,0(sp)
 2002ef8:	dec00204 	addi	sp,sp,8
 2002efc:	f800283a 	ret

02002f00 <_Z20ADXL345_SPI_XYZ_ReadmPt>:



bool ADXL345_SPI_XYZ_Read(alt_u32 device_base, alt_u16 szData16[3]){
 2002f00:	defffa04 	addi	sp,sp,-24
 2002f04:	dfc00515 	stw	ra,20(sp)
 2002f08:	df000415 	stw	fp,16(sp)
 2002f0c:	df000404 	addi	fp,sp,16
 2002f10:	e13ffe15 	stw	r4,-8(fp)
 2002f14:	e17fff15 	stw	r5,-4(fp)
    bool bPass;
    alt_u8 szData8[6];
    bPass = SPI_MultipleRead(device_base, 0x32, (alt_u8 *)&szData8, sizeof(szData8));
 2002f18:	e1bffc44 	addi	r6,fp,-15
 2002f1c:	e13ffe17 	ldw	r4,-8(fp)
 2002f20:	01400c84 	movi	r5,50
 2002f24:	01c00184 	movi	r7,6
 2002f28:	20032d80 	call	20032d8 <_Z16SPI_MultipleReadmhPhh>
 2002f2c:	e0bffc05 	stb	r2,-16(fp)
    if (bPass){
 2002f30:	e0bffc03 	ldbu	r2,-16(fp)
 2002f34:	1005003a 	cmpeq	r2,r2,zero
 2002f38:	10001e1e 	bne	r2,zero,2002fb4 <_Z20ADXL345_SPI_XYZ_ReadmPt+0xb4>
        szData16[0] = (szData8[1] << 8) | szData8[0]; 
 2002f3c:	e0bffc83 	ldbu	r2,-14(fp)
 2002f40:	10803fcc 	andi	r2,r2,255
 2002f44:	1004923a 	slli	r2,r2,8
 2002f48:	1007883a 	mov	r3,r2
 2002f4c:	e0bffc43 	ldbu	r2,-15(fp)
 2002f50:	10803fcc 	andi	r2,r2,255
 2002f54:	1884b03a 	or	r2,r3,r2
 2002f58:	1007883a 	mov	r3,r2
 2002f5c:	e0bfff17 	ldw	r2,-4(fp)
 2002f60:	10c0000d 	sth	r3,0(r2)
        szData16[1] = (szData8[3] << 8) | szData8[2];
 2002f64:	e0bfff17 	ldw	r2,-4(fp)
 2002f68:	11000084 	addi	r4,r2,2
 2002f6c:	e0bffd03 	ldbu	r2,-12(fp)
 2002f70:	10803fcc 	andi	r2,r2,255
 2002f74:	1004923a 	slli	r2,r2,8
 2002f78:	1007883a 	mov	r3,r2
 2002f7c:	e0bffcc3 	ldbu	r2,-13(fp)
 2002f80:	10803fcc 	andi	r2,r2,255
 2002f84:	1884b03a 	or	r2,r3,r2
 2002f88:	2080000d 	sth	r2,0(r4)
        szData16[2] = (szData8[5] << 8) | szData8[4];
 2002f8c:	e0bfff17 	ldw	r2,-4(fp)
 2002f90:	11000104 	addi	r4,r2,4
 2002f94:	e0bffd83 	ldbu	r2,-10(fp)
 2002f98:	10803fcc 	andi	r2,r2,255
 2002f9c:	1004923a 	slli	r2,r2,8
 2002fa0:	1007883a 	mov	r3,r2
 2002fa4:	e0bffd43 	ldbu	r2,-11(fp)
 2002fa8:	10803fcc 	andi	r2,r2,255
 2002fac:	1884b03a 	or	r2,r3,r2
 2002fb0:	2080000d 	sth	r2,0(r4)
    }        
    
    return bPass;
 2002fb4:	e0bffc03 	ldbu	r2,-16(fp)
}
 2002fb8:	e037883a 	mov	sp,fp
 2002fbc:	dfc00117 	ldw	ra,4(sp)
 2002fc0:	df000017 	ldw	fp,0(sp)
 2002fc4:	dec00204 	addi	sp,sp,8
 2002fc8:	f800283a 	ret

02002fcc <_Z16ADXL345_SPI_Initm>:

#define DATA_READY_TIMEOUT  (alt_ticks_per_second()/3)



bool ADXL345_SPI_Init(alt_u32 device_base){
 2002fcc:	defffc04 	addi	sp,sp,-16
 2002fd0:	dfc00315 	stw	ra,12(sp)
 2002fd4:	df000215 	stw	fp,8(sp)
 2002fd8:	df000204 	addi	fp,sp,8
 2002fdc:	e13fff15 	stw	r4,-4(fp)
    bool bSuccess;
    
    // clear fifo
    SPI_Init(device_base);
 2002fe0:	e13fff17 	ldw	r4,-4(fp)
 2002fe4:	200328c0 	call	200328c <_Z8SPI_Initm>
   
    // 3-wire spi
    bSuccess = SPI_Write(device_base, ADXL345_REG_DATA_FORMAT, XL345_SPI3WIRE);
 2002fe8:	e13fff17 	ldw	r4,-4(fp)
 2002fec:	01400c44 	movi	r5,49
 2002ff0:	01801004 	movi	r6,64
 2002ff4:	20036080 	call	2003608 <_Z9SPI_Writemhh>
 2002ff8:	e0bffe05 	stb	r2,-8(fp)
 
    // clear fifo   
    SPI_Init(device_base);
 2002ffc:	e13fff17 	ldw	r4,-4(fp)
 2003000:	200328c0 	call	200328c <_Z8SPI_Initm>
        
    //Output Data Rate: 40Hz
    if (bSuccess){
 2003004:	e0bffe03 	ldbu	r2,-8(fp)
 2003008:	1005003a 	cmpeq	r2,r2,zero
 200300c:	1000051e 	bne	r2,zero,2003024 <_Z16ADXL345_SPI_Initm+0x58>
        bSuccess = SPI_Write(device_base, ADXL345_REG_BW_RATE, XL345_RATE_400); // 400 MHZ
 2003010:	e13fff17 	ldw	r4,-4(fp)
 2003014:	01400b04 	movi	r5,44
 2003018:	01800304 	movi	r6,12
 200301c:	20036080 	call	2003608 <_Z9SPI_Writemhh>
 2003020:	e0bffe05 	stb	r2,-8(fp)
    }
    
            
        
    //INT_Enable: Data Ready
    if (bSuccess){   
 2003024:	e0bffe03 	ldbu	r2,-8(fp)
 2003028:	1005003a 	cmpeq	r2,r2,zero
 200302c:	1000051e 	bne	r2,zero,2003044 <_Z16ADXL345_SPI_Initm+0x78>
        bSuccess = SPI_Write(device_base, ADXL345_REG_INT_ENALBE, XL345_DATAREADY);
 2003030:	e13fff17 	ldw	r4,-4(fp)
 2003034:	01400b84 	movi	r5,46
 2003038:	01802004 	movi	r6,128
 200303c:	20036080 	call	2003608 <_Z9SPI_Writemhh>
 2003040:	e0bffe05 	stb	r2,-8(fp)
    }
    
    // stop measure
    if (bSuccess){
 2003044:	e0bffe03 	ldbu	r2,-8(fp)
 2003048:	1005003a 	cmpeq	r2,r2,zero
 200304c:	1000051e 	bne	r2,zero,2003064 <_Z16ADXL345_SPI_Initm+0x98>
        bSuccess = SPI_Write(device_base, ADXL345_REG_POWER_CTL, XL345_STANDBY);
 2003050:	e13fff17 	ldw	r4,-4(fp)
 2003054:	01400b44 	movi	r5,45
 2003058:	000d883a 	mov	r6,zero
 200305c:	20036080 	call	2003608 <_Z9SPI_Writemhh>
 2003060:	e0bffe05 	stb	r2,-8(fp)
    }

    // start measure
    if (bSuccess){
 2003064:	e0bffe03 	ldbu	r2,-8(fp)
 2003068:	1005003a 	cmpeq	r2,r2,zero
 200306c:	1000051e 	bne	r2,zero,2003084 <_Z16ADXL345_SPI_Initm+0xb8>
        bSuccess = SPI_Write(device_base, ADXL345_REG_POWER_CTL, XL345_MEASURE);
 2003070:	e13fff17 	ldw	r4,-4(fp)
 2003074:	01400b44 	movi	r5,45
 2003078:	01800204 	movi	r6,8
 200307c:	20036080 	call	2003608 <_Z9SPI_Writemhh>
 2003080:	e0bffe05 	stb	r2,-8(fp)
        
    }
    
            
    return bSuccess;    
 2003084:	e0bffe03 	ldbu	r2,-8(fp)
        
}
 2003088:	e037883a 	mov	sp,fp
 200308c:	dfc00117 	ldw	ra,4(sp)
 2003090:	df000017 	ldw	fp,0(sp)
 2003094:	dec00204 	addi	sp,sp,8
 2003098:	f800283a 	ret

0200309c <_Z25ADXL345_SPI_WaitDataReadym>:


    
bool ADXL345_SPI_WaitDataReady(alt_u32 device_base){
 200309c:	defff904 	addi	sp,sp,-28
 20030a0:	dfc00615 	stw	ra,24(sp)
 20030a4:	df000515 	stw	fp,20(sp)
 20030a8:	dc000415 	stw	r16,16(sp)
 20030ac:	df000404 	addi	fp,sp,16
 20030b0:	e13ffe15 	stw	r4,-8(fp)
 20030b4:	00808074 	movhi	r2,513
 20030b8:	1098bf04 	addi	r2,r2,25340
 20030bc:	10800017 	ldw	r2,0(r2)
    bool bDataReady;
    alt_u32 TimeStart;
    
    TimeStart = alt_nticks();
 20030c0:	e0bffc15 	stw	r2,-16(fp)
    do{
        bDataReady = ADXL345_SPI_IsDataReady(device_base);
 20030c4:	e13ffe17 	ldw	r4,-8(fp)
 20030c8:	2002e940 	call	2002e94 <_Z23ADXL345_SPI_IsDataReadym>
 20030cc:	e0bffd05 	stb	r2,-12(fp)
        if (!bDataReady)
 20030d0:	e0bffd03 	ldbu	r2,-12(fp)
 20030d4:	1080005c 	xori	r2,r2,1
 20030d8:	10803fcc 	andi	r2,r2,255
 20030dc:	1005003a 	cmpeq	r2,r2,zero
 20030e0:	1000021e 	bne	r2,zero,20030ec <_Z25ADXL345_SPI_WaitDataReadym+0x50>
            usleep(500); 
 20030e4:	01007d04 	movi	r4,500
 20030e8:	200ebf80 	call	200ebf8 <usleep>
bool ADXL345_SPI_WaitDataReady(alt_u32 device_base){
    bool bDataReady;
    alt_u32 TimeStart;
    
    TimeStart = alt_nticks();
    do{
 20030ec:	e0bffd03 	ldbu	r2,-12(fp)
 20030f0:	1080005c 	xori	r2,r2,1
 20030f4:	1080005c 	xori	r2,r2,1
 20030f8:	10803fcc 	andi	r2,r2,255
 20030fc:	1004c03a 	cmpne	r2,r2,zero
 2003100:	1000101e 	bne	r2,zero,2003144 <_Z25ADXL345_SPI_WaitDataReadym+0xa8>
 2003104:	00808074 	movhi	r2,513
 2003108:	1098bf04 	addi	r2,r2,25340
 200310c:	10800017 	ldw	r2,0(r2)
 2003110:	1007883a 	mov	r3,r2
 2003114:	e0bffc17 	ldw	r2,-16(fp)
 2003118:	18a1c83a 	sub	r16,r3,r2
 * Obtain the system clock rate in ticks/s. 
 */

static ALT_INLINE alt_u32 ALT_ALWAYS_INLINE alt_ticks_per_second (void)
{
  return _alt_tick_rate;
 200311c:	00808074 	movhi	r2,513
 2003120:	1098be04 	addi	r2,r2,25336
 2003124:	10800017 	ldw	r2,0(r2)
 2003128:	1009883a 	mov	r4,r2
 200312c:	014000c4 	movi	r5,3
 2003130:	200d0380 	call	200d038 <__udivsi3>
 2003134:	8080032e 	bgeu	r16,r2,2003144 <_Z25ADXL345_SPI_WaitDataReadym+0xa8>
 2003138:	00800044 	movi	r2,1
 200313c:	e0bfff05 	stb	r2,-4(fp)
 2003140:	00000106 	br	2003148 <_Z25ADXL345_SPI_WaitDataReadym+0xac>
 2003144:	e03fff05 	stb	zero,-4(fp)
 2003148:	e0bfff03 	ldbu	r2,-4(fp)
 200314c:	10803fcc 	andi	r2,r2,255
 2003150:	1004c03a 	cmpne	r2,r2,zero
 2003154:	103fdb1e 	bne	r2,zero,20030c4 <_Z25ADXL345_SPI_WaitDataReadym+0x28>
        bDataReady = ADXL345_SPI_IsDataReady(device_base);
        if (!bDataReady)
            usleep(500); 
    }while (!bDataReady && ( (alt_nticks() - TimeStart) < DATA_READY_TIMEOUT) );
    
    return bDataReady;
 2003158:	e0bffd03 	ldbu	r2,-12(fp)
        
}    
 200315c:	e037883a 	mov	sp,fp
 2003160:	dfc00217 	ldw	ra,8(sp)
 2003164:	df000117 	ldw	fp,4(sp)
 2003168:	dc000017 	ldw	r16,0(sp)
 200316c:	dec00304 	addi	sp,sp,12
 2003170:	f800283a 	ret

02003174 <_Z8ADC_Readh>:
#include "adc_spi_read.h"

#define START_FLAG  0x8000
#define DONE_FLAG   0x8000

alt_u16 ADC_Read(alt_u8 NextChannel){
 2003174:	defffa04 	addi	sp,sp,-24
 2003178:	df000515 	stw	fp,20(sp)
 200317c:	df000504 	addi	fp,sp,20
 2003180:	e13fff05 	stb	r4,-4(fp)
    alt_u16 Data16, DigitalValue = 0;
 2003184:	e03ffd8d 	sth	zero,-10(fp)
    bool bDone = FALSE;
 2003188:	e03ffd05 	stb	zero,-12(fp)
    const int nMaxWait = 1000;
 200318c:	0080fa04 	movi	r2,1000
 2003190:	e0bffc15 	stw	r2,-16(fp)
    int nWaitCnt = 0;
 2003194:	e03ffb15 	stw	zero,-20(fp)
    
    // start
    Data16 = NextChannel;
 2003198:	e0bfff03 	ldbu	r2,-4(fp)
 200319c:	e0bffe0d 	sth	r2,-8(fp)
    IOWR(ADC_SPI_READ_BASE, 0, Data16);
 20031a0:	e0fffe0b 	ldhu	r3,-8(fp)
 20031a4:	00818034 	movhi	r2,1536
 20031a8:	10845e04 	addi	r2,r2,4472
 20031ac:	10c00035 	stwio	r3,0(r2)
    Data16 |= START_FLAG;
 20031b0:	e0fffe0b 	ldhu	r3,-8(fp)
 20031b4:	00a00004 	movi	r2,-32768
 20031b8:	1884b03a 	or	r2,r3,r2
 20031bc:	e0bffe0d 	sth	r2,-8(fp)
    IOWR(ADC_SPI_READ_BASE, 0, Data16);
 20031c0:	e0fffe0b 	ldhu	r3,-8(fp)
 20031c4:	00818034 	movhi	r2,1536
 20031c8:	10845e04 	addi	r2,r2,4472
 20031cc:	10c00035 	stwio	r3,0(r2)
    //usleep(1000); // wait 10ms
    
    // wait done
    while(!bDone && nWaitCnt++ <= nMaxWait){
 20031d0:	00000806 	br	20031f4 <_Z8ADC_Readh+0x80>
        Data16 = IORD(ADC_SPI_READ_BASE,0);
 20031d4:	00818034 	movhi	r2,1536
 20031d8:	10845e04 	addi	r2,r2,4472
 20031dc:	10800037 	ldwio	r2,0(r2)
 20031e0:	e0bffe0d 	sth	r2,-8(fp)
        bDone = (Data16 & DONE_FLAG)?TRUE:FALSE;
 20031e4:	e0bffe0b 	ldhu	r2,-8(fp)
 20031e8:	10bfffcc 	andi	r2,r2,65535
 20031ec:	1004d3fa 	srli	r2,r2,15
 20031f0:	e0bffd05 	stb	r2,-12(fp)
    Data16 |= START_FLAG;
    IOWR(ADC_SPI_READ_BASE, 0, Data16);
    //usleep(1000); // wait 10ms
    
    // wait done
    while(!bDone && nWaitCnt++ <= nMaxWait){
 20031f4:	e0bffd03 	ldbu	r2,-12(fp)
 20031f8:	1080005c 	xori	r2,r2,1
 20031fc:	1080005c 	xori	r2,r2,1
 2003200:	10803fcc 	andi	r2,r2,255
 2003204:	1004c03a 	cmpne	r2,r2,zero
 2003208:	10000d1e 	bne	r2,zero,2003240 <_Z8ADC_Readh+0xcc>
 200320c:	e0bffb17 	ldw	r2,-20(fp)
 2003210:	1080fa50 	cmplti	r2,r2,1001
 2003214:	1007883a 	mov	r3,r2
 2003218:	e0bffb17 	ldw	r2,-20(fp)
 200321c:	10800044 	addi	r2,r2,1
 2003220:	e0bffb15 	stw	r2,-20(fp)
 2003224:	1880005c 	xori	r2,r3,1
 2003228:	10803fcc 	andi	r2,r2,255
 200322c:	1004c03a 	cmpne	r2,r2,zero
 2003230:	1000031e 	bne	r2,zero,2003240 <_Z8ADC_Readh+0xcc>
 2003234:	00800044 	movi	r2,1
 2003238:	e0bfff45 	stb	r2,-3(fp)
 200323c:	00000106 	br	2003244 <_Z8ADC_Readh+0xd0>
 2003240:	e03fff45 	stb	zero,-3(fp)
 2003244:	e0bfff43 	ldbu	r2,-3(fp)
 2003248:	10803fcc 	andi	r2,r2,255
 200324c:	1004c03a 	cmpne	r2,r2,zero
 2003250:	103fe01e 	bne	r2,zero,20031d4 <_Z8ADC_Readh+0x60>
        Data16 = IORD(ADC_SPI_READ_BASE,0);
        bDone = (Data16 & DONE_FLAG)?TRUE:FALSE;
    }
    
    if (bDone)
 2003254:	e0bffd03 	ldbu	r2,-12(fp)
 2003258:	1005003a 	cmpeq	r2,r2,zero
 200325c:	1000031e 	bne	r2,zero,200326c <_Z8ADC_Readh+0xf8>
        DigitalValue = Data16 & 0xFFF; // 12 bits
 2003260:	e0bffe0b 	ldhu	r2,-8(fp)
 2003264:	1083ffcc 	andi	r2,r2,4095
 2003268:	e0bffd8d 	sth	r2,-10(fp)
    
    // stop
    IOWR(ADC_SPI_READ_BASE, 0, 0);
 200326c:	00818034 	movhi	r2,1536
 2003270:	10845e04 	addi	r2,r2,4472
 2003274:	10000035 	stwio	zero,0(r2)
    
    return DigitalValue;
 2003278:	e0bffd8b 	ldhu	r2,-10(fp)
}
 200327c:	e037883a 	mov	sp,fp
 2003280:	df000017 	ldw	fp,0(sp)
 2003284:	dec00104 	addi	sp,sp,4
 2003288:	f800283a 	ret

0200328c <_Z8SPI_Initm>:

typedef enum{
        SPI_STATUS_FLAG_DONE = 0x01
}SPI_STATUS_FLAG;

void SPI_Init(alt_u32 spi_base){
 200328c:	defffe04 	addi	sp,sp,-8
 2003290:	df000115 	stw	fp,4(sp)
 2003294:	df000104 	addi	fp,sp,4
 2003298:	e13fff15 	stw	r4,-4(fp)
    // clear fifo
    IOWR(spi_base, SPI_REG_CTRL_STATUS, 0);
 200329c:	e0bfff17 	ldw	r2,-4(fp)
 20032a0:	10800104 	addi	r2,r2,4
 20032a4:	10000035 	stwio	zero,0(r2)
    IOWR(spi_base, SPI_REG_CTRL_STATUS, SPI_FLAG_CLEAR_FIFO);
 20032a8:	e0bfff17 	ldw	r2,-4(fp)
 20032ac:	10800104 	addi	r2,r2,4
 20032b0:	1007883a 	mov	r3,r2
 20032b4:	00800104 	movi	r2,4
 20032b8:	18800035 	stwio	r2,0(r3)
    IOWR(spi_base, SPI_REG_CTRL_STATUS, 0);
 20032bc:	e0bfff17 	ldw	r2,-4(fp)
 20032c0:	10800104 	addi	r2,r2,4
 20032c4:	10000035 	stwio	zero,0(r2)
   
}
 20032c8:	e037883a 	mov	sp,fp
 20032cc:	df000017 	ldw	fp,0(sp)
 20032d0:	dec00104 	addi	sp,sp,4
 20032d4:	f800283a 	ret

020032d8 <_Z16SPI_MultipleReadmhPhh>:

bool SPI_Write(alt_u32 spi_base, alt_u8 RegIndex, alt_u8 Value){
    return SPI_MultipleWrite(spi_base, RegIndex, &Value, 1);
}    

bool SPI_MultipleRead(alt_u32 spi_base, alt_u8 RegIndex, alt_u8 szBuf[], alt_u8 nByteNum){
 20032d8:	defff404 	addi	sp,sp,-48
 20032dc:	dfc00b15 	stw	ra,44(sp)
 20032e0:	df000a15 	stw	fp,40(sp)
 20032e4:	df000a04 	addi	fp,sp,40
 20032e8:	e13ffa15 	stw	r4,-24(fp)
 20032ec:	e1bffc15 	stw	r6,-16(fp)
 20032f0:	e17ffb05 	stb	r5,-20(fp)
 20032f4:	e1fffd05 	stb	r7,-12(fp)
    alt_u8 Status, Value8;
    const int nMaxTry = 100;
 20032f8:	00801904 	movi	r2,100
 20032fc:	e0bff815 	stw	r2,-32(fp)
    int nTryCnt = 0;
 2003300:	e03ff715 	stw	zero,-36(fp)
    int i;
    
    // make sure processs is stoped, and set read flag
    IOWR(spi_base, SPI_REG_CTRL_STATUS, SPI_FLGA_REG_READ);
 2003304:	e0bffa17 	ldw	r2,-24(fp)
 2003308:	10800104 	addi	r2,r2,4
 200330c:	1007883a 	mov	r3,r2
 2003310:	00800084 	movi	r2,2
 2003314:	18800035 	stwio	r2,0(r3)
    

    // set register index
    IOWR(spi_base, SPI_REG_INDEX, RegIndex);
 2003318:	e0bffa17 	ldw	r2,-24(fp)
 200331c:	10800204 	addi	r2,r2,8
 2003320:	e0fffb03 	ldbu	r3,-20(fp)
 2003324:	10c00035 	stwio	r3,0(r2)

    // set read byte count
    IOWR(spi_base, SPI_REG_READ_NUM, nByteNum-1);
 2003328:	e0bffa17 	ldw	r2,-24(fp)
 200332c:	11000304 	addi	r4,r2,12
 2003330:	e0bffd03 	ldbu	r2,-12(fp)
 2003334:	10ffffc4 	addi	r3,r2,-1
 2003338:	2005883a 	mov	r2,r4
 200333c:	10c00035 	stwio	r3,0(r2)
    
    // start
    IOWR(spi_base, SPI_REG_CTRL_STATUS, SPI_FLAG_STATR | SPI_FLGA_REG_READ);
 2003340:	e0bffa17 	ldw	r2,-24(fp)
 2003344:	10800104 	addi	r2,r2,4
 2003348:	1007883a 	mov	r3,r2
 200334c:	008000c4 	movi	r2,3
 2003350:	18800035 	stwio	r2,0(r3)
    
    // check status
    usleep(10);
 2003354:	01000284 	movi	r4,10
 2003358:	200ebf80 	call	200ebf8 <usleep>
    do{    
        Status = IORD(spi_base, SPI_REG_CTRL_STATUS);
 200335c:	e0bffa17 	ldw	r2,-24(fp)
 2003360:	10800104 	addi	r2,r2,4
 2003364:	10800037 	ldwio	r2,0(r2)
 2003368:	e0bff945 	stb	r2,-27(fp)
    // start
    IOWR(spi_base, SPI_REG_CTRL_STATUS, SPI_FLAG_STATR | SPI_FLGA_REG_READ);
    
    // check status
    usleep(10);
    do{    
 200336c:	e0bff943 	ldbu	r2,-27(fp)
 2003370:	1080004c 	andi	r2,r2,1
 2003374:	1080005c 	xori	r2,r2,1
 2003378:	1080005c 	xori	r2,r2,1
 200337c:	10803fcc 	andi	r2,r2,255
 2003380:	1004c03a 	cmpne	r2,r2,zero
 2003384:	10000d1e 	bne	r2,zero,20033bc <_Z16SPI_MultipleReadmhPhh+0xe4>
 2003388:	e0bff717 	ldw	r2,-36(fp)
 200338c:	10801910 	cmplti	r2,r2,100
 2003390:	1007883a 	mov	r3,r2
 2003394:	e0bff717 	ldw	r2,-36(fp)
 2003398:	10800044 	addi	r2,r2,1
 200339c:	e0bff715 	stw	r2,-36(fp)
 20033a0:	1880005c 	xori	r2,r3,1
 20033a4:	10803fcc 	andi	r2,r2,255
 20033a8:	1004c03a 	cmpne	r2,r2,zero
 20033ac:	1000031e 	bne	r2,zero,20033bc <_Z16SPI_MultipleReadmhPhh+0xe4>
 20033b0:	00800044 	movi	r2,1
 20033b4:	e0bfff05 	stb	r2,-4(fp)
 20033b8:	00000106 	br	20033c0 <_Z16SPI_MultipleReadmhPhh+0xe8>
 20033bc:	e03fff05 	stb	zero,-4(fp)
 20033c0:	e0bfff03 	ldbu	r2,-4(fp)
 20033c4:	10803fcc 	andi	r2,r2,255
 20033c8:	1004c03a 	cmpne	r2,r2,zero
 20033cc:	103fe31e 	bne	r2,zero,200335c <_Z16SPI_MultipleReadmhPhh+0x84>
        Status = IORD(spi_base, SPI_REG_CTRL_STATUS);
    }while (!(Status & SPI_STATUS_FLAG_DONE) && (nTryCnt++ < nMaxTry));
    
    IOWR(spi_base, SPI_REG_CTRL_STATUS, 0);  //stop
 20033d0:	e0bffa17 	ldw	r2,-24(fp)
 20033d4:	10800104 	addi	r2,r2,4
 20033d8:	10000035 	stwio	zero,0(r2)
    
    if (Status & SPI_STATUS_FLAG_DONE){
 20033dc:	e0bff943 	ldbu	r2,-27(fp)
 20033e0:	1080004c 	andi	r2,r2,1
 20033e4:	10803fcc 	andi	r2,r2,255
 20033e8:	1005003a 	cmpeq	r2,r2,zero
 20033ec:	1000141e 	bne	r2,zero,2003440 <_Z16SPI_MultipleReadmhPhh+0x168>
        for(i=0;i<nByteNum;i++){
 20033f0:	e03ff615 	stw	zero,-40(fp)
 20033f4:	00000c06 	br	2003428 <_Z16SPI_MultipleReadmhPhh+0x150>
            Value8 = IORD(spi_base, SPI_REG_DATA);
 20033f8:	e0bffa17 	ldw	r2,-24(fp)
 20033fc:	10800037 	ldwio	r2,0(r2)
 2003400:	e0bff905 	stb	r2,-28(fp)
            szBuf[i] = Value8;
 2003404:	e0bff617 	ldw	r2,-40(fp)
 2003408:	1007883a 	mov	r3,r2
 200340c:	e0bffc17 	ldw	r2,-16(fp)
 2003410:	1887883a 	add	r3,r3,r2
 2003414:	e0bff903 	ldbu	r2,-28(fp)
 2003418:	18800005 	stb	r2,0(r3)
    }while (!(Status & SPI_STATUS_FLAG_DONE) && (nTryCnt++ < nMaxTry));
    
    IOWR(spi_base, SPI_REG_CTRL_STATUS, 0);  //stop
    
    if (Status & SPI_STATUS_FLAG_DONE){
        for(i=0;i<nByteNum;i++){
 200341c:	e0bff617 	ldw	r2,-40(fp)
 2003420:	10800044 	addi	r2,r2,1
 2003424:	e0bff615 	stw	r2,-40(fp)
 2003428:	e0fffd03 	ldbu	r3,-12(fp)
 200342c:	e0bff617 	ldw	r2,-40(fp)
 2003430:	10fff116 	blt	r2,r3,20033f8 <_Z16SPI_MultipleReadmhPhh+0x120>
            Value8 = IORD(spi_base, SPI_REG_DATA);
            szBuf[i] = Value8;
        }
        return TRUE;
 2003434:	00800044 	movi	r2,1
 2003438:	e0bffe15 	stw	r2,-8(fp)
 200343c:	00000106 	br	2003444 <_Z16SPI_MultipleReadmhPhh+0x16c>
    }        
    return FALSE;
 2003440:	e03ffe15 	stw	zero,-8(fp)
 2003444:	e0bffe17 	ldw	r2,-8(fp)
}
 2003448:	e037883a 	mov	sp,fp
 200344c:	dfc00117 	ldw	ra,4(sp)
 2003450:	df000017 	ldw	fp,0(sp)
 2003454:	dec00204 	addi	sp,sp,8
 2003458:	f800283a 	ret

0200345c <_Z8SPI_ReadmhPh>:

bool SPI_Read(alt_u32 spi_base, alt_u8 RegIndex, alt_u8 *pBuf){
 200345c:	defffb04 	addi	sp,sp,-20
 2003460:	dfc00415 	stw	ra,16(sp)
 2003464:	df000315 	stw	fp,12(sp)
 2003468:	df000304 	addi	fp,sp,12
 200346c:	e13ffd15 	stw	r4,-12(fp)
 2003470:	e1bfff15 	stw	r6,-4(fp)
 2003474:	e17ffe05 	stb	r5,-8(fp)
    return SPI_MultipleRead(spi_base, RegIndex, pBuf, 1);
 2003478:	e17ffe03 	ldbu	r5,-8(fp)
 200347c:	e13ffd17 	ldw	r4,-12(fp)
 2003480:	e1bfff17 	ldw	r6,-4(fp)
 2003484:	01c00044 	movi	r7,1
 2003488:	20032d80 	call	20032d8 <_Z16SPI_MultipleReadmhPhh>
 200348c:	10803fcc 	andi	r2,r2,255
}
 2003490:	e037883a 	mov	sp,fp
 2003494:	dfc00117 	ldw	ra,4(sp)
 2003498:	df000017 	ldw	fp,0(sp)
 200349c:	dec00204 	addi	sp,sp,8
 20034a0:	f800283a 	ret

020034a4 <_Z17SPI_MultipleWritemhPhh>:
    IOWR(spi_base, SPI_REG_CTRL_STATUS, 0);
   
}


bool SPI_MultipleWrite(alt_u32 spi_base, alt_u8 RegIndex, alt_u8 szData[], alt_u8 nByteNum){
 20034a4:	defff404 	addi	sp,sp,-48
 20034a8:	dfc00b15 	stw	ra,44(sp)
 20034ac:	df000a15 	stw	fp,40(sp)
 20034b0:	df000a04 	addi	fp,sp,40
 20034b4:	e13ffa15 	stw	r4,-24(fp)
 20034b8:	e1bffc15 	stw	r6,-16(fp)
 20034bc:	e17ffb05 	stb	r5,-20(fp)
 20034c0:	e1fffd05 	stb	r7,-12(fp)
    alt_u8 Status;
    const int nMaxTry = 100;
 20034c4:	00801904 	movi	r2,100
 20034c8:	e0bff815 	stw	r2,-32(fp)
    int nTryCnt = 0;
 20034cc:	e03ff715 	stw	zero,-36(fp)
    int i;
    
    // make sure processs is stoped, and set write flag
    IOWR(spi_base, SPI_REG_CTRL_STATUS, 0);
 20034d0:	e0bffa17 	ldw	r2,-24(fp)
 20034d4:	10800104 	addi	r2,r2,4
 20034d8:	10000035 	stwio	zero,0(r2)
    
    // set register index
    IOWR(spi_base, SPI_REG_INDEX, RegIndex);
 20034dc:	e0bffa17 	ldw	r2,-24(fp)
 20034e0:	10800204 	addi	r2,r2,8
 20034e4:	e0fffb03 	ldbu	r3,-20(fp)
 20034e8:	10c00035 	stwio	r3,0(r2)
    
    // write data to fifo
    for(i=0;i<nByteNum;i++)
 20034ec:	e03ff615 	stw	zero,-40(fp)
 20034f0:	00000c06 	br	2003524 <_Z17SPI_MultipleWritemhPhh+0x80>
        IOWR(spi_base, SPI_REG_DATA, szData[i]);
 20034f4:	e13ffa17 	ldw	r4,-24(fp)
 20034f8:	e0bff617 	ldw	r2,-40(fp)
 20034fc:	1007883a 	mov	r3,r2
 2003500:	e0bffc17 	ldw	r2,-16(fp)
 2003504:	1885883a 	add	r2,r3,r2
 2003508:	10800003 	ldbu	r2,0(r2)
 200350c:	10c03fcc 	andi	r3,r2,255
 2003510:	2005883a 	mov	r2,r4
 2003514:	10c00035 	stwio	r3,0(r2)
    
    // set register index
    IOWR(spi_base, SPI_REG_INDEX, RegIndex);
    
    // write data to fifo
    for(i=0;i<nByteNum;i++)
 2003518:	e0bff617 	ldw	r2,-40(fp)
 200351c:	10800044 	addi	r2,r2,1
 2003520:	e0bff615 	stw	r2,-40(fp)
 2003524:	e0fffd03 	ldbu	r3,-12(fp)
 2003528:	e0bff617 	ldw	r2,-40(fp)
 200352c:	10fff116 	blt	r2,r3,20034f4 <_Z17SPI_MultipleWritemhPhh+0x50>
        IOWR(spi_base, SPI_REG_DATA, szData[i]);
    
    // start
    IOWR(spi_base, SPI_REG_CTRL_STATUS, SPI_FLAG_STATR);
 2003530:	e0bffa17 	ldw	r2,-24(fp)
 2003534:	10800104 	addi	r2,r2,4
 2003538:	1007883a 	mov	r3,r2
 200353c:	00800044 	movi	r2,1
 2003540:	18800035 	stwio	r2,0(r3)
    
    // check status
    usleep(10);
 2003544:	01000284 	movi	r4,10
 2003548:	200ebf80 	call	200ebf8 <usleep>
    do{    
        Status = IORD(spi_base, SPI_REG_CTRL_STATUS);
 200354c:	e0bffa17 	ldw	r2,-24(fp)
 2003550:	10800104 	addi	r2,r2,4
 2003554:	10800037 	ldwio	r2,0(r2)
 2003558:	e0bff905 	stb	r2,-28(fp)
    // start
    IOWR(spi_base, SPI_REG_CTRL_STATUS, SPI_FLAG_STATR);
    
    // check status
    usleep(10);
    do{    
 200355c:	e0bff903 	ldbu	r2,-28(fp)
 2003560:	1080004c 	andi	r2,r2,1
 2003564:	1080005c 	xori	r2,r2,1
 2003568:	1080005c 	xori	r2,r2,1
 200356c:	10803fcc 	andi	r2,r2,255
 2003570:	1004c03a 	cmpne	r2,r2,zero
 2003574:	10000d1e 	bne	r2,zero,20035ac <_Z17SPI_MultipleWritemhPhh+0x108>
 2003578:	e0bff717 	ldw	r2,-36(fp)
 200357c:	10801910 	cmplti	r2,r2,100
 2003580:	1007883a 	mov	r3,r2
 2003584:	e0bff717 	ldw	r2,-36(fp)
 2003588:	10800044 	addi	r2,r2,1
 200358c:	e0bff715 	stw	r2,-36(fp)
 2003590:	1880005c 	xori	r2,r3,1
 2003594:	10803fcc 	andi	r2,r2,255
 2003598:	1004c03a 	cmpne	r2,r2,zero
 200359c:	1000031e 	bne	r2,zero,20035ac <_Z17SPI_MultipleWritemhPhh+0x108>
 20035a0:	00800044 	movi	r2,1
 20035a4:	e0bfff05 	stb	r2,-4(fp)
 20035a8:	00000106 	br	20035b0 <_Z17SPI_MultipleWritemhPhh+0x10c>
 20035ac:	e03fff05 	stb	zero,-4(fp)
 20035b0:	e0bfff03 	ldbu	r2,-4(fp)
 20035b4:	10803fcc 	andi	r2,r2,255
 20035b8:	1004c03a 	cmpne	r2,r2,zero
 20035bc:	103fe31e 	bne	r2,zero,200354c <_Z17SPI_MultipleWritemhPhh+0xa8>
        Status = IORD(spi_base, SPI_REG_CTRL_STATUS);
    }while (!(Status & SPI_STATUS_FLAG_DONE) && (nTryCnt++ < nMaxTry));
    
    IOWR(spi_base, SPI_REG_CTRL_STATUS, 0);  //stop
 20035c0:	e0bffa17 	ldw	r2,-24(fp)
 20035c4:	10800104 	addi	r2,r2,4
 20035c8:	10000035 	stwio	zero,0(r2)
    
    if (Status & SPI_STATUS_FLAG_DONE)
 20035cc:	e0bff903 	ldbu	r2,-28(fp)
 20035d0:	1080004c 	andi	r2,r2,1
 20035d4:	10803fcc 	andi	r2,r2,255
 20035d8:	1005003a 	cmpeq	r2,r2,zero
 20035dc:	1000031e 	bne	r2,zero,20035ec <_Z17SPI_MultipleWritemhPhh+0x148>
        return TRUE;
 20035e0:	00800044 	movi	r2,1
 20035e4:	e0bffe15 	stw	r2,-8(fp)
 20035e8:	00000106 	br	20035f0 <_Z17SPI_MultipleWritemhPhh+0x14c>
    
    return FALSE;
 20035ec:	e03ffe15 	stw	zero,-8(fp)
 20035f0:	e0bffe17 	ldw	r2,-8(fp)
}
 20035f4:	e037883a 	mov	sp,fp
 20035f8:	dfc00117 	ldw	ra,4(sp)
 20035fc:	df000017 	ldw	fp,0(sp)
 2003600:	dec00204 	addi	sp,sp,8
 2003604:	f800283a 	ret

02003608 <_Z9SPI_Writemhh>:

bool SPI_Write(alt_u32 spi_base, alt_u8 RegIndex, alt_u8 Value){
 2003608:	defffb04 	addi	sp,sp,-20
 200360c:	dfc00415 	stw	ra,16(sp)
 2003610:	df000315 	stw	fp,12(sp)
 2003614:	df000304 	addi	fp,sp,12
 2003618:	e13ffd15 	stw	r4,-12(fp)
 200361c:	e17ffe05 	stb	r5,-8(fp)
 2003620:	e1bfff05 	stb	r6,-4(fp)
    return SPI_MultipleWrite(spi_base, RegIndex, &Value, 1);
 2003624:	e17ffe03 	ldbu	r5,-8(fp)
 2003628:	e1bfff04 	addi	r6,fp,-4
 200362c:	e13ffd17 	ldw	r4,-12(fp)
 2003630:	01c00044 	movi	r7,1
 2003634:	20034a40 	call	20034a4 <_Z17SPI_MultipleWritemhPhh>
 2003638:	10803fcc 	andi	r2,r2,255
}    
 200363c:	e037883a 	mov	sp,fp
 2003640:	dfc00117 	ldw	ra,4(sp)
 2003644:	df000017 	ldw	fp,0(sp)
 2003648:	dec00204 	addi	sp,sp,8
 200364c:	f800283a 	ret

02003650 <_ZN15CADCInfoMessage8doActionEv>:
}

/*
 * Overrided from CCarMessage.
 */
void CADCInfoMessage::doAction()
 2003650:	defffe04 	addi	sp,sp,-8
 2003654:	df000115 	stw	fp,4(sp)
 2003658:	df000104 	addi	fp,sp,4
 200365c:	e13fff15 	stw	r4,-4(fp)
	alt_u8 uiNumbers[] = ADC_CHANNEL_NUMBERS;
	char uiAliases[] = ADC_CHANNEL_ALIAS_STRINGS;
	answerMessage(ADC_CONNECTED_CHANNELS, uiNumbers, (alt_u8*) uiAliases);
#endif /* CENTRAL_ECU_BUILD */

}
 2003660:	e037883a 	mov	sp,fp
 2003664:	df000017 	ldw	fp,0(sp)
 2003668:	dec00104 	addi	sp,sp,4
 200366c:	f800283a 	ret

02003670 <_ZN15CADCInfoMessage13answerMessageEhPhS0_>:

/*
 * Overrided from CCarMessage.
 */
void CADCInfoMessage::answerMessage(alt_u8 uiChannelCount, alt_u8 uiChannelNumbers[], alt_u8 uiChannelAliasStrings[])
 2003670:	defff804 	addi	sp,sp,-32
 2003674:	dfc00715 	stw	ra,28(sp)
 2003678:	df000615 	stw	fp,24(sp)
 200367c:	dc000515 	stw	r16,20(sp)
 2003680:	df000504 	addi	fp,sp,20
 2003684:	e13ffc15 	stw	r4,-16(fp)
 2003688:	e1bffe15 	stw	r6,-8(fp)
 200368c:	e1ffff15 	stw	r7,-4(fp)
 2003690:	e17ffd05 	stb	r5,-12(fp)
{
	alt_u32 i = 0;
 2003694:	e03ffb15 	stw	zero,-20(fp)
    m_uiChannelCount = uiChannelCount;
 2003698:	e0fffc17 	ldw	r3,-16(fp)
 200369c:	e0bffd03 	ldbu	r2,-12(fp)
 20036a0:	18800245 	stb	r2,9(r3)
    for(i = 0; i < 7; i++)
 20036a4:	e03ffb15 	stw	zero,-20(fp)
 20036a8:	00001406 	br	20036fc <_ZN15CADCInfoMessage13answerMessageEhPhS0_+0x8c>
    	m_uiChannelAliasStrings[i] = uiChannelAliasStrings[m_uiChannelNumbers[0]*7+i];
 20036ac:	e43ffb17 	ldw	r16,-20(fp)
 20036b0:	e0bffc17 	ldw	r2,-16(fp)
 20036b4:	10800283 	ldbu	r2,10(r2)
 20036b8:	11003fcc 	andi	r4,r2,255
 20036bc:	014001c4 	movi	r5,7
 20036c0:	200d0480 	call	200d048 <__mulsi3>
 20036c4:	1007883a 	mov	r3,r2
 20036c8:	e0bffb17 	ldw	r2,-20(fp)
 20036cc:	1885883a 	add	r2,r3,r2
 20036d0:	1007883a 	mov	r3,r2
 20036d4:	e0bfff17 	ldw	r2,-4(fp)
 20036d8:	1885883a 	add	r2,r3,r2
 20036dc:	10c00003 	ldbu	r3,0(r2)
 20036e0:	e0bffc17 	ldw	r2,-16(fp)
 20036e4:	8085883a 	add	r2,r16,r2
 20036e8:	10800304 	addi	r2,r2,12
 20036ec:	10c00005 	stb	r3,0(r2)
 */
void CADCInfoMessage::answerMessage(alt_u8 uiChannelCount, alt_u8 uiChannelNumbers[], alt_u8 uiChannelAliasStrings[])
{
	alt_u32 i = 0;
    m_uiChannelCount = uiChannelCount;
    for(i = 0; i < 7; i++)
 20036f0:	e0bffb17 	ldw	r2,-20(fp)
 20036f4:	10800044 	addi	r2,r2,1
 20036f8:	e0bffb15 	stw	r2,-20(fp)
 20036fc:	e0bffb17 	ldw	r2,-20(fp)
 2003700:	108001f0 	cmpltui	r2,r2,7
 2003704:	103fe91e 	bne	r2,zero,20036ac <_ZN15CADCInfoMessage13answerMessageEhPhS0_+0x3c>
    	m_uiChannelAliasStrings[i] = uiChannelAliasStrings[m_uiChannelNumbers[0]*7+i];
    for(i = 7; i < 14; i++)
 2003708:	008001c4 	movi	r2,7
 200370c:	e0bffb15 	stw	r2,-20(fp)
 2003710:	00001406 	br	2003764 <_ZN15CADCInfoMessage13answerMessageEhPhS0_+0xf4>
		m_uiChannelAliasStrings[i] = uiChannelAliasStrings[m_uiChannelNumbers[1]*7+i];
 2003714:	e43ffb17 	ldw	r16,-20(fp)
 2003718:	e0bffc17 	ldw	r2,-16(fp)
 200371c:	108002c3 	ldbu	r2,11(r2)
 2003720:	11003fcc 	andi	r4,r2,255
 2003724:	014001c4 	movi	r5,7
 2003728:	200d0480 	call	200d048 <__mulsi3>
 200372c:	1007883a 	mov	r3,r2
 2003730:	e0bffb17 	ldw	r2,-20(fp)
 2003734:	1885883a 	add	r2,r3,r2
 2003738:	1007883a 	mov	r3,r2
 200373c:	e0bfff17 	ldw	r2,-4(fp)
 2003740:	1885883a 	add	r2,r3,r2
 2003744:	10c00003 	ldbu	r3,0(r2)
 2003748:	e0bffc17 	ldw	r2,-16(fp)
 200374c:	8085883a 	add	r2,r16,r2
 2003750:	10800304 	addi	r2,r2,12
 2003754:	10c00005 	stb	r3,0(r2)
{
	alt_u32 i = 0;
    m_uiChannelCount = uiChannelCount;
    for(i = 0; i < 7; i++)
    	m_uiChannelAliasStrings[i] = uiChannelAliasStrings[m_uiChannelNumbers[0]*7+i];
    for(i = 7; i < 14; i++)
 2003758:	e0bffb17 	ldw	r2,-20(fp)
 200375c:	10800044 	addi	r2,r2,1
 2003760:	e0bffb15 	stw	r2,-20(fp)
 2003764:	e0bffb17 	ldw	r2,-20(fp)
 2003768:	108003b0 	cmpltui	r2,r2,14
 200376c:	103fe91e 	bne	r2,zero,2003714 <_ZN15CADCInfoMessage13answerMessageEhPhS0_+0xa4>
		m_uiChannelAliasStrings[i] = uiChannelAliasStrings[m_uiChannelNumbers[1]*7+i];
		
	m_uiChannelNumbers[0] = uiChannelNumbers[m_uiChannelNumbers[0]];
 2003770:	e0bffc17 	ldw	r2,-16(fp)
 2003774:	10800283 	ldbu	r2,10(r2)
 2003778:	10803fcc 	andi	r2,r2,255
 200377c:	1007883a 	mov	r3,r2
 2003780:	e0bffe17 	ldw	r2,-8(fp)
 2003784:	1885883a 	add	r2,r3,r2
 2003788:	10c00003 	ldbu	r3,0(r2)
 200378c:	e0bffc17 	ldw	r2,-16(fp)
 2003790:	10c00285 	stb	r3,10(r2)
	m_uiChannelNumbers[1] = uiChannelNumbers[m_uiChannelNumbers[1]];
 2003794:	e0bffc17 	ldw	r2,-16(fp)
 2003798:	108002c3 	ldbu	r2,11(r2)
 200379c:	10803fcc 	andi	r2,r2,255
 20037a0:	1007883a 	mov	r3,r2
 20037a4:	e0bffe17 	ldw	r2,-8(fp)
 20037a8:	1885883a 	add	r2,r3,r2
 20037ac:	10c00003 	ldbu	r3,0(r2)
 20037b0:	e0bffc17 	ldw	r2,-16(fp)
 20037b4:	10c002c5 	stb	r3,11(r2)
    m_uiFlags = m_uiFlags | 0x01; // Set response flag
 20037b8:	e0bffc17 	ldw	r2,-16(fp)
 20037bc:	108001c3 	ldbu	r2,7(r2)
 20037c0:	10800054 	ori	r2,r2,1
 20037c4:	1007883a 	mov	r3,r2
 20037c8:	e0bffc17 	ldw	r2,-16(fp)
 20037cc:	10c001c5 	stb	r3,7(r2)
}
 20037d0:	e037883a 	mov	sp,fp
 20037d4:	dfc00217 	ldw	ra,8(sp)
 20037d8:	df000117 	ldw	fp,4(sp)
 20037dc:	dc000017 	ldw	r16,0(sp)
 20037e0:	dec00304 	addi	sp,sp,12
 20037e4:	f800283a 	ret

020037e8 <_ZN15CADCInfoMessage9getLengthEv>:
}

/*
 * Overrided from CCarMessage.
 */
alt_u32 CADCInfoMessage::getLength()
 20037e8:	defffe04 	addi	sp,sp,-8
 20037ec:	df000115 	stw	fp,4(sp)
 20037f0:	df000104 	addi	fp,sp,4
 20037f4:	e13fff15 	stw	r4,-4(fp)
{
    return 24;
 20037f8:	00800604 	movi	r2,24
}
 20037fc:	e037883a 	mov	sp,fp
 2003800:	df000017 	ldw	fp,0(sp)
 2003804:	dec00104 	addi	sp,sp,4
 2003808:	f800283a 	ret

0200380c <_ZN15CADCInfoMessage12parseMessageEPhi>:

/*
 * Overrided from CCarMessage.
 */
void CADCInfoMessage::parseMessage(alt_u8 *pMessage, int iLength)
 200380c:	defffc04 	addi	sp,sp,-16
 2003810:	df000315 	stw	fp,12(sp)
 2003814:	df000304 	addi	fp,sp,12
 2003818:	e13ffd15 	stw	r4,-12(fp)
 200381c:	e17ffe15 	stw	r5,-8(fp)
 2003820:	e1bfff15 	stw	r6,-4(fp)
{
    if(iLength < 20)
 2003824:	e0bfff17 	ldw	r2,-4(fp)
 2003828:	10800510 	cmplti	r2,r2,20
 200382c:	1000571e 	bne	r2,zero,200398c <_ZN15CADCInfoMessage12parseMessageEPhi+0x180>
        return;

    m_uiChannelCount = pMessage[0];
 2003830:	e0bffe17 	ldw	r2,-8(fp)
 2003834:	10c00003 	ldbu	r3,0(r2)
 2003838:	e0bffd17 	ldw	r2,-12(fp)
 200383c:	10c00245 	stb	r3,9(r2)
    m_uiChannelNumbers[0] = pMessage[4];
 2003840:	e0bffe17 	ldw	r2,-8(fp)
 2003844:	10800104 	addi	r2,r2,4
 2003848:	10c00003 	ldbu	r3,0(r2)
 200384c:	e0bffd17 	ldw	r2,-12(fp)
 2003850:	10c00285 	stb	r3,10(r2)
    m_uiChannelAliasStrings[0] = pMessage[5];
 2003854:	e0bffe17 	ldw	r2,-8(fp)
 2003858:	10800144 	addi	r2,r2,5
 200385c:	10c00003 	ldbu	r3,0(r2)
 2003860:	e0bffd17 	ldw	r2,-12(fp)
 2003864:	10c00305 	stb	r3,12(r2)
    m_uiChannelAliasStrings[1] = pMessage[6];
 2003868:	e0bffe17 	ldw	r2,-8(fp)
 200386c:	10800184 	addi	r2,r2,6
 2003870:	10c00003 	ldbu	r3,0(r2)
 2003874:	e0bffd17 	ldw	r2,-12(fp)
 2003878:	10c00345 	stb	r3,13(r2)
    m_uiChannelAliasStrings[2] = pMessage[7];
 200387c:	e0bffe17 	ldw	r2,-8(fp)
 2003880:	108001c4 	addi	r2,r2,7
 2003884:	10c00003 	ldbu	r3,0(r2)
 2003888:	e0bffd17 	ldw	r2,-12(fp)
 200388c:	10c00385 	stb	r3,14(r2)
    m_uiChannelAliasStrings[3] = pMessage[8];
 2003890:	e0bffe17 	ldw	r2,-8(fp)
 2003894:	10800204 	addi	r2,r2,8
 2003898:	10c00003 	ldbu	r3,0(r2)
 200389c:	e0bffd17 	ldw	r2,-12(fp)
 20038a0:	10c003c5 	stb	r3,15(r2)
    m_uiChannelAliasStrings[4] = pMessage[9];
 20038a4:	e0bffe17 	ldw	r2,-8(fp)
 20038a8:	10800244 	addi	r2,r2,9
 20038ac:	10c00003 	ldbu	r3,0(r2)
 20038b0:	e0bffd17 	ldw	r2,-12(fp)
 20038b4:	10c00405 	stb	r3,16(r2)
    m_uiChannelAliasStrings[5] = pMessage[10];
 20038b8:	e0bffe17 	ldw	r2,-8(fp)
 20038bc:	10800284 	addi	r2,r2,10
 20038c0:	10c00003 	ldbu	r3,0(r2)
 20038c4:	e0bffd17 	ldw	r2,-12(fp)
 20038c8:	10c00445 	stb	r3,17(r2)
    m_uiChannelAliasStrings[6] = pMessage[11];
 20038cc:	e0bffe17 	ldw	r2,-8(fp)
 20038d0:	108002c4 	addi	r2,r2,11
 20038d4:	10c00003 	ldbu	r3,0(r2)
 20038d8:	e0bffd17 	ldw	r2,-12(fp)
 20038dc:	10c00485 	stb	r3,18(r2)
    m_uiChannelNumbers[1] = pMessage[12];
 20038e0:	e0bffe17 	ldw	r2,-8(fp)
 20038e4:	10800304 	addi	r2,r2,12
 20038e8:	10c00003 	ldbu	r3,0(r2)
 20038ec:	e0bffd17 	ldw	r2,-12(fp)
 20038f0:	10c002c5 	stb	r3,11(r2)
    m_uiChannelAliasStrings[7] = pMessage[13];
 20038f4:	e0bffe17 	ldw	r2,-8(fp)
 20038f8:	10800344 	addi	r2,r2,13
 20038fc:	10c00003 	ldbu	r3,0(r2)
 2003900:	e0bffd17 	ldw	r2,-12(fp)
 2003904:	10c004c5 	stb	r3,19(r2)
    m_uiChannelAliasStrings[8] = pMessage[14];
 2003908:	e0bffe17 	ldw	r2,-8(fp)
 200390c:	10800384 	addi	r2,r2,14
 2003910:	10c00003 	ldbu	r3,0(r2)
 2003914:	e0bffd17 	ldw	r2,-12(fp)
 2003918:	10c00505 	stb	r3,20(r2)
    m_uiChannelAliasStrings[9] = pMessage[15];
 200391c:	e0bffe17 	ldw	r2,-8(fp)
 2003920:	108003c4 	addi	r2,r2,15
 2003924:	10c00003 	ldbu	r3,0(r2)
 2003928:	e0bffd17 	ldw	r2,-12(fp)
 200392c:	10c00545 	stb	r3,21(r2)
    m_uiChannelAliasStrings[10] = pMessage[16];
 2003930:	e0bffe17 	ldw	r2,-8(fp)
 2003934:	10800404 	addi	r2,r2,16
 2003938:	10c00003 	ldbu	r3,0(r2)
 200393c:	e0bffd17 	ldw	r2,-12(fp)
 2003940:	10c00585 	stb	r3,22(r2)
    m_uiChannelAliasStrings[11] = pMessage[17];
 2003944:	e0bffe17 	ldw	r2,-8(fp)
 2003948:	10800444 	addi	r2,r2,17
 200394c:	10c00003 	ldbu	r3,0(r2)
 2003950:	e0bffd17 	ldw	r2,-12(fp)
 2003954:	10c005c5 	stb	r3,23(r2)
    m_uiChannelAliasStrings[12] = pMessage[18];
 2003958:	e0bffe17 	ldw	r2,-8(fp)
 200395c:	10800484 	addi	r2,r2,18
 2003960:	10c00003 	ldbu	r3,0(r2)
 2003964:	e0bffd17 	ldw	r2,-12(fp)
 2003968:	10c00605 	stb	r3,24(r2)
    m_uiChannelAliasStrings[13] = pMessage[19];
 200396c:	e0bffe17 	ldw	r2,-8(fp)
 2003970:	108004c4 	addi	r2,r2,19
 2003974:	10c00003 	ldbu	r3,0(r2)
 2003978:	e0bffd17 	ldw	r2,-12(fp)
 200397c:	10c00645 	stb	r3,25(r2)

    m_bValid = true;
 2003980:	e0fffd17 	ldw	r3,-12(fp)
 2003984:	00800044 	movi	r2,1
 2003988:	18800205 	stb	r2,8(r3)

}
 200398c:	e037883a 	mov	sp,fp
 2003990:	df000017 	ldw	fp,0(sp)
 2003994:	dec00104 	addi	sp,sp,4
 2003998:	f800283a 	ret

0200399c <_ZN15CADCInfoMessage8getBytesEPh>:
}

/*
 * Overrided from CCarMessage.
 */
bool CADCInfoMessage::getBytes(alt_u8 *pMessage)
 200399c:	defffc04 	addi	sp,sp,-16
 20039a0:	dfc00315 	stw	ra,12(sp)
 20039a4:	df000215 	stw	fp,8(sp)
 20039a8:	df000204 	addi	fp,sp,8
 20039ac:	e13ffe15 	stw	r4,-8(fp)
 20039b0:	e17fff15 	stw	r5,-4(fp)
{
    CCarMessage::getBytes(pMessage);
 20039b4:	e13ffe17 	ldw	r4,-8(fp)
 20039b8:	e17fff17 	ldw	r5,-4(fp)
 20039bc:	2006e800 	call	2006e80 <_ZN11CCarMessage8getBytesEPh>

    pMessage[4] = m_uiChannelCount;
 20039c0:	e0bfff17 	ldw	r2,-4(fp)
 20039c4:	10c00104 	addi	r3,r2,4
 20039c8:	e0bffe17 	ldw	r2,-8(fp)
 20039cc:	10800243 	ldbu	r2,9(r2)
 20039d0:	18800005 	stb	r2,0(r3)
    pMessage[5] = 0;
 20039d4:	e0bfff17 	ldw	r2,-4(fp)
 20039d8:	10800144 	addi	r2,r2,5
 20039dc:	10000005 	stb	zero,0(r2)
    pMessage[6] = 0;
 20039e0:	e0bfff17 	ldw	r2,-4(fp)
 20039e4:	10800184 	addi	r2,r2,6
 20039e8:	10000005 	stb	zero,0(r2)
    pMessage[7] = 0;
 20039ec:	e0bfff17 	ldw	r2,-4(fp)
 20039f0:	108001c4 	addi	r2,r2,7
 20039f4:	10000005 	stb	zero,0(r2)
    pMessage[8] = m_uiChannelNumbers[0];
 20039f8:	e0bfff17 	ldw	r2,-4(fp)
 20039fc:	10c00204 	addi	r3,r2,8
 2003a00:	e0bffe17 	ldw	r2,-8(fp)
 2003a04:	10800283 	ldbu	r2,10(r2)
 2003a08:	18800005 	stb	r2,0(r3)
    pMessage[9] = m_uiChannelAliasStrings[0];
 2003a0c:	e0bfff17 	ldw	r2,-4(fp)
 2003a10:	10c00244 	addi	r3,r2,9
 2003a14:	e0bffe17 	ldw	r2,-8(fp)
 2003a18:	10800303 	ldbu	r2,12(r2)
 2003a1c:	18800005 	stb	r2,0(r3)
    pMessage[10] = m_uiChannelAliasStrings[1];
 2003a20:	e0bfff17 	ldw	r2,-4(fp)
 2003a24:	10c00284 	addi	r3,r2,10
 2003a28:	e0bffe17 	ldw	r2,-8(fp)
 2003a2c:	10800343 	ldbu	r2,13(r2)
 2003a30:	18800005 	stb	r2,0(r3)
    pMessage[11] = m_uiChannelAliasStrings[2];
 2003a34:	e0bfff17 	ldw	r2,-4(fp)
 2003a38:	10c002c4 	addi	r3,r2,11
 2003a3c:	e0bffe17 	ldw	r2,-8(fp)
 2003a40:	10800383 	ldbu	r2,14(r2)
 2003a44:	18800005 	stb	r2,0(r3)
    pMessage[12] = m_uiChannelAliasStrings[3];
 2003a48:	e0bfff17 	ldw	r2,-4(fp)
 2003a4c:	10c00304 	addi	r3,r2,12
 2003a50:	e0bffe17 	ldw	r2,-8(fp)
 2003a54:	108003c3 	ldbu	r2,15(r2)
 2003a58:	18800005 	stb	r2,0(r3)
    pMessage[13] = m_uiChannelAliasStrings[4];
 2003a5c:	e0bfff17 	ldw	r2,-4(fp)
 2003a60:	10c00344 	addi	r3,r2,13
 2003a64:	e0bffe17 	ldw	r2,-8(fp)
 2003a68:	10800403 	ldbu	r2,16(r2)
 2003a6c:	18800005 	stb	r2,0(r3)
    pMessage[14] = m_uiChannelAliasStrings[5];
 2003a70:	e0bfff17 	ldw	r2,-4(fp)
 2003a74:	10c00384 	addi	r3,r2,14
 2003a78:	e0bffe17 	ldw	r2,-8(fp)
 2003a7c:	10800443 	ldbu	r2,17(r2)
 2003a80:	18800005 	stb	r2,0(r3)
    pMessage[15] = m_uiChannelAliasStrings[6];
 2003a84:	e0bfff17 	ldw	r2,-4(fp)
 2003a88:	10c003c4 	addi	r3,r2,15
 2003a8c:	e0bffe17 	ldw	r2,-8(fp)
 2003a90:	10800483 	ldbu	r2,18(r2)
 2003a94:	18800005 	stb	r2,0(r3)
    pMessage[16] = m_uiChannelNumbers[1];
 2003a98:	e0bfff17 	ldw	r2,-4(fp)
 2003a9c:	10c00404 	addi	r3,r2,16
 2003aa0:	e0bffe17 	ldw	r2,-8(fp)
 2003aa4:	108002c3 	ldbu	r2,11(r2)
 2003aa8:	18800005 	stb	r2,0(r3)
    pMessage[17] = m_uiChannelAliasStrings[7];
 2003aac:	e0bfff17 	ldw	r2,-4(fp)
 2003ab0:	10c00444 	addi	r3,r2,17
 2003ab4:	e0bffe17 	ldw	r2,-8(fp)
 2003ab8:	108004c3 	ldbu	r2,19(r2)
 2003abc:	18800005 	stb	r2,0(r3)
    pMessage[18] = m_uiChannelAliasStrings[8];
 2003ac0:	e0bfff17 	ldw	r2,-4(fp)
 2003ac4:	10c00484 	addi	r3,r2,18
 2003ac8:	e0bffe17 	ldw	r2,-8(fp)
 2003acc:	10800503 	ldbu	r2,20(r2)
 2003ad0:	18800005 	stb	r2,0(r3)
    pMessage[19] = m_uiChannelAliasStrings[9];
 2003ad4:	e0bfff17 	ldw	r2,-4(fp)
 2003ad8:	10c004c4 	addi	r3,r2,19
 2003adc:	e0bffe17 	ldw	r2,-8(fp)
 2003ae0:	10800543 	ldbu	r2,21(r2)
 2003ae4:	18800005 	stb	r2,0(r3)
    pMessage[20] = m_uiChannelAliasStrings[10];
 2003ae8:	e0bfff17 	ldw	r2,-4(fp)
 2003aec:	10c00504 	addi	r3,r2,20
 2003af0:	e0bffe17 	ldw	r2,-8(fp)
 2003af4:	10800583 	ldbu	r2,22(r2)
 2003af8:	18800005 	stb	r2,0(r3)
    pMessage[21] = m_uiChannelAliasStrings[11];
 2003afc:	e0bfff17 	ldw	r2,-4(fp)
 2003b00:	10c00544 	addi	r3,r2,21
 2003b04:	e0bffe17 	ldw	r2,-8(fp)
 2003b08:	108005c3 	ldbu	r2,23(r2)
 2003b0c:	18800005 	stb	r2,0(r3)
    pMessage[22] = m_uiChannelAliasStrings[12];
 2003b10:	e0bfff17 	ldw	r2,-4(fp)
 2003b14:	10c00584 	addi	r3,r2,22
 2003b18:	e0bffe17 	ldw	r2,-8(fp)
 2003b1c:	10800603 	ldbu	r2,24(r2)
 2003b20:	18800005 	stb	r2,0(r3)
    pMessage[23] = m_uiChannelAliasStrings[13];
 2003b24:	e0bfff17 	ldw	r2,-4(fp)
 2003b28:	10c005c4 	addi	r3,r2,23
 2003b2c:	e0bffe17 	ldw	r2,-8(fp)
 2003b30:	10800643 	ldbu	r2,25(r2)
 2003b34:	18800005 	stb	r2,0(r3)
    return m_bValid;
 2003b38:	e0bffe17 	ldw	r2,-8(fp)
 2003b3c:	10800203 	ldbu	r2,8(r2)
 2003b40:	10803fcc 	andi	r2,r2,255
}
 2003b44:	e037883a 	mov	sp,fp
 2003b48:	dfc00117 	ldw	ra,4(sp)
 2003b4c:	df000017 	ldw	fp,0(sp)
 2003b50:	dec00204 	addi	sp,sp,8
 2003b54:	f800283a 	ret

02003b58 <_ZN15CADCInfoMessageD0Ev>:
}

/*
 * Basic Destructor.
 */
CADCInfoMessage::~CADCInfoMessage()
 2003b58:	defffd04 	addi	sp,sp,-12
 2003b5c:	dfc00215 	stw	ra,8(sp)
 2003b60:	df000115 	stw	fp,4(sp)
 2003b64:	df000104 	addi	fp,sp,4
 2003b68:	e13fff15 	stw	r4,-4(fp)
 2003b6c:	00c08074 	movhi	r3,513
 2003b70:	18c96e04 	addi	r3,r3,9656
 2003b74:	e0bfff17 	ldw	r2,-4(fp)
 2003b78:	10c00015 	stw	r3,0(r2)
{
}
 2003b7c:	e13fff17 	ldw	r4,-4(fp)
 2003b80:	20073b40 	call	20073b4 <_ZN11CCarMessageD2Ev>
 2003b84:	00800044 	movi	r2,1
 2003b88:	10803fcc 	andi	r2,r2,255
 2003b8c:	1005003a 	cmpeq	r2,r2,zero
 2003b90:	1000021e 	bne	r2,zero,2003b9c <_ZN15CADCInfoMessageD0Ev+0x44>
 2003b94:	e13fff17 	ldw	r4,-4(fp)
 2003b98:	200bc9c0 	call	200bc9c <_ZdlPv>
 2003b9c:	e037883a 	mov	sp,fp
 2003ba0:	dfc00117 	ldw	ra,4(sp)
 2003ba4:	df000017 	ldw	fp,0(sp)
 2003ba8:	dec00204 	addi	sp,sp,8
 2003bac:	f800283a 	ret

02003bb0 <_ZN15CADCInfoMessageD1Ev>:
}

/*
 * Basic Destructor.
 */
CADCInfoMessage::~CADCInfoMessage()
 2003bb0:	defffd04 	addi	sp,sp,-12
 2003bb4:	dfc00215 	stw	ra,8(sp)
 2003bb8:	df000115 	stw	fp,4(sp)
 2003bbc:	df000104 	addi	fp,sp,4
 2003bc0:	e13fff15 	stw	r4,-4(fp)
 2003bc4:	00c08074 	movhi	r3,513
 2003bc8:	18c96e04 	addi	r3,r3,9656
 2003bcc:	e0bfff17 	ldw	r2,-4(fp)
 2003bd0:	10c00015 	stw	r3,0(r2)
{
}
 2003bd4:	e13fff17 	ldw	r4,-4(fp)
 2003bd8:	20073b40 	call	20073b4 <_ZN11CCarMessageD2Ev>
 2003bdc:	0005883a 	mov	r2,zero
 2003be0:	10803fcc 	andi	r2,r2,255
 2003be4:	1005003a 	cmpeq	r2,r2,zero
 2003be8:	1000021e 	bne	r2,zero,2003bf4 <_ZN15CADCInfoMessageD1Ev+0x44>
 2003bec:	e13fff17 	ldw	r4,-4(fp)
 2003bf0:	200bc9c0 	call	200bc9c <_ZdlPv>
 2003bf4:	e037883a 	mov	sp,fp
 2003bf8:	dfc00117 	ldw	ra,4(sp)
 2003bfc:	df000017 	ldw	fp,0(sp)
 2003c00:	dec00204 	addi	sp,sp,8
 2003c04:	f800283a 	ret

02003c08 <_ZN15CADCInfoMessageD2Ev>:
}

/*
 * Basic Destructor.
 */
CADCInfoMessage::~CADCInfoMessage()
 2003c08:	defffd04 	addi	sp,sp,-12
 2003c0c:	dfc00215 	stw	ra,8(sp)
 2003c10:	df000115 	stw	fp,4(sp)
 2003c14:	df000104 	addi	fp,sp,4
 2003c18:	e13fff15 	stw	r4,-4(fp)
 2003c1c:	00c08074 	movhi	r3,513
 2003c20:	18c96e04 	addi	r3,r3,9656
 2003c24:	e0bfff17 	ldw	r2,-4(fp)
 2003c28:	10c00015 	stw	r3,0(r2)
{
}
 2003c2c:	e13fff17 	ldw	r4,-4(fp)
 2003c30:	20073b40 	call	20073b4 <_ZN11CCarMessageD2Ev>
 2003c34:	0005883a 	mov	r2,zero
 2003c38:	10803fcc 	andi	r2,r2,255
 2003c3c:	1005003a 	cmpeq	r2,r2,zero
 2003c40:	1000021e 	bne	r2,zero,2003c4c <_ZN15CADCInfoMessageD2Ev+0x44>
 2003c44:	e13fff17 	ldw	r4,-4(fp)
 2003c48:	200bc9c0 	call	200bc9c <_ZdlPv>
 2003c4c:	e037883a 	mov	sp,fp
 2003c50:	dfc00117 	ldw	ra,4(sp)
 2003c54:	df000017 	ldw	fp,0(sp)
 2003c58:	dec00204 	addi	sp,sp,8
 2003c5c:	f800283a 	ret

02003c60 <_ZN15CADCInfoMessageC1EPhi>:
/*
 * Constructor. Used to reassemble object from Byte stream.
 * pMessage : Byte-Array containing the fields of the subMessage
 * iLength  : Length of the said array
 */
CADCInfoMessage::CADCInfoMessage(alt_u8 *pMessage, int iLength)
 2003c60:	deffe404 	addi	sp,sp,-112
 2003c64:	dfc01b15 	stw	ra,108(sp)
 2003c68:	df001a15 	stw	fp,104(sp)
 2003c6c:	ddc01915 	stw	r23,100(sp)
 2003c70:	dd801815 	stw	r22,96(sp)
 2003c74:	dd401715 	stw	r21,92(sp)
 2003c78:	dd001615 	stw	r20,88(sp)
 2003c7c:	dcc01515 	stw	r19,84(sp)
 2003c80:	dc801415 	stw	r18,80(sp)
 2003c84:	dc401315 	stw	r17,76(sp)
 2003c88:	dc001215 	stw	r16,72(sp)
 2003c8c:	df001204 	addi	fp,sp,72
 2003c90:	e13fee15 	stw	r4,-72(fp)
 2003c94:	e17fef15 	stw	r5,-68(fp)
 2003c98:	e1bff015 	stw	r6,-64(fp)
 2003c9c:	00808074 	movhi	r2,513
 2003ca0:	10adca04 	addi	r2,r2,-18648
 2003ca4:	e0bff715 	stw	r2,-36(fp)
 2003ca8:	00808074 	movhi	r2,513
 2003cac:	10890e84 	addi	r2,r2,9274
 2003cb0:	e0bff815 	stw	r2,-32(fp)
 2003cb4:	e0bff904 	addi	r2,fp,-28
 2003cb8:	e0ffee04 	addi	r3,fp,-72
 2003cbc:	10c00015 	stw	r3,0(r2)
 2003cc0:	00c08034 	movhi	r3,512
 2003cc4:	18cf5204 	addi	r3,r3,15688
 2003cc8:	10c00115 	stw	r3,4(r2)
 2003ccc:	16c00215 	stw	sp,8(r2)
 2003cd0:	e13ff104 	addi	r4,fp,-60
 2003cd4:	200d0800 	call	200d080 <_Unwind_SjLj_Register>
 2003cd8:	e13fee17 	ldw	r4,-72(fp)
 2003cdc:	00bfffc4 	movi	r2,-1
 2003ce0:	e0bff215 	stw	r2,-56(fp)
 2003ce4:	2006df00 	call	2006df0 <_ZN11CCarMessageC2Ev>
 2003ce8:	00c08074 	movhi	r3,513
 2003cec:	18c96e04 	addi	r3,r3,9656
 2003cf0:	e0bfee17 	ldw	r2,-72(fp)
 2003cf4:	10c00015 	stw	r3,0(r2)
{
    parseHeader(pMessage, iLength);
 2003cf8:	e13fee17 	ldw	r4,-72(fp)
 2003cfc:	00800044 	movi	r2,1
 2003d00:	e0bff215 	stw	r2,-56(fp)
 2003d04:	e17fef17 	ldw	r5,-68(fp)
 2003d08:	e1bff017 	ldw	r6,-64(fp)
 2003d0c:	20071480 	call	2007148 <_ZN11CCarMessage11parseHeaderEPhi>
    if(m_bValid)
 2003d10:	e0bfee17 	ldw	r2,-72(fp)
 2003d14:	10800203 	ldbu	r2,8(r2)
 2003d18:	10803fcc 	andi	r2,r2,255
 2003d1c:	1005003a 	cmpeq	r2,r2,zero
 2003d20:	1000171e 	bne	r2,zero,2003d80 <_ZN15CADCInfoMessageC1EPhi+0x120>
    {
        m_bValid = false;
 2003d24:	e0bfee17 	ldw	r2,-72(fp)
 2003d28:	10000205 	stb	zero,8(r2)
        parseMessage(pMessage+4, iLength-4);
 2003d2c:	e0bfef17 	ldw	r2,-68(fp)
 2003d30:	11400104 	addi	r5,r2,4
 2003d34:	e0bff017 	ldw	r2,-64(fp)
 2003d38:	11bfff04 	addi	r6,r2,-4
 2003d3c:	e13fee17 	ldw	r4,-72(fp)
 2003d40:	200380c0 	call	200380c <_ZN15CADCInfoMessage12parseMessageEPhi>
    }

}
 2003d44:	00000e06 	br	2003d80 <_ZN15CADCInfoMessageC1EPhi+0x120>
 2003d48:	e7001204 	addi	fp,fp,72
 2003d4c:	e0bff317 	ldw	r2,-52(fp)
 2003d50:	e0bfff15 	stw	r2,-4(fp)
 2003d54:	e0ffff17 	ldw	r3,-4(fp)
 2003d58:	e0fffe15 	stw	r3,-8(fp)
 2003d5c:	e13fee17 	ldw	r4,-72(fp)
 2003d60:	e03ff215 	stw	zero,-56(fp)
 2003d64:	20073b40 	call	20073b4 <_ZN11CCarMessageD2Ev>
 2003d68:	e0bffe17 	ldw	r2,-8(fp)
 2003d6c:	e0bfff15 	stw	r2,-4(fp)
 2003d70:	00bfffc4 	movi	r2,-1
 2003d74:	e0bff215 	stw	r2,-56(fp)
 2003d78:	e13fff17 	ldw	r4,-4(fp)
 2003d7c:	200d34c0 	call	200d34c <_Unwind_SjLj_Resume>
 2003d80:	e13ff104 	addi	r4,fp,-60
 2003d84:	200d0900 	call	200d090 <_Unwind_SjLj_Unregister>
 2003d88:	e037883a 	mov	sp,fp
 2003d8c:	dfc00917 	ldw	ra,36(sp)
 2003d90:	df000817 	ldw	fp,32(sp)
 2003d94:	ddc00717 	ldw	r23,28(sp)
 2003d98:	dd800617 	ldw	r22,24(sp)
 2003d9c:	dd400517 	ldw	r21,20(sp)
 2003da0:	dd000417 	ldw	r20,16(sp)
 2003da4:	dcc00317 	ldw	r19,12(sp)
 2003da8:	dc800217 	ldw	r18,8(sp)
 2003dac:	dc400117 	ldw	r17,4(sp)
 2003db0:	dc000017 	ldw	r16,0(sp)
 2003db4:	dec00a04 	addi	sp,sp,40
 2003db8:	f800283a 	ret

02003dbc <_ZN15CADCInfoMessageC2EPhi>:
/*
 * Constructor. Used to reassemble object from Byte stream.
 * pMessage : Byte-Array containing the fields of the subMessage
 * iLength  : Length of the said array
 */
CADCInfoMessage::CADCInfoMessage(alt_u8 *pMessage, int iLength)
 2003dbc:	deffe404 	addi	sp,sp,-112
 2003dc0:	dfc01b15 	stw	ra,108(sp)
 2003dc4:	df001a15 	stw	fp,104(sp)
 2003dc8:	ddc01915 	stw	r23,100(sp)
 2003dcc:	dd801815 	stw	r22,96(sp)
 2003dd0:	dd401715 	stw	r21,92(sp)
 2003dd4:	dd001615 	stw	r20,88(sp)
 2003dd8:	dcc01515 	stw	r19,84(sp)
 2003ddc:	dc801415 	stw	r18,80(sp)
 2003de0:	dc401315 	stw	r17,76(sp)
 2003de4:	dc001215 	stw	r16,72(sp)
 2003de8:	df001204 	addi	fp,sp,72
 2003dec:	e13fee15 	stw	r4,-72(fp)
 2003df0:	e17fef15 	stw	r5,-68(fp)
 2003df4:	e1bff015 	stw	r6,-64(fp)
 2003df8:	00808074 	movhi	r2,513
 2003dfc:	10adca04 	addi	r2,r2,-18648
 2003e00:	e0bff715 	stw	r2,-36(fp)
 2003e04:	00808074 	movhi	r2,513
 2003e08:	10891004 	addi	r2,r2,9280
 2003e0c:	e0bff815 	stw	r2,-32(fp)
 2003e10:	e0bff904 	addi	r2,fp,-28
 2003e14:	e0ffee04 	addi	r3,fp,-72
 2003e18:	10c00015 	stw	r3,0(r2)
 2003e1c:	00c08034 	movhi	r3,512
 2003e20:	18cfa904 	addi	r3,r3,16036
 2003e24:	10c00115 	stw	r3,4(r2)
 2003e28:	16c00215 	stw	sp,8(r2)
 2003e2c:	e13ff104 	addi	r4,fp,-60
 2003e30:	200d0800 	call	200d080 <_Unwind_SjLj_Register>
 2003e34:	e13fee17 	ldw	r4,-72(fp)
 2003e38:	00bfffc4 	movi	r2,-1
 2003e3c:	e0bff215 	stw	r2,-56(fp)
 2003e40:	2006df00 	call	2006df0 <_ZN11CCarMessageC2Ev>
 2003e44:	00c08074 	movhi	r3,513
 2003e48:	18c96e04 	addi	r3,r3,9656
 2003e4c:	e0bfee17 	ldw	r2,-72(fp)
 2003e50:	10c00015 	stw	r3,0(r2)
{
    parseHeader(pMessage, iLength);
 2003e54:	e13fee17 	ldw	r4,-72(fp)
 2003e58:	00800044 	movi	r2,1
 2003e5c:	e0bff215 	stw	r2,-56(fp)
 2003e60:	e17fef17 	ldw	r5,-68(fp)
 2003e64:	e1bff017 	ldw	r6,-64(fp)
 2003e68:	20071480 	call	2007148 <_ZN11CCarMessage11parseHeaderEPhi>
    if(m_bValid)
 2003e6c:	e0bfee17 	ldw	r2,-72(fp)
 2003e70:	10800203 	ldbu	r2,8(r2)
 2003e74:	10803fcc 	andi	r2,r2,255
 2003e78:	1005003a 	cmpeq	r2,r2,zero
 2003e7c:	1000171e 	bne	r2,zero,2003edc <_ZN15CADCInfoMessageC2EPhi+0x120>
    {
        m_bValid = false;
 2003e80:	e0bfee17 	ldw	r2,-72(fp)
 2003e84:	10000205 	stb	zero,8(r2)
        parseMessage(pMessage+4, iLength-4);
 2003e88:	e0bfef17 	ldw	r2,-68(fp)
 2003e8c:	11400104 	addi	r5,r2,4
 2003e90:	e0bff017 	ldw	r2,-64(fp)
 2003e94:	11bfff04 	addi	r6,r2,-4
 2003e98:	e13fee17 	ldw	r4,-72(fp)
 2003e9c:	200380c0 	call	200380c <_ZN15CADCInfoMessage12parseMessageEPhi>
    }

}
 2003ea0:	00000e06 	br	2003edc <_ZN15CADCInfoMessageC2EPhi+0x120>
 2003ea4:	e7001204 	addi	fp,fp,72
 2003ea8:	e0bff317 	ldw	r2,-52(fp)
 2003eac:	e0bfff15 	stw	r2,-4(fp)
 2003eb0:	e0ffff17 	ldw	r3,-4(fp)
 2003eb4:	e0fffe15 	stw	r3,-8(fp)
 2003eb8:	e13fee17 	ldw	r4,-72(fp)
 2003ebc:	e03ff215 	stw	zero,-56(fp)
 2003ec0:	20073b40 	call	20073b4 <_ZN11CCarMessageD2Ev>
 2003ec4:	e0bffe17 	ldw	r2,-8(fp)
 2003ec8:	e0bfff15 	stw	r2,-4(fp)
 2003ecc:	00bfffc4 	movi	r2,-1
 2003ed0:	e0bff215 	stw	r2,-56(fp)
 2003ed4:	e13fff17 	ldw	r4,-4(fp)
 2003ed8:	200d34c0 	call	200d34c <_Unwind_SjLj_Resume>
 2003edc:	e13ff104 	addi	r4,fp,-60
 2003ee0:	200d0900 	call	200d090 <_Unwind_SjLj_Unregister>
 2003ee4:	e037883a 	mov	sp,fp
 2003ee8:	dfc00917 	ldw	ra,36(sp)
 2003eec:	df000817 	ldw	fp,32(sp)
 2003ef0:	ddc00717 	ldw	r23,28(sp)
 2003ef4:	dd800617 	ldw	r22,24(sp)
 2003ef8:	dd400517 	ldw	r21,20(sp)
 2003efc:	dd000417 	ldw	r20,16(sp)
 2003f00:	dcc00317 	ldw	r19,12(sp)
 2003f04:	dc800217 	ldw	r18,8(sp)
 2003f08:	dc400117 	ldw	r17,4(sp)
 2003f0c:	dc000017 	ldw	r16,0(sp)
 2003f10:	dec00a04 	addi	sp,sp,40
 2003f14:	f800283a 	ret

02003f18 <_ZN15CADCInfoMessageC1EPh>:
// Import Interfaces

/*
 * Basic Constructor. Used to initialise new message-objects.
 */
CADCInfoMessage::CADCInfoMessage(alt_u8 uiChannelNumbers[])
 2003f18:	deffe404 	addi	sp,sp,-112
 2003f1c:	dfc01b15 	stw	ra,108(sp)
 2003f20:	df001a15 	stw	fp,104(sp)
 2003f24:	ddc01915 	stw	r23,100(sp)
 2003f28:	dd801815 	stw	r22,96(sp)
 2003f2c:	dd401715 	stw	r21,92(sp)
 2003f30:	dd001615 	stw	r20,88(sp)
 2003f34:	dcc01515 	stw	r19,84(sp)
 2003f38:	dc801415 	stw	r18,80(sp)
 2003f3c:	dc401315 	stw	r17,76(sp)
 2003f40:	dc001215 	stw	r16,72(sp)
 2003f44:	df001204 	addi	fp,sp,72
 2003f48:	e13fee15 	stw	r4,-72(fp)
 2003f4c:	e17fef15 	stw	r5,-68(fp)
 2003f50:	00808074 	movhi	r2,513
 2003f54:	10adca04 	addi	r2,r2,-18648
 2003f58:	e0bff615 	stw	r2,-40(fp)
 2003f5c:	00808074 	movhi	r2,513
 2003f60:	10891184 	addi	r2,r2,9286
 2003f64:	e0bff715 	stw	r2,-36(fp)
 2003f68:	e0bff804 	addi	r2,fp,-32
 2003f6c:	e0ffee04 	addi	r3,fp,-72
 2003f70:	10c00015 	stw	r3,0(r2)
 2003f74:	00c08034 	movhi	r3,512
 2003f78:	18d00204 	addi	r3,r3,16392
 2003f7c:	10c00115 	stw	r3,4(r2)
 2003f80:	16c00215 	stw	sp,8(r2)
 2003f84:	e13ff004 	addi	r4,fp,-64
 2003f88:	200d0800 	call	200d080 <_Unwind_SjLj_Register>
 2003f8c:	e13fee17 	ldw	r4,-72(fp)
 2003f90:	00bfffc4 	movi	r2,-1
 2003f94:	e0bff115 	stw	r2,-60(fp)
 2003f98:	2006df00 	call	2006df0 <_ZN11CCarMessageC2Ev>
 2003f9c:	00c08074 	movhi	r3,513
 2003fa0:	18c96e04 	addi	r3,r3,9656
 2003fa4:	e0bfee17 	ldw	r2,-72(fp)
 2003fa8:	10c00015 	stw	r3,0(r2)
{
    setHeader(10, getLength(), 0);
 2003fac:	e0bfee17 	ldw	r2,-72(fp)
 2003fb0:	e0bffe15 	stw	r2,-8(fp)
 2003fb4:	e13fee17 	ldw	r4,-72(fp)
 2003fb8:	20037e80 	call	20037e8 <_ZN15CADCInfoMessage9getLengthEv>
 2003fbc:	11803fcc 	andi	r6,r2,255
 2003fc0:	00800044 	movi	r2,1
 2003fc4:	e0bff115 	stw	r2,-60(fp)
 2003fc8:	e13ffe17 	ldw	r4,-8(fp)
 2003fcc:	01400284 	movi	r5,10
 2003fd0:	000f883a 	mov	r7,zero
 2003fd4:	2006fc40 	call	2006fc4 <_ZN11CCarMessage9setHeaderEhhb>

    m_uiChannelCount = 0;
 2003fd8:	e0bfee17 	ldw	r2,-72(fp)
 2003fdc:	10000245 	stb	zero,9(r2)
    m_uiChannelNumbers[0] = uiChannelNumbers[0];
 2003fe0:	e0bfef17 	ldw	r2,-68(fp)
 2003fe4:	10c00003 	ldbu	r3,0(r2)
 2003fe8:	e0bfee17 	ldw	r2,-72(fp)
 2003fec:	10c00285 	stb	r3,10(r2)
    m_uiChannelNumbers[1] = uiChannelNumbers[1];
 2003ff0:	e0bfef17 	ldw	r2,-68(fp)
 2003ff4:	10800044 	addi	r2,r2,1
 2003ff8:	10c00003 	ldbu	r3,0(r2)
 2003ffc:	e0bfee17 	ldw	r2,-72(fp)
 2004000:	10c002c5 	stb	r3,11(r2)
}
 2004004:	00000e06 	br	2004040 <_ZN15CADCInfoMessageC1EPh+0x128>
 2004008:	e7001204 	addi	fp,fp,72
 200400c:	e0fff217 	ldw	r3,-56(fp)
 2004010:	e0ffff15 	stw	r3,-4(fp)
 2004014:	e0bfff17 	ldw	r2,-4(fp)
 2004018:	e0bffd15 	stw	r2,-12(fp)
 200401c:	e13fee17 	ldw	r4,-72(fp)
 2004020:	e03ff115 	stw	zero,-60(fp)
 2004024:	20073b40 	call	20073b4 <_ZN11CCarMessageD2Ev>
 2004028:	e0fffd17 	ldw	r3,-12(fp)
 200402c:	e0ffff15 	stw	r3,-4(fp)
 2004030:	00bfffc4 	movi	r2,-1
 2004034:	e0bff115 	stw	r2,-60(fp)
 2004038:	e13fff17 	ldw	r4,-4(fp)
 200403c:	200d34c0 	call	200d34c <_Unwind_SjLj_Resume>
 2004040:	e13ff004 	addi	r4,fp,-64
 2004044:	200d0900 	call	200d090 <_Unwind_SjLj_Unregister>
 2004048:	e037883a 	mov	sp,fp
 200404c:	dfc00917 	ldw	ra,36(sp)
 2004050:	df000817 	ldw	fp,32(sp)
 2004054:	ddc00717 	ldw	r23,28(sp)
 2004058:	dd800617 	ldw	r22,24(sp)
 200405c:	dd400517 	ldw	r21,20(sp)
 2004060:	dd000417 	ldw	r20,16(sp)
 2004064:	dcc00317 	ldw	r19,12(sp)
 2004068:	dc800217 	ldw	r18,8(sp)
 200406c:	dc400117 	ldw	r17,4(sp)
 2004070:	dc000017 	ldw	r16,0(sp)
 2004074:	dec00a04 	addi	sp,sp,40
 2004078:	f800283a 	ret

0200407c <_ZN15CADCInfoMessageC2EPh>:
// Import Interfaces

/*
 * Basic Constructor. Used to initialise new message-objects.
 */
CADCInfoMessage::CADCInfoMessage(alt_u8 uiChannelNumbers[])
 200407c:	deffe404 	addi	sp,sp,-112
 2004080:	dfc01b15 	stw	ra,108(sp)
 2004084:	df001a15 	stw	fp,104(sp)
 2004088:	ddc01915 	stw	r23,100(sp)
 200408c:	dd801815 	stw	r22,96(sp)
 2004090:	dd401715 	stw	r21,92(sp)
 2004094:	dd001615 	stw	r20,88(sp)
 2004098:	dcc01515 	stw	r19,84(sp)
 200409c:	dc801415 	stw	r18,80(sp)
 20040a0:	dc401315 	stw	r17,76(sp)
 20040a4:	dc001215 	stw	r16,72(sp)
 20040a8:	df001204 	addi	fp,sp,72
 20040ac:	e13fee15 	stw	r4,-72(fp)
 20040b0:	e17fef15 	stw	r5,-68(fp)
 20040b4:	00808074 	movhi	r2,513
 20040b8:	10adca04 	addi	r2,r2,-18648
 20040bc:	e0bff615 	stw	r2,-40(fp)
 20040c0:	00808074 	movhi	r2,513
 20040c4:	10891304 	addi	r2,r2,9292
 20040c8:	e0bff715 	stw	r2,-36(fp)
 20040cc:	e0bff804 	addi	r2,fp,-32
 20040d0:	e0ffee04 	addi	r3,fp,-72
 20040d4:	10c00015 	stw	r3,0(r2)
 20040d8:	00c08034 	movhi	r3,512
 20040dc:	18d05b04 	addi	r3,r3,16748
 20040e0:	10c00115 	stw	r3,4(r2)
 20040e4:	16c00215 	stw	sp,8(r2)
 20040e8:	e13ff004 	addi	r4,fp,-64
 20040ec:	200d0800 	call	200d080 <_Unwind_SjLj_Register>
 20040f0:	e13fee17 	ldw	r4,-72(fp)
 20040f4:	00bfffc4 	movi	r2,-1
 20040f8:	e0bff115 	stw	r2,-60(fp)
 20040fc:	2006df00 	call	2006df0 <_ZN11CCarMessageC2Ev>
 2004100:	00c08074 	movhi	r3,513
 2004104:	18c96e04 	addi	r3,r3,9656
 2004108:	e0bfee17 	ldw	r2,-72(fp)
 200410c:	10c00015 	stw	r3,0(r2)
{
    setHeader(10, getLength(), 0);
 2004110:	e0bfee17 	ldw	r2,-72(fp)
 2004114:	e0bffe15 	stw	r2,-8(fp)
 2004118:	e13fee17 	ldw	r4,-72(fp)
 200411c:	20037e80 	call	20037e8 <_ZN15CADCInfoMessage9getLengthEv>
 2004120:	11803fcc 	andi	r6,r2,255
 2004124:	00800044 	movi	r2,1
 2004128:	e0bff115 	stw	r2,-60(fp)
 200412c:	e13ffe17 	ldw	r4,-8(fp)
 2004130:	01400284 	movi	r5,10
 2004134:	000f883a 	mov	r7,zero
 2004138:	2006fc40 	call	2006fc4 <_ZN11CCarMessage9setHeaderEhhb>

    m_uiChannelCount = 0;
 200413c:	e0bfee17 	ldw	r2,-72(fp)
 2004140:	10000245 	stb	zero,9(r2)
    m_uiChannelNumbers[0] = uiChannelNumbers[0];
 2004144:	e0bfef17 	ldw	r2,-68(fp)
 2004148:	10c00003 	ldbu	r3,0(r2)
 200414c:	e0bfee17 	ldw	r2,-72(fp)
 2004150:	10c00285 	stb	r3,10(r2)
    m_uiChannelNumbers[1] = uiChannelNumbers[1];
 2004154:	e0bfef17 	ldw	r2,-68(fp)
 2004158:	10800044 	addi	r2,r2,1
 200415c:	10c00003 	ldbu	r3,0(r2)
 2004160:	e0bfee17 	ldw	r2,-72(fp)
 2004164:	10c002c5 	stb	r3,11(r2)
}
 2004168:	00000e06 	br	20041a4 <_ZN15CADCInfoMessageC2EPh+0x128>
 200416c:	e7001204 	addi	fp,fp,72
 2004170:	e0fff217 	ldw	r3,-56(fp)
 2004174:	e0ffff15 	stw	r3,-4(fp)
 2004178:	e0bfff17 	ldw	r2,-4(fp)
 200417c:	e0bffd15 	stw	r2,-12(fp)
 2004180:	e13fee17 	ldw	r4,-72(fp)
 2004184:	e03ff115 	stw	zero,-60(fp)
 2004188:	20073b40 	call	20073b4 <_ZN11CCarMessageD2Ev>
 200418c:	e0fffd17 	ldw	r3,-12(fp)
 2004190:	e0ffff15 	stw	r3,-4(fp)
 2004194:	00bfffc4 	movi	r2,-1
 2004198:	e0bff115 	stw	r2,-60(fp)
 200419c:	e13fff17 	ldw	r4,-4(fp)
 20041a0:	200d34c0 	call	200d34c <_Unwind_SjLj_Resume>
 20041a4:	e13ff004 	addi	r4,fp,-64
 20041a8:	200d0900 	call	200d090 <_Unwind_SjLj_Unregister>
 20041ac:	e037883a 	mov	sp,fp
 20041b0:	dfc00917 	ldw	ra,36(sp)
 20041b4:	df000817 	ldw	fp,32(sp)
 20041b8:	ddc00717 	ldw	r23,28(sp)
 20041bc:	dd800617 	ldw	r22,24(sp)
 20041c0:	dd400517 	ldw	r21,20(sp)
 20041c4:	dd000417 	ldw	r20,16(sp)
 20041c8:	dcc00317 	ldw	r19,12(sp)
 20041cc:	dc800217 	ldw	r18,8(sp)
 20041d0:	dc400117 	ldw	r17,4(sp)
 20041d4:	dc000017 	ldw	r16,0(sp)
 20041d8:	dec00a04 	addi	sp,sp,40
 20041dc:	f800283a 	ret

020041e0 <_ZN17CADCValuesMessage8doActionEv>:
}

/*
 * Overrided from CCarMessage.
 */
void CADCValuesMessage::doAction()
 20041e0:	defffe04 	addi	sp,sp,-8
 20041e4:	df000115 	stw	fp,4(sp)
 20041e8:	df000104 	addi	fp,sp,4
 20041ec:	e13fff15 	stw	r4,-4(fp)

	answerMessage(m_uiChannelNumbers, uiTrimmedValues);

#endif /* CENTRAL_ECU_BUILD */

}
 20041f0:	e037883a 	mov	sp,fp
 20041f4:	df000017 	ldw	fp,0(sp)
 20041f8:	dec00104 	addi	sp,sp,4
 20041fc:	f800283a 	ret

02004200 <_ZN17CADCValuesMessage13answerMessageEPhPt>:

/*
 * Overrided from CCarMessage.
 */
void CADCValuesMessage::answerMessage(alt_u8 uiChannelNumbers[], alt_u16 uiChannelValues[])
 2004200:	defffc04 	addi	sp,sp,-16
 2004204:	df000315 	stw	fp,12(sp)
 2004208:	df000304 	addi	fp,sp,12
 200420c:	e13ffd15 	stw	r4,-12(fp)
 2004210:	e17ffe15 	stw	r5,-8(fp)
 2004214:	e1bfff15 	stw	r6,-4(fp)
{
    m_uiChannelValues[0] = uiChannelValues[0];
 2004218:	e0bfff17 	ldw	r2,-4(fp)
 200421c:	10c0000b 	ldhu	r3,0(r2)
 2004220:	e0bffd17 	ldw	r2,-12(fp)
 2004224:	10c0030d 	sth	r3,12(r2)
    m_uiChannelValues[1] = uiChannelValues[1];
 2004228:	e0bfff17 	ldw	r2,-4(fp)
 200422c:	10800084 	addi	r2,r2,2
 2004230:	10c0000b 	ldhu	r3,0(r2)
 2004234:	e0bffd17 	ldw	r2,-12(fp)
 2004238:	10c0038d 	sth	r3,14(r2)
    m_uiFlags = m_uiFlags | 0x01; // Set response flag
 200423c:	e0bffd17 	ldw	r2,-12(fp)
 2004240:	108001c3 	ldbu	r2,7(r2)
 2004244:	10800054 	ori	r2,r2,1
 2004248:	1007883a 	mov	r3,r2
 200424c:	e0bffd17 	ldw	r2,-12(fp)
 2004250:	10c001c5 	stb	r3,7(r2)
}
 2004254:	e037883a 	mov	sp,fp
 2004258:	df000017 	ldw	fp,0(sp)
 200425c:	dec00104 	addi	sp,sp,4
 2004260:	f800283a 	ret

02004264 <_ZN17CADCValuesMessage9getLengthEv>:
}

/*
 * Overrided from CCarMessage.
 */
alt_u32 CADCValuesMessage::getLength()
 2004264:	defffe04 	addi	sp,sp,-8
 2004268:	df000115 	stw	fp,4(sp)
 200426c:	df000104 	addi	fp,sp,4
 2004270:	e13fff15 	stw	r4,-4(fp)
{
    return 12;
 2004274:	00800304 	movi	r2,12
}
 2004278:	e037883a 	mov	sp,fp
 200427c:	df000017 	ldw	fp,0(sp)
 2004280:	dec00104 	addi	sp,sp,4
 2004284:	f800283a 	ret

02004288 <_ZN17CADCValuesMessage12parseMessageEPhi>:

/*
 * Overrided from CCarMessage.
 */
void CADCValuesMessage::parseMessage(alt_u8 *pMessage, int iLength)
 2004288:	defffc04 	addi	sp,sp,-16
 200428c:	df000315 	stw	fp,12(sp)
 2004290:	df000304 	addi	fp,sp,12
 2004294:	e13ffd15 	stw	r4,-12(fp)
 2004298:	e17ffe15 	stw	r5,-8(fp)
 200429c:	e1bfff15 	stw	r6,-4(fp)
{
    if(iLength < 8)
 20042a0:	e0bfff17 	ldw	r2,-4(fp)
 20042a4:	10800210 	cmplti	r2,r2,8
 20042a8:	10002b1e 	bne	r2,zero,2004358 <_ZN17CADCValuesMessage12parseMessageEPhi+0xd0>
        return;

    m_uiChannelNumbers[0] = pMessage[0];
 20042ac:	e0bffe17 	ldw	r2,-8(fp)
 20042b0:	10c00003 	ldbu	r3,0(r2)
 20042b4:	e0bffd17 	ldw	r2,-12(fp)
 20042b8:	10c00245 	stb	r3,9(r2)
    m_uiChannelValues[0] = ((alt_u32) pMessage[2]) << 0;
 20042bc:	e0bffe17 	ldw	r2,-8(fp)
 20042c0:	10800084 	addi	r2,r2,2
 20042c4:	10800003 	ldbu	r2,0(r2)
 20042c8:	10c03fcc 	andi	r3,r2,255
 20042cc:	e0bffd17 	ldw	r2,-12(fp)
 20042d0:	10c0030d 	sth	r3,12(r2)
    m_uiChannelValues[0] = ((alt_u32) pMessage[3]) << 8;
 20042d4:	e0bffe17 	ldw	r2,-8(fp)
 20042d8:	108000c4 	addi	r2,r2,3
 20042dc:	10800003 	ldbu	r2,0(r2)
 20042e0:	10803fcc 	andi	r2,r2,255
 20042e4:	1004923a 	slli	r2,r2,8
 20042e8:	1007883a 	mov	r3,r2
 20042ec:	e0bffd17 	ldw	r2,-12(fp)
 20042f0:	10c0030d 	sth	r3,12(r2)
    m_uiChannelNumbers[1] = pMessage[4];
 20042f4:	e0bffe17 	ldw	r2,-8(fp)
 20042f8:	10800104 	addi	r2,r2,4
 20042fc:	10c00003 	ldbu	r3,0(r2)
 2004300:	e0bffd17 	ldw	r2,-12(fp)
 2004304:	10c00285 	stb	r3,10(r2)
    m_uiChannelValues[1] = ((alt_u32) pMessage[6]) << 0;
 2004308:	e0bffe17 	ldw	r2,-8(fp)
 200430c:	10800184 	addi	r2,r2,6
 2004310:	10800003 	ldbu	r2,0(r2)
 2004314:	10c03fcc 	andi	r3,r2,255
 2004318:	e0bffd17 	ldw	r2,-12(fp)
 200431c:	10c0038d 	sth	r3,14(r2)
    m_uiChannelValues[1] += ((alt_u32) pMessage[7]) << 8;
 2004320:	e0bffd17 	ldw	r2,-12(fp)
 2004324:	10c0038b 	ldhu	r3,14(r2)
 2004328:	e0bffe17 	ldw	r2,-8(fp)
 200432c:	108001c4 	addi	r2,r2,7
 2004330:	10800003 	ldbu	r2,0(r2)
 2004334:	10803fcc 	andi	r2,r2,255
 2004338:	1004923a 	slli	r2,r2,8
 200433c:	1885883a 	add	r2,r3,r2
 2004340:	1007883a 	mov	r3,r2
 2004344:	e0bffd17 	ldw	r2,-12(fp)
 2004348:	10c0038d 	sth	r3,14(r2)

    m_bValid = true;
 200434c:	e0fffd17 	ldw	r3,-12(fp)
 2004350:	00800044 	movi	r2,1
 2004354:	18800205 	stb	r2,8(r3)
}
 2004358:	e037883a 	mov	sp,fp
 200435c:	df000017 	ldw	fp,0(sp)
 2004360:	dec00104 	addi	sp,sp,4
 2004364:	f800283a 	ret

02004368 <_ZN17CADCValuesMessage8getBytesEPh>:
}

/*
 * Overrided from CCarMessage.
 */
bool CADCValuesMessage::getBytes(alt_u8 *pMessage)
 2004368:	defffc04 	addi	sp,sp,-16
 200436c:	dfc00315 	stw	ra,12(sp)
 2004370:	df000215 	stw	fp,8(sp)
 2004374:	df000204 	addi	fp,sp,8
 2004378:	e13ffe15 	stw	r4,-8(fp)
 200437c:	e17fff15 	stw	r5,-4(fp)
{
    CCarMessage::getBytes(pMessage);
 2004380:	e13ffe17 	ldw	r4,-8(fp)
 2004384:	e17fff17 	ldw	r5,-4(fp)
 2004388:	2006e800 	call	2006e80 <_ZN11CCarMessage8getBytesEPh>

    pMessage[4] = m_uiChannelNumbers[0];
 200438c:	e0bfff17 	ldw	r2,-4(fp)
 2004390:	10c00104 	addi	r3,r2,4
 2004394:	e0bffe17 	ldw	r2,-8(fp)
 2004398:	10800243 	ldbu	r2,9(r2)
 200439c:	18800005 	stb	r2,0(r3)
    pMessage[5] = 0;
 20043a0:	e0bfff17 	ldw	r2,-4(fp)
 20043a4:	10800144 	addi	r2,r2,5
 20043a8:	10000005 	stb	zero,0(r2)
    pMessage[6] = (m_uiChannelValues[0] >> 0) & 0xFF;
 20043ac:	e0bfff17 	ldw	r2,-4(fp)
 20043b0:	11000184 	addi	r4,r2,6
 20043b4:	e0bffe17 	ldw	r2,-8(fp)
 20043b8:	1080030b 	ldhu	r2,12(r2)
 20043bc:	1007883a 	mov	r3,r2
 20043c0:	00bfffc4 	movi	r2,-1
 20043c4:	1884703a 	and	r2,r3,r2
 20043c8:	20800005 	stb	r2,0(r4)
    pMessage[7] = (m_uiChannelValues[0] >> 8) & 0xFF;
 20043cc:	e0bfff17 	ldw	r2,-4(fp)
 20043d0:	110001c4 	addi	r4,r2,7
 20043d4:	e0bffe17 	ldw	r2,-8(fp)
 20043d8:	1080030b 	ldhu	r2,12(r2)
 20043dc:	10bfffcc 	andi	r2,r2,65535
 20043e0:	1004d23a 	srli	r2,r2,8
 20043e4:	1007883a 	mov	r3,r2
 20043e8:	00bfffc4 	movi	r2,-1
 20043ec:	1884703a 	and	r2,r3,r2
 20043f0:	20800005 	stb	r2,0(r4)
    pMessage[8] = m_uiChannelNumbers[1];
 20043f4:	e0bfff17 	ldw	r2,-4(fp)
 20043f8:	10c00204 	addi	r3,r2,8
 20043fc:	e0bffe17 	ldw	r2,-8(fp)
 2004400:	10800283 	ldbu	r2,10(r2)
 2004404:	18800005 	stb	r2,0(r3)
    pMessage[9] = 0;
 2004408:	e0bfff17 	ldw	r2,-4(fp)
 200440c:	10800244 	addi	r2,r2,9
 2004410:	10000005 	stb	zero,0(r2)
    pMessage[10] = (m_uiChannelValues[1] >> 0) & 0xFF;
 2004414:	e0bfff17 	ldw	r2,-4(fp)
 2004418:	11000284 	addi	r4,r2,10
 200441c:	e0bffe17 	ldw	r2,-8(fp)
 2004420:	1080038b 	ldhu	r2,14(r2)
 2004424:	1007883a 	mov	r3,r2
 2004428:	00bfffc4 	movi	r2,-1
 200442c:	1884703a 	and	r2,r3,r2
 2004430:	20800005 	stb	r2,0(r4)
    pMessage[11] = (m_uiChannelValues[1] >> 8) & 0xFF;
 2004434:	e0bfff17 	ldw	r2,-4(fp)
 2004438:	110002c4 	addi	r4,r2,11
 200443c:	e0bffe17 	ldw	r2,-8(fp)
 2004440:	1080038b 	ldhu	r2,14(r2)
 2004444:	10bfffcc 	andi	r2,r2,65535
 2004448:	1004d23a 	srli	r2,r2,8
 200444c:	1007883a 	mov	r3,r2
 2004450:	00bfffc4 	movi	r2,-1
 2004454:	1884703a 	and	r2,r3,r2
 2004458:	20800005 	stb	r2,0(r4)
    return m_bValid;
 200445c:	e0bffe17 	ldw	r2,-8(fp)
 2004460:	10800203 	ldbu	r2,8(r2)
 2004464:	10803fcc 	andi	r2,r2,255
}
 2004468:	e037883a 	mov	sp,fp
 200446c:	dfc00117 	ldw	ra,4(sp)
 2004470:	df000017 	ldw	fp,0(sp)
 2004474:	dec00204 	addi	sp,sp,8
 2004478:	f800283a 	ret

0200447c <_ZN17CADCValuesMessageD0Ev>:
}

/*
 * Basic Destructor.
 */
CADCValuesMessage::~CADCValuesMessage()
 200447c:	defffd04 	addi	sp,sp,-12
 2004480:	dfc00215 	stw	ra,8(sp)
 2004484:	df000115 	stw	fp,4(sp)
 2004488:	df000104 	addi	fp,sp,4
 200448c:	e13fff15 	stw	r4,-4(fp)
 2004490:	00c08074 	movhi	r3,513
 2004494:	18c97d04 	addi	r3,r3,9716
 2004498:	e0bfff17 	ldw	r2,-4(fp)
 200449c:	10c00015 	stw	r3,0(r2)
{
}
 20044a0:	e13fff17 	ldw	r4,-4(fp)
 20044a4:	20073b40 	call	20073b4 <_ZN11CCarMessageD2Ev>
 20044a8:	00800044 	movi	r2,1
 20044ac:	10803fcc 	andi	r2,r2,255
 20044b0:	1005003a 	cmpeq	r2,r2,zero
 20044b4:	1000021e 	bne	r2,zero,20044c0 <_ZN17CADCValuesMessageD0Ev+0x44>
 20044b8:	e13fff17 	ldw	r4,-4(fp)
 20044bc:	200bc9c0 	call	200bc9c <_ZdlPv>
 20044c0:	e037883a 	mov	sp,fp
 20044c4:	dfc00117 	ldw	ra,4(sp)
 20044c8:	df000017 	ldw	fp,0(sp)
 20044cc:	dec00204 	addi	sp,sp,8
 20044d0:	f800283a 	ret

020044d4 <_ZN17CADCValuesMessageD1Ev>:
}

/*
 * Basic Destructor.
 */
CADCValuesMessage::~CADCValuesMessage()
 20044d4:	defffd04 	addi	sp,sp,-12
 20044d8:	dfc00215 	stw	ra,8(sp)
 20044dc:	df000115 	stw	fp,4(sp)
 20044e0:	df000104 	addi	fp,sp,4
 20044e4:	e13fff15 	stw	r4,-4(fp)
 20044e8:	00c08074 	movhi	r3,513
 20044ec:	18c97d04 	addi	r3,r3,9716
 20044f0:	e0bfff17 	ldw	r2,-4(fp)
 20044f4:	10c00015 	stw	r3,0(r2)
{
}
 20044f8:	e13fff17 	ldw	r4,-4(fp)
 20044fc:	20073b40 	call	20073b4 <_ZN11CCarMessageD2Ev>
 2004500:	0005883a 	mov	r2,zero
 2004504:	10803fcc 	andi	r2,r2,255
 2004508:	1005003a 	cmpeq	r2,r2,zero
 200450c:	1000021e 	bne	r2,zero,2004518 <_ZN17CADCValuesMessageD1Ev+0x44>
 2004510:	e13fff17 	ldw	r4,-4(fp)
 2004514:	200bc9c0 	call	200bc9c <_ZdlPv>
 2004518:	e037883a 	mov	sp,fp
 200451c:	dfc00117 	ldw	ra,4(sp)
 2004520:	df000017 	ldw	fp,0(sp)
 2004524:	dec00204 	addi	sp,sp,8
 2004528:	f800283a 	ret

0200452c <_ZN17CADCValuesMessageD2Ev>:
}

/*
 * Basic Destructor.
 */
CADCValuesMessage::~CADCValuesMessage()
 200452c:	defffd04 	addi	sp,sp,-12
 2004530:	dfc00215 	stw	ra,8(sp)
 2004534:	df000115 	stw	fp,4(sp)
 2004538:	df000104 	addi	fp,sp,4
 200453c:	e13fff15 	stw	r4,-4(fp)
 2004540:	00c08074 	movhi	r3,513
 2004544:	18c97d04 	addi	r3,r3,9716
 2004548:	e0bfff17 	ldw	r2,-4(fp)
 200454c:	10c00015 	stw	r3,0(r2)
{
}
 2004550:	e13fff17 	ldw	r4,-4(fp)
 2004554:	20073b40 	call	20073b4 <_ZN11CCarMessageD2Ev>
 2004558:	0005883a 	mov	r2,zero
 200455c:	10803fcc 	andi	r2,r2,255
 2004560:	1005003a 	cmpeq	r2,r2,zero
 2004564:	1000021e 	bne	r2,zero,2004570 <_ZN17CADCValuesMessageD2Ev+0x44>
 2004568:	e13fff17 	ldw	r4,-4(fp)
 200456c:	200bc9c0 	call	200bc9c <_ZdlPv>
 2004570:	e037883a 	mov	sp,fp
 2004574:	dfc00117 	ldw	ra,4(sp)
 2004578:	df000017 	ldw	fp,0(sp)
 200457c:	dec00204 	addi	sp,sp,8
 2004580:	f800283a 	ret

02004584 <_ZN17CADCValuesMessageC1EPhi>:
/*
 * Constructor. Used to reassemble object from Byte stream.
 * pMessage : Byte-Array containing the fields of the subMessage
 * iLength  : Length of the said array
 */
CADCValuesMessage::CADCValuesMessage(alt_u8 *pMessage, int iLength)
 2004584:	deffe404 	addi	sp,sp,-112
 2004588:	dfc01b15 	stw	ra,108(sp)
 200458c:	df001a15 	stw	fp,104(sp)
 2004590:	ddc01915 	stw	r23,100(sp)
 2004594:	dd801815 	stw	r22,96(sp)
 2004598:	dd401715 	stw	r21,92(sp)
 200459c:	dd001615 	stw	r20,88(sp)
 20045a0:	dcc01515 	stw	r19,84(sp)
 20045a4:	dc801415 	stw	r18,80(sp)
 20045a8:	dc401315 	stw	r17,76(sp)
 20045ac:	dc001215 	stw	r16,72(sp)
 20045b0:	df001204 	addi	fp,sp,72
 20045b4:	e13fee15 	stw	r4,-72(fp)
 20045b8:	e17fef15 	stw	r5,-68(fp)
 20045bc:	e1bff015 	stw	r6,-64(fp)
 20045c0:	00808074 	movhi	r2,513
 20045c4:	10adca04 	addi	r2,r2,-18648
 20045c8:	e0bff715 	stw	r2,-36(fp)
 20045cc:	00808074 	movhi	r2,513
 20045d0:	10891484 	addi	r2,r2,9298
 20045d4:	e0bff815 	stw	r2,-32(fp)
 20045d8:	e0bff904 	addi	r2,fp,-28
 20045dc:	e0ffee04 	addi	r3,fp,-72
 20045e0:	10c00015 	stw	r3,0(r2)
 20045e4:	00c08034 	movhi	r3,512
 20045e8:	18d19b04 	addi	r3,r3,18028
 20045ec:	10c00115 	stw	r3,4(r2)
 20045f0:	16c00215 	stw	sp,8(r2)
 20045f4:	e13ff104 	addi	r4,fp,-60
 20045f8:	200d0800 	call	200d080 <_Unwind_SjLj_Register>
 20045fc:	e13fee17 	ldw	r4,-72(fp)
 2004600:	00bfffc4 	movi	r2,-1
 2004604:	e0bff215 	stw	r2,-56(fp)
 2004608:	2006df00 	call	2006df0 <_ZN11CCarMessageC2Ev>
 200460c:	00c08074 	movhi	r3,513
 2004610:	18c97d04 	addi	r3,r3,9716
 2004614:	e0bfee17 	ldw	r2,-72(fp)
 2004618:	10c00015 	stw	r3,0(r2)
{
    parseHeader(pMessage, iLength);
 200461c:	e13fee17 	ldw	r4,-72(fp)
 2004620:	00800044 	movi	r2,1
 2004624:	e0bff215 	stw	r2,-56(fp)
 2004628:	e17fef17 	ldw	r5,-68(fp)
 200462c:	e1bff017 	ldw	r6,-64(fp)
 2004630:	20071480 	call	2007148 <_ZN11CCarMessage11parseHeaderEPhi>
    if(m_bValid)
 2004634:	e0bfee17 	ldw	r2,-72(fp)
 2004638:	10800203 	ldbu	r2,8(r2)
 200463c:	10803fcc 	andi	r2,r2,255
 2004640:	1005003a 	cmpeq	r2,r2,zero
 2004644:	1000171e 	bne	r2,zero,20046a4 <_ZN17CADCValuesMessageC1EPhi+0x120>
    {
        m_bValid = false;
 2004648:	e0bfee17 	ldw	r2,-72(fp)
 200464c:	10000205 	stb	zero,8(r2)
        parseMessage(pMessage+4, iLength-4);
 2004650:	e0bfef17 	ldw	r2,-68(fp)
 2004654:	11400104 	addi	r5,r2,4
 2004658:	e0bff017 	ldw	r2,-64(fp)
 200465c:	11bfff04 	addi	r6,r2,-4
 2004660:	e13fee17 	ldw	r4,-72(fp)
 2004664:	20042880 	call	2004288 <_ZN17CADCValuesMessage12parseMessageEPhi>
    }

}
 2004668:	00000e06 	br	20046a4 <_ZN17CADCValuesMessageC1EPhi+0x120>
 200466c:	e7001204 	addi	fp,fp,72
 2004670:	e0bff317 	ldw	r2,-52(fp)
 2004674:	e0bfff15 	stw	r2,-4(fp)
 2004678:	e0ffff17 	ldw	r3,-4(fp)
 200467c:	e0fffe15 	stw	r3,-8(fp)
 2004680:	e13fee17 	ldw	r4,-72(fp)
 2004684:	e03ff215 	stw	zero,-56(fp)
 2004688:	20073b40 	call	20073b4 <_ZN11CCarMessageD2Ev>
 200468c:	e0bffe17 	ldw	r2,-8(fp)
 2004690:	e0bfff15 	stw	r2,-4(fp)
 2004694:	00bfffc4 	movi	r2,-1
 2004698:	e0bff215 	stw	r2,-56(fp)
 200469c:	e13fff17 	ldw	r4,-4(fp)
 20046a0:	200d34c0 	call	200d34c <_Unwind_SjLj_Resume>
 20046a4:	e13ff104 	addi	r4,fp,-60
 20046a8:	200d0900 	call	200d090 <_Unwind_SjLj_Unregister>
 20046ac:	e037883a 	mov	sp,fp
 20046b0:	dfc00917 	ldw	ra,36(sp)
 20046b4:	df000817 	ldw	fp,32(sp)
 20046b8:	ddc00717 	ldw	r23,28(sp)
 20046bc:	dd800617 	ldw	r22,24(sp)
 20046c0:	dd400517 	ldw	r21,20(sp)
 20046c4:	dd000417 	ldw	r20,16(sp)
 20046c8:	dcc00317 	ldw	r19,12(sp)
 20046cc:	dc800217 	ldw	r18,8(sp)
 20046d0:	dc400117 	ldw	r17,4(sp)
 20046d4:	dc000017 	ldw	r16,0(sp)
 20046d8:	dec00a04 	addi	sp,sp,40
 20046dc:	f800283a 	ret

020046e0 <_ZN17CADCValuesMessageC2EPhi>:
/*
 * Constructor. Used to reassemble object from Byte stream.
 * pMessage : Byte-Array containing the fields of the subMessage
 * iLength  : Length of the said array
 */
CADCValuesMessage::CADCValuesMessage(alt_u8 *pMessage, int iLength)
 20046e0:	deffe404 	addi	sp,sp,-112
 20046e4:	dfc01b15 	stw	ra,108(sp)
 20046e8:	df001a15 	stw	fp,104(sp)
 20046ec:	ddc01915 	stw	r23,100(sp)
 20046f0:	dd801815 	stw	r22,96(sp)
 20046f4:	dd401715 	stw	r21,92(sp)
 20046f8:	dd001615 	stw	r20,88(sp)
 20046fc:	dcc01515 	stw	r19,84(sp)
 2004700:	dc801415 	stw	r18,80(sp)
 2004704:	dc401315 	stw	r17,76(sp)
 2004708:	dc001215 	stw	r16,72(sp)
 200470c:	df001204 	addi	fp,sp,72
 2004710:	e13fee15 	stw	r4,-72(fp)
 2004714:	e17fef15 	stw	r5,-68(fp)
 2004718:	e1bff015 	stw	r6,-64(fp)
 200471c:	00808074 	movhi	r2,513
 2004720:	10adca04 	addi	r2,r2,-18648
 2004724:	e0bff715 	stw	r2,-36(fp)
 2004728:	00808074 	movhi	r2,513
 200472c:	10891604 	addi	r2,r2,9304
 2004730:	e0bff815 	stw	r2,-32(fp)
 2004734:	e0bff904 	addi	r2,fp,-28
 2004738:	e0ffee04 	addi	r3,fp,-72
 200473c:	10c00015 	stw	r3,0(r2)
 2004740:	00c08034 	movhi	r3,512
 2004744:	18d1f204 	addi	r3,r3,18376
 2004748:	10c00115 	stw	r3,4(r2)
 200474c:	16c00215 	stw	sp,8(r2)
 2004750:	e13ff104 	addi	r4,fp,-60
 2004754:	200d0800 	call	200d080 <_Unwind_SjLj_Register>
 2004758:	e13fee17 	ldw	r4,-72(fp)
 200475c:	00bfffc4 	movi	r2,-1
 2004760:	e0bff215 	stw	r2,-56(fp)
 2004764:	2006df00 	call	2006df0 <_ZN11CCarMessageC2Ev>
 2004768:	00c08074 	movhi	r3,513
 200476c:	18c97d04 	addi	r3,r3,9716
 2004770:	e0bfee17 	ldw	r2,-72(fp)
 2004774:	10c00015 	stw	r3,0(r2)
{
    parseHeader(pMessage, iLength);
 2004778:	e13fee17 	ldw	r4,-72(fp)
 200477c:	00800044 	movi	r2,1
 2004780:	e0bff215 	stw	r2,-56(fp)
 2004784:	e17fef17 	ldw	r5,-68(fp)
 2004788:	e1bff017 	ldw	r6,-64(fp)
 200478c:	20071480 	call	2007148 <_ZN11CCarMessage11parseHeaderEPhi>
    if(m_bValid)
 2004790:	e0bfee17 	ldw	r2,-72(fp)
 2004794:	10800203 	ldbu	r2,8(r2)
 2004798:	10803fcc 	andi	r2,r2,255
 200479c:	1005003a 	cmpeq	r2,r2,zero
 20047a0:	1000171e 	bne	r2,zero,2004800 <_ZN17CADCValuesMessageC2EPhi+0x120>
    {
        m_bValid = false;
 20047a4:	e0bfee17 	ldw	r2,-72(fp)
 20047a8:	10000205 	stb	zero,8(r2)
        parseMessage(pMessage+4, iLength-4);
 20047ac:	e0bfef17 	ldw	r2,-68(fp)
 20047b0:	11400104 	addi	r5,r2,4
 20047b4:	e0bff017 	ldw	r2,-64(fp)
 20047b8:	11bfff04 	addi	r6,r2,-4
 20047bc:	e13fee17 	ldw	r4,-72(fp)
 20047c0:	20042880 	call	2004288 <_ZN17CADCValuesMessage12parseMessageEPhi>
    }

}
 20047c4:	00000e06 	br	2004800 <_ZN17CADCValuesMessageC2EPhi+0x120>
 20047c8:	e7001204 	addi	fp,fp,72
 20047cc:	e0bff317 	ldw	r2,-52(fp)
 20047d0:	e0bfff15 	stw	r2,-4(fp)
 20047d4:	e0ffff17 	ldw	r3,-4(fp)
 20047d8:	e0fffe15 	stw	r3,-8(fp)
 20047dc:	e13fee17 	ldw	r4,-72(fp)
 20047e0:	e03ff215 	stw	zero,-56(fp)
 20047e4:	20073b40 	call	20073b4 <_ZN11CCarMessageD2Ev>
 20047e8:	e0bffe17 	ldw	r2,-8(fp)
 20047ec:	e0bfff15 	stw	r2,-4(fp)
 20047f0:	00bfffc4 	movi	r2,-1
 20047f4:	e0bff215 	stw	r2,-56(fp)
 20047f8:	e13fff17 	ldw	r4,-4(fp)
 20047fc:	200d34c0 	call	200d34c <_Unwind_SjLj_Resume>
 2004800:	e13ff104 	addi	r4,fp,-60
 2004804:	200d0900 	call	200d090 <_Unwind_SjLj_Unregister>
 2004808:	e037883a 	mov	sp,fp
 200480c:	dfc00917 	ldw	ra,36(sp)
 2004810:	df000817 	ldw	fp,32(sp)
 2004814:	ddc00717 	ldw	r23,28(sp)
 2004818:	dd800617 	ldw	r22,24(sp)
 200481c:	dd400517 	ldw	r21,20(sp)
 2004820:	dd000417 	ldw	r20,16(sp)
 2004824:	dcc00317 	ldw	r19,12(sp)
 2004828:	dc800217 	ldw	r18,8(sp)
 200482c:	dc400117 	ldw	r17,4(sp)
 2004830:	dc000017 	ldw	r16,0(sp)
 2004834:	dec00a04 	addi	sp,sp,40
 2004838:	f800283a 	ret

0200483c <_ZN17CADCValuesMessageC1EPh>:
// Import Interfaces

/*
 * Basic Constructor. Used to initialise new message-objects.
 */
CADCValuesMessage::CADCValuesMessage(alt_u8 uiChannelNumbers[])
 200483c:	deffe404 	addi	sp,sp,-112
 2004840:	dfc01b15 	stw	ra,108(sp)
 2004844:	df001a15 	stw	fp,104(sp)
 2004848:	ddc01915 	stw	r23,100(sp)
 200484c:	dd801815 	stw	r22,96(sp)
 2004850:	dd401715 	stw	r21,92(sp)
 2004854:	dd001615 	stw	r20,88(sp)
 2004858:	dcc01515 	stw	r19,84(sp)
 200485c:	dc801415 	stw	r18,80(sp)
 2004860:	dc401315 	stw	r17,76(sp)
 2004864:	dc001215 	stw	r16,72(sp)
 2004868:	df001204 	addi	fp,sp,72
 200486c:	e13fee15 	stw	r4,-72(fp)
 2004870:	e17fef15 	stw	r5,-68(fp)
 2004874:	00808074 	movhi	r2,513
 2004878:	10adca04 	addi	r2,r2,-18648
 200487c:	e0bff615 	stw	r2,-40(fp)
 2004880:	00808074 	movhi	r2,513
 2004884:	10891784 	addi	r2,r2,9310
 2004888:	e0bff715 	stw	r2,-36(fp)
 200488c:	e0bff804 	addi	r2,fp,-32
 2004890:	e0ffee04 	addi	r3,fp,-72
 2004894:	10c00015 	stw	r3,0(r2)
 2004898:	00c08034 	movhi	r3,512
 200489c:	18d24904 	addi	r3,r3,18724
 20048a0:	10c00115 	stw	r3,4(r2)
 20048a4:	16c00215 	stw	sp,8(r2)
 20048a8:	e13ff004 	addi	r4,fp,-64
 20048ac:	200d0800 	call	200d080 <_Unwind_SjLj_Register>
 20048b0:	e13fee17 	ldw	r4,-72(fp)
 20048b4:	00bfffc4 	movi	r2,-1
 20048b8:	e0bff115 	stw	r2,-60(fp)
 20048bc:	2006df00 	call	2006df0 <_ZN11CCarMessageC2Ev>
 20048c0:	00c08074 	movhi	r3,513
 20048c4:	18c97d04 	addi	r3,r3,9716
 20048c8:	e0bfee17 	ldw	r2,-72(fp)
 20048cc:	10c00015 	stw	r3,0(r2)
{
    setHeader(10, getLength(), 1);
 20048d0:	e0bfee17 	ldw	r2,-72(fp)
 20048d4:	e0bffe15 	stw	r2,-8(fp)
 20048d8:	e13fee17 	ldw	r4,-72(fp)
 20048dc:	20042640 	call	2004264 <_ZN17CADCValuesMessage9getLengthEv>
 20048e0:	11803fcc 	andi	r6,r2,255
 20048e4:	00800044 	movi	r2,1
 20048e8:	e0bff115 	stw	r2,-60(fp)
 20048ec:	e13ffe17 	ldw	r4,-8(fp)
 20048f0:	01400284 	movi	r5,10
 20048f4:	01c00044 	movi	r7,1
 20048f8:	2006fc40 	call	2006fc4 <_ZN11CCarMessage9setHeaderEhhb>

    m_uiChannelNumbers[0] = uiChannelNumbers[0];
 20048fc:	e0bfef17 	ldw	r2,-68(fp)
 2004900:	10c00003 	ldbu	r3,0(r2)
 2004904:	e0bfee17 	ldw	r2,-72(fp)
 2004908:	10c00245 	stb	r3,9(r2)
    m_uiChannelNumbers[1] = uiChannelNumbers[1];
 200490c:	e0bfef17 	ldw	r2,-68(fp)
 2004910:	10800044 	addi	r2,r2,1
 2004914:	10c00003 	ldbu	r3,0(r2)
 2004918:	e0bfee17 	ldw	r2,-72(fp)
 200491c:	10c00285 	stb	r3,10(r2)
}
 2004920:	00000e06 	br	200495c <_ZN17CADCValuesMessageC1EPh+0x120>
 2004924:	e7001204 	addi	fp,fp,72
 2004928:	e0fff217 	ldw	r3,-56(fp)
 200492c:	e0ffff15 	stw	r3,-4(fp)
 2004930:	e0bfff17 	ldw	r2,-4(fp)
 2004934:	e0bffd15 	stw	r2,-12(fp)
 2004938:	e13fee17 	ldw	r4,-72(fp)
 200493c:	e03ff115 	stw	zero,-60(fp)
 2004940:	20073b40 	call	20073b4 <_ZN11CCarMessageD2Ev>
 2004944:	e0fffd17 	ldw	r3,-12(fp)
 2004948:	e0ffff15 	stw	r3,-4(fp)
 200494c:	00bfffc4 	movi	r2,-1
 2004950:	e0bff115 	stw	r2,-60(fp)
 2004954:	e13fff17 	ldw	r4,-4(fp)
 2004958:	200d34c0 	call	200d34c <_Unwind_SjLj_Resume>
 200495c:	e13ff004 	addi	r4,fp,-64
 2004960:	200d0900 	call	200d090 <_Unwind_SjLj_Unregister>
 2004964:	e037883a 	mov	sp,fp
 2004968:	dfc00917 	ldw	ra,36(sp)
 200496c:	df000817 	ldw	fp,32(sp)
 2004970:	ddc00717 	ldw	r23,28(sp)
 2004974:	dd800617 	ldw	r22,24(sp)
 2004978:	dd400517 	ldw	r21,20(sp)
 200497c:	dd000417 	ldw	r20,16(sp)
 2004980:	dcc00317 	ldw	r19,12(sp)
 2004984:	dc800217 	ldw	r18,8(sp)
 2004988:	dc400117 	ldw	r17,4(sp)
 200498c:	dc000017 	ldw	r16,0(sp)
 2004990:	dec00a04 	addi	sp,sp,40
 2004994:	f800283a 	ret

02004998 <_ZN17CADCValuesMessageC2EPh>:
// Import Interfaces

/*
 * Basic Constructor. Used to initialise new message-objects.
 */
CADCValuesMessage::CADCValuesMessage(alt_u8 uiChannelNumbers[])
 2004998:	deffe404 	addi	sp,sp,-112
 200499c:	dfc01b15 	stw	ra,108(sp)
 20049a0:	df001a15 	stw	fp,104(sp)
 20049a4:	ddc01915 	stw	r23,100(sp)
 20049a8:	dd801815 	stw	r22,96(sp)
 20049ac:	dd401715 	stw	r21,92(sp)
 20049b0:	dd001615 	stw	r20,88(sp)
 20049b4:	dcc01515 	stw	r19,84(sp)
 20049b8:	dc801415 	stw	r18,80(sp)
 20049bc:	dc401315 	stw	r17,76(sp)
 20049c0:	dc001215 	stw	r16,72(sp)
 20049c4:	df001204 	addi	fp,sp,72
 20049c8:	e13fee15 	stw	r4,-72(fp)
 20049cc:	e17fef15 	stw	r5,-68(fp)
 20049d0:	00808074 	movhi	r2,513
 20049d4:	10adca04 	addi	r2,r2,-18648
 20049d8:	e0bff615 	stw	r2,-40(fp)
 20049dc:	00808074 	movhi	r2,513
 20049e0:	10891904 	addi	r2,r2,9316
 20049e4:	e0bff715 	stw	r2,-36(fp)
 20049e8:	e0bff804 	addi	r2,fp,-32
 20049ec:	e0ffee04 	addi	r3,fp,-72
 20049f0:	10c00015 	stw	r3,0(r2)
 20049f4:	00c08034 	movhi	r3,512
 20049f8:	18d2a004 	addi	r3,r3,19072
 20049fc:	10c00115 	stw	r3,4(r2)
 2004a00:	16c00215 	stw	sp,8(r2)
 2004a04:	e13ff004 	addi	r4,fp,-64
 2004a08:	200d0800 	call	200d080 <_Unwind_SjLj_Register>
 2004a0c:	e13fee17 	ldw	r4,-72(fp)
 2004a10:	00bfffc4 	movi	r2,-1
 2004a14:	e0bff115 	stw	r2,-60(fp)
 2004a18:	2006df00 	call	2006df0 <_ZN11CCarMessageC2Ev>
 2004a1c:	00c08074 	movhi	r3,513
 2004a20:	18c97d04 	addi	r3,r3,9716
 2004a24:	e0bfee17 	ldw	r2,-72(fp)
 2004a28:	10c00015 	stw	r3,0(r2)
{
    setHeader(10, getLength(), 1);
 2004a2c:	e0bfee17 	ldw	r2,-72(fp)
 2004a30:	e0bffe15 	stw	r2,-8(fp)
 2004a34:	e13fee17 	ldw	r4,-72(fp)
 2004a38:	20042640 	call	2004264 <_ZN17CADCValuesMessage9getLengthEv>
 2004a3c:	11803fcc 	andi	r6,r2,255
 2004a40:	00800044 	movi	r2,1
 2004a44:	e0bff115 	stw	r2,-60(fp)
 2004a48:	e13ffe17 	ldw	r4,-8(fp)
 2004a4c:	01400284 	movi	r5,10
 2004a50:	01c00044 	movi	r7,1
 2004a54:	2006fc40 	call	2006fc4 <_ZN11CCarMessage9setHeaderEhhb>

    m_uiChannelNumbers[0] = uiChannelNumbers[0];
 2004a58:	e0bfef17 	ldw	r2,-68(fp)
 2004a5c:	10c00003 	ldbu	r3,0(r2)
 2004a60:	e0bfee17 	ldw	r2,-72(fp)
 2004a64:	10c00245 	stb	r3,9(r2)
    m_uiChannelNumbers[1] = uiChannelNumbers[1];
 2004a68:	e0bfef17 	ldw	r2,-68(fp)
 2004a6c:	10800044 	addi	r2,r2,1
 2004a70:	10c00003 	ldbu	r3,0(r2)
 2004a74:	e0bfee17 	ldw	r2,-72(fp)
 2004a78:	10c00285 	stb	r3,10(r2)
}
 2004a7c:	00000e06 	br	2004ab8 <_ZN17CADCValuesMessageC2EPh+0x120>
 2004a80:	e7001204 	addi	fp,fp,72
 2004a84:	e0fff217 	ldw	r3,-56(fp)
 2004a88:	e0ffff15 	stw	r3,-4(fp)
 2004a8c:	e0bfff17 	ldw	r2,-4(fp)
 2004a90:	e0bffd15 	stw	r2,-12(fp)
 2004a94:	e13fee17 	ldw	r4,-72(fp)
 2004a98:	e03ff115 	stw	zero,-60(fp)
 2004a9c:	20073b40 	call	20073b4 <_ZN11CCarMessageD2Ev>
 2004aa0:	e0fffd17 	ldw	r3,-12(fp)
 2004aa4:	e0ffff15 	stw	r3,-4(fp)
 2004aa8:	00bfffc4 	movi	r2,-1
 2004aac:	e0bff115 	stw	r2,-60(fp)
 2004ab0:	e13fff17 	ldw	r4,-4(fp)
 2004ab4:	200d34c0 	call	200d34c <_Unwind_SjLj_Resume>
 2004ab8:	e13ff004 	addi	r4,fp,-64
 2004abc:	200d0900 	call	200d090 <_Unwind_SjLj_Unregister>
 2004ac0:	e037883a 	mov	sp,fp
 2004ac4:	dfc00917 	ldw	ra,36(sp)
 2004ac8:	df000817 	ldw	fp,32(sp)
 2004acc:	ddc00717 	ldw	r23,28(sp)
 2004ad0:	dd800617 	ldw	r22,24(sp)
 2004ad4:	dd400517 	ldw	r21,20(sp)
 2004ad8:	dd000417 	ldw	r20,16(sp)
 2004adc:	dcc00317 	ldw	r19,12(sp)
 2004ae0:	dc800217 	ldw	r18,8(sp)
 2004ae4:	dc400117 	ldw	r17,4(sp)
 2004ae8:	dc000017 	ldw	r16,0(sp)
 2004aec:	dec00a04 	addi	sp,sp,40
 2004af0:	f800283a 	ret

02004af4 <_ZN26CAccelerationValuesMessage13answerMessageEsssh>:
}

/*
 * Overrided from CCarMessage.
 */
void CAccelerationValuesMessage::answerMessage(alt_16 iXAcceleraition, alt_16 iYAcceleration, alt_16 iZAcceleration, alt_u8 uiAccelerationFlags)
 2004af4:	defffa04 	addi	sp,sp,-24
 2004af8:	df000515 	stw	fp,20(sp)
 2004afc:	df000504 	addi	fp,sp,20
 2004b00:	e13ffb15 	stw	r4,-20(fp)
 2004b04:	e0800117 	ldw	r2,4(fp)
 2004b08:	e17ffc0d 	sth	r5,-16(fp)
 2004b0c:	e1bffd0d 	sth	r6,-12(fp)
 2004b10:	e1fffe0d 	sth	r7,-8(fp)
 2004b14:	e0bfff05 	stb	r2,-4(fp)
{
    m_iXAcceleration = iXAcceleraition;
 2004b18:	e0fffb17 	ldw	r3,-20(fp)
 2004b1c:	e0bffc0b 	ldhu	r2,-16(fp)
 2004b20:	1880028d 	sth	r2,10(r3)
    m_iYAcceleration = iYAcceleration;
 2004b24:	e0fffb17 	ldw	r3,-20(fp)
 2004b28:	e0bffd0b 	ldhu	r2,-12(fp)
 2004b2c:	1880030d 	sth	r2,12(r3)
    m_iZAcceleration = iZAcceleration;
 2004b30:	e0fffb17 	ldw	r3,-20(fp)
 2004b34:	e0bffe0b 	ldhu	r2,-8(fp)
 2004b38:	1880038d 	sth	r2,14(r3)
    m_uiAccelerationFlags = uiAccelerationFlags;
 2004b3c:	e0fffb17 	ldw	r3,-20(fp)
 2004b40:	e0bfff03 	ldbu	r2,-4(fp)
 2004b44:	18800405 	stb	r2,16(r3)
    m_uiFlags = m_uiFlags | 0x01; // Set response flag
 2004b48:	e0bffb17 	ldw	r2,-20(fp)
 2004b4c:	108001c3 	ldbu	r2,7(r2)
 2004b50:	10800054 	ori	r2,r2,1
 2004b54:	1007883a 	mov	r3,r2
 2004b58:	e0bffb17 	ldw	r2,-20(fp)
 2004b5c:	10c001c5 	stb	r3,7(r2)
}
 2004b60:	e037883a 	mov	sp,fp
 2004b64:	df000017 	ldw	fp,0(sp)
 2004b68:	dec00104 	addi	sp,sp,4
 2004b6c:	f800283a 	ret

02004b70 <_ZN26CAccelerationValuesMessage9getLengthEv>:
}

/*
 * Overrided from CCarMessage.
 */
alt_u32 CAccelerationValuesMessage::getLength()
 2004b70:	defffe04 	addi	sp,sp,-8
 2004b74:	df000115 	stw	fp,4(sp)
 2004b78:	df000104 	addi	fp,sp,4
 2004b7c:	e13fff15 	stw	r4,-4(fp)
{
    return 12;
 2004b80:	00800304 	movi	r2,12
}
 2004b84:	e037883a 	mov	sp,fp
 2004b88:	df000017 	ldw	fp,0(sp)
 2004b8c:	dec00104 	addi	sp,sp,4
 2004b90:	f800283a 	ret

02004b94 <_ZN26CAccelerationValuesMessage12parseMessageEPhi>:

/*
 * Overrided from CCarMessage.
 */
void CAccelerationValuesMessage::parseMessage(alt_u8 *pMessage, int iLength)
 2004b94:	defffc04 	addi	sp,sp,-16
 2004b98:	df000315 	stw	fp,12(sp)
 2004b9c:	df000304 	addi	fp,sp,12
 2004ba0:	e13ffd15 	stw	r4,-12(fp)
 2004ba4:	e17ffe15 	stw	r5,-8(fp)
 2004ba8:	e1bfff15 	stw	r6,-4(fp)
{
    if(iLength < 8)
 2004bac:	e0bfff17 	ldw	r2,-4(fp)
 2004bb0:	10800210 	cmplti	r2,r2,8
 2004bb4:	1000311e 	bne	r2,zero,2004c7c <_ZN26CAccelerationValuesMessage12parseMessageEPhi+0xe8>
        return;

    m_iXAcceleration = ((alt_u32) pMessage[0]) << 0;
 2004bb8:	e0bffe17 	ldw	r2,-8(fp)
 2004bbc:	10800003 	ldbu	r2,0(r2)
 2004bc0:	10c03fcc 	andi	r3,r2,255
 2004bc4:	e0bffd17 	ldw	r2,-12(fp)
 2004bc8:	10c0028d 	sth	r3,10(r2)
    m_iXAcceleration = ((alt_u32) pMessage[1]) << 8;
 2004bcc:	e0bffe17 	ldw	r2,-8(fp)
 2004bd0:	10800044 	addi	r2,r2,1
 2004bd4:	10800003 	ldbu	r2,0(r2)
 2004bd8:	10803fcc 	andi	r2,r2,255
 2004bdc:	1004923a 	slli	r2,r2,8
 2004be0:	1007883a 	mov	r3,r2
 2004be4:	e0bffd17 	ldw	r2,-12(fp)
 2004be8:	10c0028d 	sth	r3,10(r2)
    m_iYAcceleration = ((alt_u32) pMessage[2]) << 0;
 2004bec:	e0bffe17 	ldw	r2,-8(fp)
 2004bf0:	10800084 	addi	r2,r2,2
 2004bf4:	10800003 	ldbu	r2,0(r2)
 2004bf8:	10c03fcc 	andi	r3,r2,255
 2004bfc:	e0bffd17 	ldw	r2,-12(fp)
 2004c00:	10c0030d 	sth	r3,12(r2)
    m_iYAcceleration = ((alt_u32) pMessage[3]) << 8;
 2004c04:	e0bffe17 	ldw	r2,-8(fp)
 2004c08:	108000c4 	addi	r2,r2,3
 2004c0c:	10800003 	ldbu	r2,0(r2)
 2004c10:	10803fcc 	andi	r2,r2,255
 2004c14:	1004923a 	slli	r2,r2,8
 2004c18:	1007883a 	mov	r3,r2
 2004c1c:	e0bffd17 	ldw	r2,-12(fp)
 2004c20:	10c0030d 	sth	r3,12(r2)
    m_iZAcceleration = ((alt_u32) pMessage[4]) << 0;
 2004c24:	e0bffe17 	ldw	r2,-8(fp)
 2004c28:	10800104 	addi	r2,r2,4
 2004c2c:	10800003 	ldbu	r2,0(r2)
 2004c30:	10c03fcc 	andi	r3,r2,255
 2004c34:	e0bffd17 	ldw	r2,-12(fp)
 2004c38:	10c0038d 	sth	r3,14(r2)
    m_iZAcceleration = ((alt_u32) pMessage[5]) << 8;
 2004c3c:	e0bffe17 	ldw	r2,-8(fp)
 2004c40:	10800144 	addi	r2,r2,5
 2004c44:	10800003 	ldbu	r2,0(r2)
 2004c48:	10803fcc 	andi	r2,r2,255
 2004c4c:	1004923a 	slli	r2,r2,8
 2004c50:	1007883a 	mov	r3,r2
 2004c54:	e0bffd17 	ldw	r2,-12(fp)
 2004c58:	10c0038d 	sth	r3,14(r2)
    m_uiAccelerationFlags = pMessage[7];
 2004c5c:	e0bffe17 	ldw	r2,-8(fp)
 2004c60:	108001c4 	addi	r2,r2,7
 2004c64:	10c00003 	ldbu	r3,0(r2)
 2004c68:	e0bffd17 	ldw	r2,-12(fp)
 2004c6c:	10c00405 	stb	r3,16(r2)

    m_bValid = true;
 2004c70:	e0fffd17 	ldw	r3,-12(fp)
 2004c74:	00800044 	movi	r2,1
 2004c78:	18800205 	stb	r2,8(r3)

}
 2004c7c:	e037883a 	mov	sp,fp
 2004c80:	df000017 	ldw	fp,0(sp)
 2004c84:	dec00104 	addi	sp,sp,4
 2004c88:	f800283a 	ret

02004c8c <_ZN26CAccelerationValuesMessage8getBytesEPh>:
}

/*
 * Overrided from CCarMessage.
 */
bool CAccelerationValuesMessage::getBytes(alt_u8 *pMessage)
 2004c8c:	defffc04 	addi	sp,sp,-16
 2004c90:	dfc00315 	stw	ra,12(sp)
 2004c94:	df000215 	stw	fp,8(sp)
 2004c98:	df000204 	addi	fp,sp,8
 2004c9c:	e13ffe15 	stw	r4,-8(fp)
 2004ca0:	e17fff15 	stw	r5,-4(fp)
{
    CCarMessage::getBytes(pMessage);
 2004ca4:	e13ffe17 	ldw	r4,-8(fp)
 2004ca8:	e17fff17 	ldw	r5,-4(fp)
 2004cac:	2006e800 	call	2006e80 <_ZN11CCarMessage8getBytesEPh>

    pMessage[4] = (m_iXAcceleration >> 0) & 0xFF;
 2004cb0:	e0bfff17 	ldw	r2,-4(fp)
 2004cb4:	11000104 	addi	r4,r2,4
 2004cb8:	e0bffe17 	ldw	r2,-8(fp)
 2004cbc:	1080028b 	ldhu	r2,10(r2)
 2004cc0:	1007883a 	mov	r3,r2
 2004cc4:	00bfffc4 	movi	r2,-1
 2004cc8:	1884703a 	and	r2,r3,r2
 2004ccc:	20800005 	stb	r2,0(r4)
    pMessage[5] += (m_iXAcceleration >> 8) & 0xFF;
 2004cd0:	e0bfff17 	ldw	r2,-4(fp)
 2004cd4:	11000144 	addi	r4,r2,5
 2004cd8:	e0bfff17 	ldw	r2,-4(fp)
 2004cdc:	10800144 	addi	r2,r2,5
 2004ce0:	11400003 	ldbu	r5,0(r2)
 2004ce4:	e0bffe17 	ldw	r2,-8(fp)
 2004ce8:	1080028b 	ldhu	r2,10(r2)
 2004cec:	10bfffcc 	andi	r2,r2,65535
 2004cf0:	10a0001c 	xori	r2,r2,32768
 2004cf4:	10a00004 	addi	r2,r2,-32768
 2004cf8:	1005d23a 	srai	r2,r2,8
 2004cfc:	1007883a 	mov	r3,r2
 2004d00:	00bfffc4 	movi	r2,-1
 2004d04:	1884703a 	and	r2,r3,r2
 2004d08:	2885883a 	add	r2,r5,r2
 2004d0c:	20800005 	stb	r2,0(r4)
    pMessage[6] = (m_iYAcceleration >> 0) & 0xFF;
 2004d10:	e0bfff17 	ldw	r2,-4(fp)
 2004d14:	11000184 	addi	r4,r2,6
 2004d18:	e0bffe17 	ldw	r2,-8(fp)
 2004d1c:	1080030b 	ldhu	r2,12(r2)
 2004d20:	1007883a 	mov	r3,r2
 2004d24:	00bfffc4 	movi	r2,-1
 2004d28:	1884703a 	and	r2,r3,r2
 2004d2c:	20800005 	stb	r2,0(r4)
    pMessage[7] += (m_iYAcceleration >> 8) & 0xFF;
 2004d30:	e0bfff17 	ldw	r2,-4(fp)
 2004d34:	110001c4 	addi	r4,r2,7
 2004d38:	e0bfff17 	ldw	r2,-4(fp)
 2004d3c:	108001c4 	addi	r2,r2,7
 2004d40:	11400003 	ldbu	r5,0(r2)
 2004d44:	e0bffe17 	ldw	r2,-8(fp)
 2004d48:	1080030b 	ldhu	r2,12(r2)
 2004d4c:	10bfffcc 	andi	r2,r2,65535
 2004d50:	10a0001c 	xori	r2,r2,32768
 2004d54:	10a00004 	addi	r2,r2,-32768
 2004d58:	1005d23a 	srai	r2,r2,8
 2004d5c:	1007883a 	mov	r3,r2
 2004d60:	00bfffc4 	movi	r2,-1
 2004d64:	1884703a 	and	r2,r3,r2
 2004d68:	2885883a 	add	r2,r5,r2
 2004d6c:	20800005 	stb	r2,0(r4)
    pMessage[8] = (m_iZAcceleration >> 0) & 0xFF;
 2004d70:	e0bfff17 	ldw	r2,-4(fp)
 2004d74:	11000204 	addi	r4,r2,8
 2004d78:	e0bffe17 	ldw	r2,-8(fp)
 2004d7c:	1080038b 	ldhu	r2,14(r2)
 2004d80:	1007883a 	mov	r3,r2
 2004d84:	00bfffc4 	movi	r2,-1
 2004d88:	1884703a 	and	r2,r3,r2
 2004d8c:	20800005 	stb	r2,0(r4)
    pMessage[9] += (m_iZAcceleration >> 8) & 0xFF;
 2004d90:	e0bfff17 	ldw	r2,-4(fp)
 2004d94:	11000244 	addi	r4,r2,9
 2004d98:	e0bfff17 	ldw	r2,-4(fp)
 2004d9c:	10800244 	addi	r2,r2,9
 2004da0:	11400003 	ldbu	r5,0(r2)
 2004da4:	e0bffe17 	ldw	r2,-8(fp)
 2004da8:	1080038b 	ldhu	r2,14(r2)
 2004dac:	10bfffcc 	andi	r2,r2,65535
 2004db0:	10a0001c 	xori	r2,r2,32768
 2004db4:	10a00004 	addi	r2,r2,-32768
 2004db8:	1005d23a 	srai	r2,r2,8
 2004dbc:	1007883a 	mov	r3,r2
 2004dc0:	00bfffc4 	movi	r2,-1
 2004dc4:	1884703a 	and	r2,r3,r2
 2004dc8:	2885883a 	add	r2,r5,r2
 2004dcc:	20800005 	stb	r2,0(r4)
    pMessage[10] = 0;
 2004dd0:	e0bfff17 	ldw	r2,-4(fp)
 2004dd4:	10800284 	addi	r2,r2,10
 2004dd8:	10000005 	stb	zero,0(r2)
    pMessage[11] = m_uiAccelerationFlags;
 2004ddc:	e0bfff17 	ldw	r2,-4(fp)
 2004de0:	10c002c4 	addi	r3,r2,11
 2004de4:	e0bffe17 	ldw	r2,-8(fp)
 2004de8:	10800403 	ldbu	r2,16(r2)
 2004dec:	18800005 	stb	r2,0(r3)
    return m_bValid;
 2004df0:	e0bffe17 	ldw	r2,-8(fp)
 2004df4:	10800203 	ldbu	r2,8(r2)
 2004df8:	10803fcc 	andi	r2,r2,255
}
 2004dfc:	e037883a 	mov	sp,fp
 2004e00:	dfc00117 	ldw	ra,4(sp)
 2004e04:	df000017 	ldw	fp,0(sp)
 2004e08:	dec00204 	addi	sp,sp,8
 2004e0c:	f800283a 	ret

02004e10 <_ZN26CAccelerationValuesMessage8doActionEv>:
}

/*
 * Overrided from CCarMessage.
 */
void CAccelerationValuesMessage::doAction()
 2004e10:	defffa04 	addi	sp,sp,-24
 2004e14:	dfc00515 	stw	ra,20(sp)
 2004e18:	df000415 	stw	fp,16(sp)
 2004e1c:	df000404 	addi	fp,sp,16
 2004e20:	e13fff15 	stw	r4,-4(fp)
{
	alt_16 iAcceleration[3];
	bool bAccelerationValid = false;
 2004e24:	e03ffd05 	stb	zero,-12(fp)

#ifndef CENTRAL_ECU_BUILD
	bAccelerationValid = getAcceleration(iAcceleration);
 2004e28:	e13ffd84 	addi	r4,fp,-10
 2004e2c:	20002f80 	call	20002f8 <_Z15getAccelerationPs>
 2004e30:	e0bffd05 	stb	r2,-12(fp)
	if(bAccelerationValid)
 2004e34:	e0bffd03 	ldbu	r2,-12(fp)
 2004e38:	1005003a 	cmpeq	r2,r2,zero
 2004e3c:	1000111e 	bne	r2,zero,2004e84 <_ZN26CAccelerationValuesMessage8doActionEv+0x74>
		answerMessage(iAcceleration[0], iAcceleration[1], iAcceleration[2], 0x01);
 2004e40:	e0bffd8b 	ldhu	r2,-10(fp)
 2004e44:	117fffcc 	andi	r5,r2,65535
 2004e48:	2960001c 	xori	r5,r5,32768
 2004e4c:	29600004 	addi	r5,r5,-32768
 2004e50:	e0bffe0b 	ldhu	r2,-8(fp)
 2004e54:	11bfffcc 	andi	r6,r2,65535
 2004e58:	31a0001c 	xori	r6,r6,32768
 2004e5c:	31a00004 	addi	r6,r6,-32768
 2004e60:	e0bffe8b 	ldhu	r2,-6(fp)
 2004e64:	11ffffcc 	andi	r7,r2,65535
 2004e68:	39e0001c 	xori	r7,r7,32768
 2004e6c:	39e00004 	addi	r7,r7,-32768
 2004e70:	00800044 	movi	r2,1
 2004e74:	d8800015 	stw	r2,0(sp)
 2004e78:	e13fff17 	ldw	r4,-4(fp)
 2004e7c:	2004af40 	call	2004af4 <_ZN26CAccelerationValuesMessage13answerMessageEsssh>
 2004e80:	00000f06 	br	2004ec0 <_ZN26CAccelerationValuesMessage8doActionEv+0xb0>
	else
		answerMessage(iAcceleration[0], iAcceleration[1], iAcceleration[2], 0x00);
 2004e84:	e0bffd8b 	ldhu	r2,-10(fp)
 2004e88:	117fffcc 	andi	r5,r2,65535
 2004e8c:	2960001c 	xori	r5,r5,32768
 2004e90:	29600004 	addi	r5,r5,-32768
 2004e94:	e0bffe0b 	ldhu	r2,-8(fp)
 2004e98:	11bfffcc 	andi	r6,r2,65535
 2004e9c:	31a0001c 	xori	r6,r6,32768
 2004ea0:	31a00004 	addi	r6,r6,-32768
 2004ea4:	e0bffe8b 	ldhu	r2,-6(fp)
 2004ea8:	11ffffcc 	andi	r7,r2,65535
 2004eac:	39e0001c 	xori	r7,r7,32768
 2004eb0:	39e00004 	addi	r7,r7,-32768
 2004eb4:	d8000015 	stw	zero,0(sp)
 2004eb8:	e13fff17 	ldw	r4,-4(fp)
 2004ebc:	2004af40 	call	2004af4 <_ZN26CAccelerationValuesMessage13answerMessageEsssh>
#endif /* CENTRAL_ECU_BUILD */

}
 2004ec0:	e037883a 	mov	sp,fp
 2004ec4:	dfc00117 	ldw	ra,4(sp)
 2004ec8:	df000017 	ldw	fp,0(sp)
 2004ecc:	dec00204 	addi	sp,sp,8
 2004ed0:	f800283a 	ret

02004ed4 <_ZN26CAccelerationValuesMessageD0Ev>:
}

/*
 * Basic Destructor.
 */
CAccelerationValuesMessage::~CAccelerationValuesMessage()
 2004ed4:	defffd04 	addi	sp,sp,-12
 2004ed8:	dfc00215 	stw	ra,8(sp)
 2004edc:	df000115 	stw	fp,4(sp)
 2004ee0:	df000104 	addi	fp,sp,4
 2004ee4:	e13fff15 	stw	r4,-4(fp)
 2004ee8:	00c08074 	movhi	r3,513
 2004eec:	18c98c04 	addi	r3,r3,9776
 2004ef0:	e0bfff17 	ldw	r2,-4(fp)
 2004ef4:	10c00015 	stw	r3,0(r2)
{
}
 2004ef8:	e13fff17 	ldw	r4,-4(fp)
 2004efc:	20073b40 	call	20073b4 <_ZN11CCarMessageD2Ev>
 2004f00:	00800044 	movi	r2,1
 2004f04:	10803fcc 	andi	r2,r2,255
 2004f08:	1005003a 	cmpeq	r2,r2,zero
 2004f0c:	1000021e 	bne	r2,zero,2004f18 <_ZN26CAccelerationValuesMessageD0Ev+0x44>
 2004f10:	e13fff17 	ldw	r4,-4(fp)
 2004f14:	200bc9c0 	call	200bc9c <_ZdlPv>
 2004f18:	e037883a 	mov	sp,fp
 2004f1c:	dfc00117 	ldw	ra,4(sp)
 2004f20:	df000017 	ldw	fp,0(sp)
 2004f24:	dec00204 	addi	sp,sp,8
 2004f28:	f800283a 	ret

02004f2c <_ZN26CAccelerationValuesMessageD1Ev>:
}

/*
 * Basic Destructor.
 */
CAccelerationValuesMessage::~CAccelerationValuesMessage()
 2004f2c:	defffd04 	addi	sp,sp,-12
 2004f30:	dfc00215 	stw	ra,8(sp)
 2004f34:	df000115 	stw	fp,4(sp)
 2004f38:	df000104 	addi	fp,sp,4
 2004f3c:	e13fff15 	stw	r4,-4(fp)
 2004f40:	00c08074 	movhi	r3,513
 2004f44:	18c98c04 	addi	r3,r3,9776
 2004f48:	e0bfff17 	ldw	r2,-4(fp)
 2004f4c:	10c00015 	stw	r3,0(r2)
{
}
 2004f50:	e13fff17 	ldw	r4,-4(fp)
 2004f54:	20073b40 	call	20073b4 <_ZN11CCarMessageD2Ev>
 2004f58:	0005883a 	mov	r2,zero
 2004f5c:	10803fcc 	andi	r2,r2,255
 2004f60:	1005003a 	cmpeq	r2,r2,zero
 2004f64:	1000021e 	bne	r2,zero,2004f70 <_ZN26CAccelerationValuesMessageD1Ev+0x44>
 2004f68:	e13fff17 	ldw	r4,-4(fp)
 2004f6c:	200bc9c0 	call	200bc9c <_ZdlPv>
 2004f70:	e037883a 	mov	sp,fp
 2004f74:	dfc00117 	ldw	ra,4(sp)
 2004f78:	df000017 	ldw	fp,0(sp)
 2004f7c:	dec00204 	addi	sp,sp,8
 2004f80:	f800283a 	ret

02004f84 <_ZN26CAccelerationValuesMessageD2Ev>:
}

/*
 * Basic Destructor.
 */
CAccelerationValuesMessage::~CAccelerationValuesMessage()
 2004f84:	defffd04 	addi	sp,sp,-12
 2004f88:	dfc00215 	stw	ra,8(sp)
 2004f8c:	df000115 	stw	fp,4(sp)
 2004f90:	df000104 	addi	fp,sp,4
 2004f94:	e13fff15 	stw	r4,-4(fp)
 2004f98:	00c08074 	movhi	r3,513
 2004f9c:	18c98c04 	addi	r3,r3,9776
 2004fa0:	e0bfff17 	ldw	r2,-4(fp)
 2004fa4:	10c00015 	stw	r3,0(r2)
{
}
 2004fa8:	e13fff17 	ldw	r4,-4(fp)
 2004fac:	20073b40 	call	20073b4 <_ZN11CCarMessageD2Ev>
 2004fb0:	0005883a 	mov	r2,zero
 2004fb4:	10803fcc 	andi	r2,r2,255
 2004fb8:	1005003a 	cmpeq	r2,r2,zero
 2004fbc:	1000021e 	bne	r2,zero,2004fc8 <_ZN26CAccelerationValuesMessageD2Ev+0x44>
 2004fc0:	e13fff17 	ldw	r4,-4(fp)
 2004fc4:	200bc9c0 	call	200bc9c <_ZdlPv>
 2004fc8:	e037883a 	mov	sp,fp
 2004fcc:	dfc00117 	ldw	ra,4(sp)
 2004fd0:	df000017 	ldw	fp,0(sp)
 2004fd4:	dec00204 	addi	sp,sp,8
 2004fd8:	f800283a 	ret

02004fdc <_ZN26CAccelerationValuesMessageC1EPhi>:
/*
 * Constructor. Used to reassemble object from Byte stream.
 * pMessage : Byte-Array containing the fields of the subMessage
 * iLength  : Length of the said array
 */
CAccelerationValuesMessage::CAccelerationValuesMessage(alt_u8 *pMessage, int iLength)
 2004fdc:	deffe404 	addi	sp,sp,-112
 2004fe0:	dfc01b15 	stw	ra,108(sp)
 2004fe4:	df001a15 	stw	fp,104(sp)
 2004fe8:	ddc01915 	stw	r23,100(sp)
 2004fec:	dd801815 	stw	r22,96(sp)
 2004ff0:	dd401715 	stw	r21,92(sp)
 2004ff4:	dd001615 	stw	r20,88(sp)
 2004ff8:	dcc01515 	stw	r19,84(sp)
 2004ffc:	dc801415 	stw	r18,80(sp)
 2005000:	dc401315 	stw	r17,76(sp)
 2005004:	dc001215 	stw	r16,72(sp)
 2005008:	df001204 	addi	fp,sp,72
 200500c:	e13fee15 	stw	r4,-72(fp)
 2005010:	e17fef15 	stw	r5,-68(fp)
 2005014:	e1bff015 	stw	r6,-64(fp)
 2005018:	00808074 	movhi	r2,513
 200501c:	10adca04 	addi	r2,r2,-18648
 2005020:	e0bff715 	stw	r2,-36(fp)
 2005024:	00808074 	movhi	r2,513
 2005028:	10891a84 	addi	r2,r2,9322
 200502c:	e0bff815 	stw	r2,-32(fp)
 2005030:	e0bff904 	addi	r2,fp,-28
 2005034:	e0ffee04 	addi	r3,fp,-72
 2005038:	10c00015 	stw	r3,0(r2)
 200503c:	00c08034 	movhi	r3,512
 2005040:	18d43104 	addi	r3,r3,20676
 2005044:	10c00115 	stw	r3,4(r2)
 2005048:	16c00215 	stw	sp,8(r2)
 200504c:	e13ff104 	addi	r4,fp,-60
 2005050:	200d0800 	call	200d080 <_Unwind_SjLj_Register>
 2005054:	e13fee17 	ldw	r4,-72(fp)
 2005058:	00bfffc4 	movi	r2,-1
 200505c:	e0bff215 	stw	r2,-56(fp)
 2005060:	2006df00 	call	2006df0 <_ZN11CCarMessageC2Ev>
 2005064:	00c08074 	movhi	r3,513
 2005068:	18c98c04 	addi	r3,r3,9776
 200506c:	e0bfee17 	ldw	r2,-72(fp)
 2005070:	10c00015 	stw	r3,0(r2)
{
    parseHeader(pMessage, iLength);
 2005074:	e13fee17 	ldw	r4,-72(fp)
 2005078:	00800044 	movi	r2,1
 200507c:	e0bff215 	stw	r2,-56(fp)
 2005080:	e17fef17 	ldw	r5,-68(fp)
 2005084:	e1bff017 	ldw	r6,-64(fp)
 2005088:	20071480 	call	2007148 <_ZN11CCarMessage11parseHeaderEPhi>
    if(m_bValid)
 200508c:	e0bfee17 	ldw	r2,-72(fp)
 2005090:	10800203 	ldbu	r2,8(r2)
 2005094:	10803fcc 	andi	r2,r2,255
 2005098:	1005003a 	cmpeq	r2,r2,zero
 200509c:	1000171e 	bne	r2,zero,20050fc <_ZN26CAccelerationValuesMessageC1EPhi+0x120>
    {
        m_bValid = false;
 20050a0:	e0bfee17 	ldw	r2,-72(fp)
 20050a4:	10000205 	stb	zero,8(r2)
        parseMessage(pMessage+4, iLength-4);
 20050a8:	e0bfef17 	ldw	r2,-68(fp)
 20050ac:	11400104 	addi	r5,r2,4
 20050b0:	e0bff017 	ldw	r2,-64(fp)
 20050b4:	11bfff04 	addi	r6,r2,-4
 20050b8:	e13fee17 	ldw	r4,-72(fp)
 20050bc:	2004b940 	call	2004b94 <_ZN26CAccelerationValuesMessage12parseMessageEPhi>
    }

}
 20050c0:	00000e06 	br	20050fc <_ZN26CAccelerationValuesMessageC1EPhi+0x120>
 20050c4:	e7001204 	addi	fp,fp,72
 20050c8:	e0bff317 	ldw	r2,-52(fp)
 20050cc:	e0bfff15 	stw	r2,-4(fp)
 20050d0:	e0ffff17 	ldw	r3,-4(fp)
 20050d4:	e0fffe15 	stw	r3,-8(fp)
 20050d8:	e13fee17 	ldw	r4,-72(fp)
 20050dc:	e03ff215 	stw	zero,-56(fp)
 20050e0:	20073b40 	call	20073b4 <_ZN11CCarMessageD2Ev>
 20050e4:	e0bffe17 	ldw	r2,-8(fp)
 20050e8:	e0bfff15 	stw	r2,-4(fp)
 20050ec:	00bfffc4 	movi	r2,-1
 20050f0:	e0bff215 	stw	r2,-56(fp)
 20050f4:	e13fff17 	ldw	r4,-4(fp)
 20050f8:	200d34c0 	call	200d34c <_Unwind_SjLj_Resume>
 20050fc:	e13ff104 	addi	r4,fp,-60
 2005100:	200d0900 	call	200d090 <_Unwind_SjLj_Unregister>
 2005104:	e037883a 	mov	sp,fp
 2005108:	dfc00917 	ldw	ra,36(sp)
 200510c:	df000817 	ldw	fp,32(sp)
 2005110:	ddc00717 	ldw	r23,28(sp)
 2005114:	dd800617 	ldw	r22,24(sp)
 2005118:	dd400517 	ldw	r21,20(sp)
 200511c:	dd000417 	ldw	r20,16(sp)
 2005120:	dcc00317 	ldw	r19,12(sp)
 2005124:	dc800217 	ldw	r18,8(sp)
 2005128:	dc400117 	ldw	r17,4(sp)
 200512c:	dc000017 	ldw	r16,0(sp)
 2005130:	dec00a04 	addi	sp,sp,40
 2005134:	f800283a 	ret

02005138 <_ZN26CAccelerationValuesMessageC2EPhi>:
/*
 * Constructor. Used to reassemble object from Byte stream.
 * pMessage : Byte-Array containing the fields of the subMessage
 * iLength  : Length of the said array
 */
CAccelerationValuesMessage::CAccelerationValuesMessage(alt_u8 *pMessage, int iLength)
 2005138:	deffe404 	addi	sp,sp,-112
 200513c:	dfc01b15 	stw	ra,108(sp)
 2005140:	df001a15 	stw	fp,104(sp)
 2005144:	ddc01915 	stw	r23,100(sp)
 2005148:	dd801815 	stw	r22,96(sp)
 200514c:	dd401715 	stw	r21,92(sp)
 2005150:	dd001615 	stw	r20,88(sp)
 2005154:	dcc01515 	stw	r19,84(sp)
 2005158:	dc801415 	stw	r18,80(sp)
 200515c:	dc401315 	stw	r17,76(sp)
 2005160:	dc001215 	stw	r16,72(sp)
 2005164:	df001204 	addi	fp,sp,72
 2005168:	e13fee15 	stw	r4,-72(fp)
 200516c:	e17fef15 	stw	r5,-68(fp)
 2005170:	e1bff015 	stw	r6,-64(fp)
 2005174:	00808074 	movhi	r2,513
 2005178:	10adca04 	addi	r2,r2,-18648
 200517c:	e0bff715 	stw	r2,-36(fp)
 2005180:	00808074 	movhi	r2,513
 2005184:	10891c04 	addi	r2,r2,9328
 2005188:	e0bff815 	stw	r2,-32(fp)
 200518c:	e0bff904 	addi	r2,fp,-28
 2005190:	e0ffee04 	addi	r3,fp,-72
 2005194:	10c00015 	stw	r3,0(r2)
 2005198:	00c08034 	movhi	r3,512
 200519c:	18d48804 	addi	r3,r3,21024
 20051a0:	10c00115 	stw	r3,4(r2)
 20051a4:	16c00215 	stw	sp,8(r2)
 20051a8:	e13ff104 	addi	r4,fp,-60
 20051ac:	200d0800 	call	200d080 <_Unwind_SjLj_Register>
 20051b0:	e13fee17 	ldw	r4,-72(fp)
 20051b4:	00bfffc4 	movi	r2,-1
 20051b8:	e0bff215 	stw	r2,-56(fp)
 20051bc:	2006df00 	call	2006df0 <_ZN11CCarMessageC2Ev>
 20051c0:	00c08074 	movhi	r3,513
 20051c4:	18c98c04 	addi	r3,r3,9776
 20051c8:	e0bfee17 	ldw	r2,-72(fp)
 20051cc:	10c00015 	stw	r3,0(r2)
{
    parseHeader(pMessage, iLength);
 20051d0:	e13fee17 	ldw	r4,-72(fp)
 20051d4:	00800044 	movi	r2,1
 20051d8:	e0bff215 	stw	r2,-56(fp)
 20051dc:	e17fef17 	ldw	r5,-68(fp)
 20051e0:	e1bff017 	ldw	r6,-64(fp)
 20051e4:	20071480 	call	2007148 <_ZN11CCarMessage11parseHeaderEPhi>
    if(m_bValid)
 20051e8:	e0bfee17 	ldw	r2,-72(fp)
 20051ec:	10800203 	ldbu	r2,8(r2)
 20051f0:	10803fcc 	andi	r2,r2,255
 20051f4:	1005003a 	cmpeq	r2,r2,zero
 20051f8:	1000171e 	bne	r2,zero,2005258 <_ZN26CAccelerationValuesMessageC2EPhi+0x120>
    {
        m_bValid = false;
 20051fc:	e0bfee17 	ldw	r2,-72(fp)
 2005200:	10000205 	stb	zero,8(r2)
        parseMessage(pMessage+4, iLength-4);
 2005204:	e0bfef17 	ldw	r2,-68(fp)
 2005208:	11400104 	addi	r5,r2,4
 200520c:	e0bff017 	ldw	r2,-64(fp)
 2005210:	11bfff04 	addi	r6,r2,-4
 2005214:	e13fee17 	ldw	r4,-72(fp)
 2005218:	2004b940 	call	2004b94 <_ZN26CAccelerationValuesMessage12parseMessageEPhi>
    }

}
 200521c:	00000e06 	br	2005258 <_ZN26CAccelerationValuesMessageC2EPhi+0x120>
 2005220:	e7001204 	addi	fp,fp,72
 2005224:	e0bff317 	ldw	r2,-52(fp)
 2005228:	e0bfff15 	stw	r2,-4(fp)
 200522c:	e0ffff17 	ldw	r3,-4(fp)
 2005230:	e0fffe15 	stw	r3,-8(fp)
 2005234:	e13fee17 	ldw	r4,-72(fp)
 2005238:	e03ff215 	stw	zero,-56(fp)
 200523c:	20073b40 	call	20073b4 <_ZN11CCarMessageD2Ev>
 2005240:	e0bffe17 	ldw	r2,-8(fp)
 2005244:	e0bfff15 	stw	r2,-4(fp)
 2005248:	00bfffc4 	movi	r2,-1
 200524c:	e0bff215 	stw	r2,-56(fp)
 2005250:	e13fff17 	ldw	r4,-4(fp)
 2005254:	200d34c0 	call	200d34c <_Unwind_SjLj_Resume>
 2005258:	e13ff104 	addi	r4,fp,-60
 200525c:	200d0900 	call	200d090 <_Unwind_SjLj_Unregister>
 2005260:	e037883a 	mov	sp,fp
 2005264:	dfc00917 	ldw	ra,36(sp)
 2005268:	df000817 	ldw	fp,32(sp)
 200526c:	ddc00717 	ldw	r23,28(sp)
 2005270:	dd800617 	ldw	r22,24(sp)
 2005274:	dd400517 	ldw	r21,20(sp)
 2005278:	dd000417 	ldw	r20,16(sp)
 200527c:	dcc00317 	ldw	r19,12(sp)
 2005280:	dc800217 	ldw	r18,8(sp)
 2005284:	dc400117 	ldw	r17,4(sp)
 2005288:	dc000017 	ldw	r16,0(sp)
 200528c:	dec00a04 	addi	sp,sp,40
 2005290:	f800283a 	ret

02005294 <_ZN26CAccelerationValuesMessageC1Ev>:
// Import Interfaces

/*
 * Basic Constructor. Used to initialise new message-objects.
 */
CAccelerationValuesMessage::CAccelerationValuesMessage()
 2005294:	deffe504 	addi	sp,sp,-108
 2005298:	dfc01a15 	stw	ra,104(sp)
 200529c:	df001915 	stw	fp,100(sp)
 20052a0:	ddc01815 	stw	r23,96(sp)
 20052a4:	dd801715 	stw	r22,92(sp)
 20052a8:	dd401615 	stw	r21,88(sp)
 20052ac:	dd001515 	stw	r20,84(sp)
 20052b0:	dcc01415 	stw	r19,80(sp)
 20052b4:	dc801315 	stw	r18,76(sp)
 20052b8:	dc401215 	stw	r17,72(sp)
 20052bc:	dc001115 	stw	r16,68(sp)
 20052c0:	df001104 	addi	fp,sp,68
 20052c4:	e13fef15 	stw	r4,-68(fp)
 20052c8:	00808074 	movhi	r2,513
 20052cc:	10adca04 	addi	r2,r2,-18648
 20052d0:	e0bff615 	stw	r2,-40(fp)
 20052d4:	00808074 	movhi	r2,513
 20052d8:	10891d84 	addi	r2,r2,9334
 20052dc:	e0bff715 	stw	r2,-36(fp)
 20052e0:	e0bff804 	addi	r2,fp,-32
 20052e4:	e0ffef04 	addi	r3,fp,-68
 20052e8:	10c00015 	stw	r3,0(r2)
 20052ec:	00c08034 	movhi	r3,512
 20052f0:	18d4dd04 	addi	r3,r3,21364
 20052f4:	10c00115 	stw	r3,4(r2)
 20052f8:	16c00215 	stw	sp,8(r2)
 20052fc:	e13ff004 	addi	r4,fp,-64
 2005300:	200d0800 	call	200d080 <_Unwind_SjLj_Register>
 2005304:	e13fef17 	ldw	r4,-68(fp)
 2005308:	00bfffc4 	movi	r2,-1
 200530c:	e0bff115 	stw	r2,-60(fp)
 2005310:	2006df00 	call	2006df0 <_ZN11CCarMessageC2Ev>
 2005314:	00c08074 	movhi	r3,513
 2005318:	18c98c04 	addi	r3,r3,9776
 200531c:	e0bfef17 	ldw	r2,-68(fp)
 2005320:	10c00015 	stw	r3,0(r2)
{
    setHeader(9, getLength(), 0);
 2005324:	e0bfef17 	ldw	r2,-68(fp)
 2005328:	e0bffe15 	stw	r2,-8(fp)
 200532c:	e13fef17 	ldw	r4,-68(fp)
 2005330:	2004b700 	call	2004b70 <_ZN26CAccelerationValuesMessage9getLengthEv>
 2005334:	11803fcc 	andi	r6,r2,255
 2005338:	00800044 	movi	r2,1
 200533c:	e0bff115 	stw	r2,-60(fp)
 2005340:	e13ffe17 	ldw	r4,-8(fp)
 2005344:	01400244 	movi	r5,9
 2005348:	000f883a 	mov	r7,zero
 200534c:	2006fc40 	call	2006fc4 <_ZN11CCarMessage9setHeaderEhhb>

    m_iXAcceleration = 0;
 2005350:	e0bfef17 	ldw	r2,-68(fp)
 2005354:	1000028d 	sth	zero,10(r2)
	m_iYAcceleration = 0;
 2005358:	e0bfef17 	ldw	r2,-68(fp)
 200535c:	1000030d 	sth	zero,12(r2)
	m_iZAcceleration = 0;
 2005360:	e0bfef17 	ldw	r2,-68(fp)
 2005364:	1000038d 	sth	zero,14(r2)

	m_uiAccelerationFlags = 0;
 2005368:	e0bfef17 	ldw	r2,-68(fp)
 200536c:	10000405 	stb	zero,16(r2)
}
 2005370:	00000e06 	br	20053ac <_ZN26CAccelerationValuesMessageC1Ev+0x118>
 2005374:	e7001104 	addi	fp,fp,68
 2005378:	e0fff217 	ldw	r3,-56(fp)
 200537c:	e0ffff15 	stw	r3,-4(fp)
 2005380:	e0bfff17 	ldw	r2,-4(fp)
 2005384:	e0bffd15 	stw	r2,-12(fp)
 2005388:	e13fef17 	ldw	r4,-68(fp)
 200538c:	e03ff115 	stw	zero,-60(fp)
 2005390:	20073b40 	call	20073b4 <_ZN11CCarMessageD2Ev>
 2005394:	e0fffd17 	ldw	r3,-12(fp)
 2005398:	e0ffff15 	stw	r3,-4(fp)
 200539c:	00bfffc4 	movi	r2,-1
 20053a0:	e0bff115 	stw	r2,-60(fp)
 20053a4:	e13fff17 	ldw	r4,-4(fp)
 20053a8:	200d34c0 	call	200d34c <_Unwind_SjLj_Resume>
 20053ac:	e13ff004 	addi	r4,fp,-64
 20053b0:	200d0900 	call	200d090 <_Unwind_SjLj_Unregister>
 20053b4:	e037883a 	mov	sp,fp
 20053b8:	dfc00917 	ldw	ra,36(sp)
 20053bc:	df000817 	ldw	fp,32(sp)
 20053c0:	ddc00717 	ldw	r23,28(sp)
 20053c4:	dd800617 	ldw	r22,24(sp)
 20053c8:	dd400517 	ldw	r21,20(sp)
 20053cc:	dd000417 	ldw	r20,16(sp)
 20053d0:	dcc00317 	ldw	r19,12(sp)
 20053d4:	dc800217 	ldw	r18,8(sp)
 20053d8:	dc400117 	ldw	r17,4(sp)
 20053dc:	dc000017 	ldw	r16,0(sp)
 20053e0:	dec00a04 	addi	sp,sp,40
 20053e4:	f800283a 	ret

020053e8 <_ZN26CAccelerationValuesMessageC2Ev>:
// Import Interfaces

/*
 * Basic Constructor. Used to initialise new message-objects.
 */
CAccelerationValuesMessage::CAccelerationValuesMessage()
 20053e8:	deffe504 	addi	sp,sp,-108
 20053ec:	dfc01a15 	stw	ra,104(sp)
 20053f0:	df001915 	stw	fp,100(sp)
 20053f4:	ddc01815 	stw	r23,96(sp)
 20053f8:	dd801715 	stw	r22,92(sp)
 20053fc:	dd401615 	stw	r21,88(sp)
 2005400:	dd001515 	stw	r20,84(sp)
 2005404:	dcc01415 	stw	r19,80(sp)
 2005408:	dc801315 	stw	r18,76(sp)
 200540c:	dc401215 	stw	r17,72(sp)
 2005410:	dc001115 	stw	r16,68(sp)
 2005414:	df001104 	addi	fp,sp,68
 2005418:	e13fef15 	stw	r4,-68(fp)
 200541c:	00808074 	movhi	r2,513
 2005420:	10adca04 	addi	r2,r2,-18648
 2005424:	e0bff615 	stw	r2,-40(fp)
 2005428:	00808074 	movhi	r2,513
 200542c:	10891f04 	addi	r2,r2,9340
 2005430:	e0bff715 	stw	r2,-36(fp)
 2005434:	e0bff804 	addi	r2,fp,-32
 2005438:	e0ffef04 	addi	r3,fp,-68
 200543c:	10c00015 	stw	r3,0(r2)
 2005440:	00c08034 	movhi	r3,512
 2005444:	18d53204 	addi	r3,r3,21704
 2005448:	10c00115 	stw	r3,4(r2)
 200544c:	16c00215 	stw	sp,8(r2)
 2005450:	e13ff004 	addi	r4,fp,-64
 2005454:	200d0800 	call	200d080 <_Unwind_SjLj_Register>
 2005458:	e13fef17 	ldw	r4,-68(fp)
 200545c:	00bfffc4 	movi	r2,-1
 2005460:	e0bff115 	stw	r2,-60(fp)
 2005464:	2006df00 	call	2006df0 <_ZN11CCarMessageC2Ev>
 2005468:	00c08074 	movhi	r3,513
 200546c:	18c98c04 	addi	r3,r3,9776
 2005470:	e0bfef17 	ldw	r2,-68(fp)
 2005474:	10c00015 	stw	r3,0(r2)
{
    setHeader(9, getLength(), 0);
 2005478:	e0bfef17 	ldw	r2,-68(fp)
 200547c:	e0bffe15 	stw	r2,-8(fp)
 2005480:	e13fef17 	ldw	r4,-68(fp)
 2005484:	2004b700 	call	2004b70 <_ZN26CAccelerationValuesMessage9getLengthEv>
 2005488:	11803fcc 	andi	r6,r2,255
 200548c:	00800044 	movi	r2,1
 2005490:	e0bff115 	stw	r2,-60(fp)
 2005494:	e13ffe17 	ldw	r4,-8(fp)
 2005498:	01400244 	movi	r5,9
 200549c:	000f883a 	mov	r7,zero
 20054a0:	2006fc40 	call	2006fc4 <_ZN11CCarMessage9setHeaderEhhb>

    m_iXAcceleration = 0;
 20054a4:	e0bfef17 	ldw	r2,-68(fp)
 20054a8:	1000028d 	sth	zero,10(r2)
	m_iYAcceleration = 0;
 20054ac:	e0bfef17 	ldw	r2,-68(fp)
 20054b0:	1000030d 	sth	zero,12(r2)
	m_iZAcceleration = 0;
 20054b4:	e0bfef17 	ldw	r2,-68(fp)
 20054b8:	1000038d 	sth	zero,14(r2)

	m_uiAccelerationFlags = 0;
 20054bc:	e0bfef17 	ldw	r2,-68(fp)
 20054c0:	10000405 	stb	zero,16(r2)
}
 20054c4:	00000e06 	br	2005500 <_ZN26CAccelerationValuesMessageC2Ev+0x118>
 20054c8:	e7001104 	addi	fp,fp,68
 20054cc:	e0fff217 	ldw	r3,-56(fp)
 20054d0:	e0ffff15 	stw	r3,-4(fp)
 20054d4:	e0bfff17 	ldw	r2,-4(fp)
 20054d8:	e0bffd15 	stw	r2,-12(fp)
 20054dc:	e13fef17 	ldw	r4,-68(fp)
 20054e0:	e03ff115 	stw	zero,-60(fp)
 20054e4:	20073b40 	call	20073b4 <_ZN11CCarMessageD2Ev>
 20054e8:	e0fffd17 	ldw	r3,-12(fp)
 20054ec:	e0ffff15 	stw	r3,-4(fp)
 20054f0:	00bfffc4 	movi	r2,-1
 20054f4:	e0bff115 	stw	r2,-60(fp)
 20054f8:	e13fff17 	ldw	r4,-4(fp)
 20054fc:	200d34c0 	call	200d34c <_Unwind_SjLj_Resume>
 2005500:	e13ff004 	addi	r4,fp,-64
 2005504:	200d0900 	call	200d090 <_Unwind_SjLj_Unregister>
 2005508:	e037883a 	mov	sp,fp
 200550c:	dfc00917 	ldw	ra,36(sp)
 2005510:	df000817 	ldw	fp,32(sp)
 2005514:	ddc00717 	ldw	r23,28(sp)
 2005518:	dd800617 	ldw	r22,24(sp)
 200551c:	dd400517 	ldw	r21,20(sp)
 2005520:	dd000417 	ldw	r20,16(sp)
 2005524:	dcc00317 	ldw	r19,12(sp)
 2005528:	dc800217 	ldw	r18,8(sp)
 200552c:	dc400117 	ldw	r17,4(sp)
 2005530:	dc000017 	ldw	r16,0(sp)
 2005534:	dec00a04 	addi	sp,sp,40
 2005538:	f800283a 	ret

0200553c <_ZN15CControlMessage13answerMessageEb>:
CControlMessage::~CControlMessage()
{

}

void CControlMessage::answerMessage(bool executed_b)
 200553c:	defffd04 	addi	sp,sp,-12
 2005540:	df000215 	stw	fp,8(sp)
 2005544:	df000204 	addi	fp,sp,8
 2005548:	e13ffe15 	stw	r4,-8(fp)
 200554c:	e17fff05 	stb	r5,-4(fp)
{

}
 2005550:	e037883a 	mov	sp,fp
 2005554:	df000017 	ldw	fp,0(sp)
 2005558:	dec00104 	addi	sp,sp,4
 200555c:	f800283a 	ret

02005560 <_ZN15CControlMessage8doActionEv>:

void CControlMessage::doAction()
 2005560:	defffe04 	addi	sp,sp,-8
 2005564:	df000115 	stw	fp,4(sp)
 2005568:	df000104 	addi	fp,sp,4
 200556c:	e13fff15 	stw	r4,-4(fp)
{

}
 2005570:	e037883a 	mov	sp,fp
 2005574:	df000017 	ldw	fp,0(sp)
 2005578:	dec00104 	addi	sp,sp,4
 200557c:	f800283a 	ret

02005580 <_ZN15CControlMessage8getBytesEPh>:

bool CControlMessage::getBytes(alt_u8* pMessage)
 2005580:	defffd04 	addi	sp,sp,-12
 2005584:	df000215 	stw	fp,8(sp)
 2005588:	df000204 	addi	fp,sp,8
 200558c:	e13ffe15 	stw	r4,-8(fp)
 2005590:	e17fff15 	stw	r5,-4(fp)
{
	return true;
 2005594:	00800044 	movi	r2,1
}
 2005598:	e037883a 	mov	sp,fp
 200559c:	df000017 	ldw	fp,0(sp)
 20055a0:	dec00104 	addi	sp,sp,4
 20055a4:	f800283a 	ret

020055a8 <_ZN15CControlMessage9getLengthEv>:

alt_u32 CControlMessage::getLength()
 20055a8:	defffe04 	addi	sp,sp,-8
 20055ac:	df000115 	stw	fp,4(sp)
 20055b0:	df000104 	addi	fp,sp,4
 20055b4:	e13fff15 	stw	r4,-4(fp)
{
	return 12;
 20055b8:	00800304 	movi	r2,12
}
 20055bc:	e037883a 	mov	sp,fp
 20055c0:	df000017 	ldw	fp,0(sp)
 20055c4:	dec00104 	addi	sp,sp,4
 20055c8:	f800283a 	ret

020055cc <_ZN15CControlMessage12parseMessageEPhi>:


void CControlMessage::parseMessage(alt_u8 *pMessage, int iLength)
 20055cc:	defffb04 	addi	sp,sp,-20
 20055d0:	dfc00415 	stw	ra,16(sp)
 20055d4:	df000315 	stw	fp,12(sp)
 20055d8:	df000304 	addi	fp,sp,12
 20055dc:	e13ffd15 	stw	r4,-12(fp)
 20055e0:	e17ffe15 	stw	r5,-8(fp)
 20055e4:	e1bfff15 	stw	r6,-4(fp)
{
	if(iLength < 8){
 20055e8:	e0bfff17 	ldw	r2,-4(fp)
 20055ec:	10800210 	cmplti	r2,r2,8
 20055f0:	10002a1e 	bne	r2,zero,200569c <_ZN15CControlMessage12parseMessageEPhi+0xd0>
		return;
	}


	m_siVelFrontLeft  = *((alt_16*) (pMessage));
 20055f4:	e0bffe17 	ldw	r2,-8(fp)
 20055f8:	10c0000b 	ldhu	r3,0(r2)
 20055fc:	e0bffd17 	ldw	r2,-12(fp)
 2005600:	10c0028d 	sth	r3,10(r2)
	swapEndianess((alt_u8*) &m_siVelFrontLeft, 2);
 2005604:	e0bffd17 	ldw	r2,-12(fp)
 2005608:	10800284 	addi	r2,r2,10
 200560c:	1009883a 	mov	r4,r2
 2005610:	01400084 	movi	r5,2
 2005614:	20002480 	call	2000248 <_Z13swapEndianessPhm>
	m_siVelRearLeft   = *((alt_16*) (pMessage+2));
 2005618:	e0bffe17 	ldw	r2,-8(fp)
 200561c:	10800084 	addi	r2,r2,2
 2005620:	10c0000b 	ldhu	r3,0(r2)
 2005624:	e0bffd17 	ldw	r2,-12(fp)
 2005628:	10c0038d 	sth	r3,14(r2)
	swapEndianess((alt_u8*) &m_siVelRearLeft, 2);
 200562c:	e0bffd17 	ldw	r2,-12(fp)
 2005630:	10800384 	addi	r2,r2,14
 2005634:	1009883a 	mov	r4,r2
 2005638:	01400084 	movi	r5,2
 200563c:	20002480 	call	2000248 <_Z13swapEndianessPhm>
	m_siVelFrontRight = *((alt_16*) (pMessage+4));
 2005640:	e0bffe17 	ldw	r2,-8(fp)
 2005644:	10800104 	addi	r2,r2,4
 2005648:	10c0000b 	ldhu	r3,0(r2)
 200564c:	e0bffd17 	ldw	r2,-12(fp)
 2005650:	10c0030d 	sth	r3,12(r2)
	swapEndianess((alt_u8*) &m_siVelFrontRight, 2);
 2005654:	e0bffd17 	ldw	r2,-12(fp)
 2005658:	10800304 	addi	r2,r2,12
 200565c:	1009883a 	mov	r4,r2
 2005660:	01400084 	movi	r5,2
 2005664:	20002480 	call	2000248 <_Z13swapEndianessPhm>
	m_siVelRearRight  = *((alt_16*) (pMessage+6));
 2005668:	e0bffe17 	ldw	r2,-8(fp)
 200566c:	10800184 	addi	r2,r2,6
 2005670:	10c0000b 	ldhu	r3,0(r2)
 2005674:	e0bffd17 	ldw	r2,-12(fp)
 2005678:	10c0040d 	sth	r3,16(r2)
	swapEndianess((alt_u8*) &m_siVelRearRight, 2);
 200567c:	e0bffd17 	ldw	r2,-12(fp)
 2005680:	10800404 	addi	r2,r2,16
 2005684:	1009883a 	mov	r4,r2
 2005688:	01400084 	movi	r5,2
 200568c:	20002480 	call	2000248 <_Z13swapEndianessPhm>

	m_bValid = true;
 2005690:	e0fffd17 	ldw	r3,-12(fp)
 2005694:	00800044 	movi	r2,1
 2005698:	18800205 	stb	r2,8(r3)
}
 200569c:	e037883a 	mov	sp,fp
 20056a0:	dfc00117 	ldw	ra,4(sp)
 20056a4:	df000017 	ldw	fp,0(sp)
 20056a8:	dec00204 	addi	sp,sp,8
 20056ac:	f800283a 	ret

020056b0 <_ZN15CControlMessageD0Ev>:
        m_bValid = false;
        parseMessage(pMessage+4, iLength-4);
    }
}

CControlMessage::~CControlMessage()
 20056b0:	defffd04 	addi	sp,sp,-12
 20056b4:	dfc00215 	stw	ra,8(sp)
 20056b8:	df000115 	stw	fp,4(sp)
 20056bc:	df000104 	addi	fp,sp,4
 20056c0:	e13fff15 	stw	r4,-4(fp)
 20056c4:	00c08074 	movhi	r3,513
 20056c8:	18c99e04 	addi	r3,r3,9848
 20056cc:	e0bfff17 	ldw	r2,-4(fp)
 20056d0:	10c00015 	stw	r3,0(r2)
{

}
 20056d4:	e13fff17 	ldw	r4,-4(fp)
 20056d8:	20073b40 	call	20073b4 <_ZN11CCarMessageD2Ev>
 20056dc:	00800044 	movi	r2,1
 20056e0:	10803fcc 	andi	r2,r2,255
 20056e4:	1005003a 	cmpeq	r2,r2,zero
 20056e8:	1000021e 	bne	r2,zero,20056f4 <_ZN15CControlMessageD0Ev+0x44>
 20056ec:	e13fff17 	ldw	r4,-4(fp)
 20056f0:	200bc9c0 	call	200bc9c <_ZdlPv>
 20056f4:	e037883a 	mov	sp,fp
 20056f8:	dfc00117 	ldw	ra,4(sp)
 20056fc:	df000017 	ldw	fp,0(sp)
 2005700:	dec00204 	addi	sp,sp,8
 2005704:	f800283a 	ret

02005708 <_ZN15CControlMessageD1Ev>:
        m_bValid = false;
        parseMessage(pMessage+4, iLength-4);
    }
}

CControlMessage::~CControlMessage()
 2005708:	defffd04 	addi	sp,sp,-12
 200570c:	dfc00215 	stw	ra,8(sp)
 2005710:	df000115 	stw	fp,4(sp)
 2005714:	df000104 	addi	fp,sp,4
 2005718:	e13fff15 	stw	r4,-4(fp)
 200571c:	00c08074 	movhi	r3,513
 2005720:	18c99e04 	addi	r3,r3,9848
 2005724:	e0bfff17 	ldw	r2,-4(fp)
 2005728:	10c00015 	stw	r3,0(r2)
{

}
 200572c:	e13fff17 	ldw	r4,-4(fp)
 2005730:	20073b40 	call	20073b4 <_ZN11CCarMessageD2Ev>
 2005734:	0005883a 	mov	r2,zero
 2005738:	10803fcc 	andi	r2,r2,255
 200573c:	1005003a 	cmpeq	r2,r2,zero
 2005740:	1000021e 	bne	r2,zero,200574c <_ZN15CControlMessageD1Ev+0x44>
 2005744:	e13fff17 	ldw	r4,-4(fp)
 2005748:	200bc9c0 	call	200bc9c <_ZdlPv>
 200574c:	e037883a 	mov	sp,fp
 2005750:	dfc00117 	ldw	ra,4(sp)
 2005754:	df000017 	ldw	fp,0(sp)
 2005758:	dec00204 	addi	sp,sp,8
 200575c:	f800283a 	ret

02005760 <_ZN15CControlMessageD2Ev>:
        m_bValid = false;
        parseMessage(pMessage+4, iLength-4);
    }
}

CControlMessage::~CControlMessage()
 2005760:	defffd04 	addi	sp,sp,-12
 2005764:	dfc00215 	stw	ra,8(sp)
 2005768:	df000115 	stw	fp,4(sp)
 200576c:	df000104 	addi	fp,sp,4
 2005770:	e13fff15 	stw	r4,-4(fp)
 2005774:	00c08074 	movhi	r3,513
 2005778:	18c99e04 	addi	r3,r3,9848
 200577c:	e0bfff17 	ldw	r2,-4(fp)
 2005780:	10c00015 	stw	r3,0(r2)
{

}
 2005784:	e13fff17 	ldw	r4,-4(fp)
 2005788:	20073b40 	call	20073b4 <_ZN11CCarMessageD2Ev>
 200578c:	0005883a 	mov	r2,zero
 2005790:	10803fcc 	andi	r2,r2,255
 2005794:	1005003a 	cmpeq	r2,r2,zero
 2005798:	1000021e 	bne	r2,zero,20057a4 <_ZN15CControlMessageD2Ev+0x44>
 200579c:	e13fff17 	ldw	r4,-4(fp)
 20057a0:	200bc9c0 	call	200bc9c <_ZdlPv>
 20057a4:	e037883a 	mov	sp,fp
 20057a8:	dfc00117 	ldw	ra,4(sp)
 20057ac:	df000017 	ldw	fp,0(sp)
 20057b0:	dec00204 	addi	sp,sp,8
 20057b4:	f800283a 	ret

020057b8 <_ZN15CControlMessageC1Ev>:
#include "CControlMessage.h"
#include "ErrHandler.h"

CControlMessage::CControlMessage()
 20057b8:	defffd04 	addi	sp,sp,-12
 20057bc:	dfc00215 	stw	ra,8(sp)
 20057c0:	df000115 	stw	fp,4(sp)
 20057c4:	df000104 	addi	fp,sp,4
 20057c8:	e13fff15 	stw	r4,-4(fp)
 20057cc:	e13fff17 	ldw	r4,-4(fp)
 20057d0:	2006df00 	call	2006df0 <_ZN11CCarMessageC2Ev>
 20057d4:	00c08074 	movhi	r3,513
 20057d8:	18c99e04 	addi	r3,r3,9848
 20057dc:	e0bfff17 	ldw	r2,-4(fp)
 20057e0:	10c00015 	stw	r3,0(r2)
{

}
 20057e4:	e037883a 	mov	sp,fp
 20057e8:	dfc00117 	ldw	ra,4(sp)
 20057ec:	df000017 	ldw	fp,0(sp)
 20057f0:	dec00204 	addi	sp,sp,8
 20057f4:	f800283a 	ret

020057f8 <_ZN15CControlMessageC2Ev>:
#include "CControlMessage.h"
#include "ErrHandler.h"

CControlMessage::CControlMessage()
 20057f8:	defffd04 	addi	sp,sp,-12
 20057fc:	dfc00215 	stw	ra,8(sp)
 2005800:	df000115 	stw	fp,4(sp)
 2005804:	df000104 	addi	fp,sp,4
 2005808:	e13fff15 	stw	r4,-4(fp)
 200580c:	e13fff17 	ldw	r4,-4(fp)
 2005810:	2006df00 	call	2006df0 <_ZN11CCarMessageC2Ev>
 2005814:	00c08074 	movhi	r3,513
 2005818:	18c99e04 	addi	r3,r3,9848
 200581c:	e0bfff17 	ldw	r2,-4(fp)
 2005820:	10c00015 	stw	r3,0(r2)
{

}
 2005824:	e037883a 	mov	sp,fp
 2005828:	dfc00117 	ldw	ra,4(sp)
 200582c:	df000017 	ldw	fp,0(sp)
 2005830:	dec00204 	addi	sp,sp,8
 2005834:	f800283a 	ret

02005838 <_ZN15CControlMessageC1EPhi>:

CControlMessage::CControlMessage(alt_u8 * pMessage, int iLength)
 2005838:	deffe404 	addi	sp,sp,-112
 200583c:	dfc01b15 	stw	ra,108(sp)
 2005840:	df001a15 	stw	fp,104(sp)
 2005844:	ddc01915 	stw	r23,100(sp)
 2005848:	dd801815 	stw	r22,96(sp)
 200584c:	dd401715 	stw	r21,92(sp)
 2005850:	dd001615 	stw	r20,88(sp)
 2005854:	dcc01515 	stw	r19,84(sp)
 2005858:	dc801415 	stw	r18,80(sp)
 200585c:	dc401315 	stw	r17,76(sp)
 2005860:	dc001215 	stw	r16,72(sp)
 2005864:	df001204 	addi	fp,sp,72
 2005868:	e13fee15 	stw	r4,-72(fp)
 200586c:	e17fef15 	stw	r5,-68(fp)
 2005870:	e1bff015 	stw	r6,-64(fp)
 2005874:	00808074 	movhi	r2,513
 2005878:	10adca04 	addi	r2,r2,-18648
 200587c:	e0bff715 	stw	r2,-36(fp)
 2005880:	00808074 	movhi	r2,513
 2005884:	10892084 	addi	r2,r2,9346
 2005888:	e0bff815 	stw	r2,-32(fp)
 200588c:	e0bff904 	addi	r2,fp,-28
 2005890:	e0ffee04 	addi	r3,fp,-72
 2005894:	10c00015 	stw	r3,0(r2)
 2005898:	00c08034 	movhi	r3,512
 200589c:	18d64804 	addi	r3,r3,22816
 20058a0:	10c00115 	stw	r3,4(r2)
 20058a4:	16c00215 	stw	sp,8(r2)
 20058a8:	e13ff104 	addi	r4,fp,-60
 20058ac:	200d0800 	call	200d080 <_Unwind_SjLj_Register>
 20058b0:	e13fee17 	ldw	r4,-72(fp)
 20058b4:	00bfffc4 	movi	r2,-1
 20058b8:	e0bff215 	stw	r2,-56(fp)
 20058bc:	2006df00 	call	2006df0 <_ZN11CCarMessageC2Ev>
 20058c0:	00c08074 	movhi	r3,513
 20058c4:	18c99e04 	addi	r3,r3,9848
 20058c8:	e0bfee17 	ldw	r2,-72(fp)
 20058cc:	10c00015 	stw	r3,0(r2)
{
    parseHeader(pMessage, iLength);
 20058d0:	e13fee17 	ldw	r4,-72(fp)
 20058d4:	00800044 	movi	r2,1
 20058d8:	e0bff215 	stw	r2,-56(fp)
 20058dc:	e17fef17 	ldw	r5,-68(fp)
 20058e0:	e1bff017 	ldw	r6,-64(fp)
 20058e4:	20071480 	call	2007148 <_ZN11CCarMessage11parseHeaderEPhi>
    if(m_bValid)
 20058e8:	e0bfee17 	ldw	r2,-72(fp)
 20058ec:	10800203 	ldbu	r2,8(r2)
 20058f0:	10803fcc 	andi	r2,r2,255
 20058f4:	1005003a 	cmpeq	r2,r2,zero
 20058f8:	1000171e 	bne	r2,zero,2005958 <_ZN15CControlMessageC1EPhi+0x120>
    {
        m_bValid = false;
 20058fc:	e0bfee17 	ldw	r2,-72(fp)
 2005900:	10000205 	stb	zero,8(r2)
        parseMessage(pMessage+4, iLength-4);
 2005904:	e0bfef17 	ldw	r2,-68(fp)
 2005908:	11400104 	addi	r5,r2,4
 200590c:	e0bff017 	ldw	r2,-64(fp)
 2005910:	11bfff04 	addi	r6,r2,-4
 2005914:	e13fee17 	ldw	r4,-72(fp)
 2005918:	20055cc0 	call	20055cc <_ZN15CControlMessage12parseMessageEPhi>
    }
}
 200591c:	00000e06 	br	2005958 <_ZN15CControlMessageC1EPhi+0x120>
 2005920:	e7001204 	addi	fp,fp,72
 2005924:	e0bff317 	ldw	r2,-52(fp)
 2005928:	e0bfff15 	stw	r2,-4(fp)
 200592c:	e0ffff17 	ldw	r3,-4(fp)
 2005930:	e0fffe15 	stw	r3,-8(fp)
 2005934:	e13fee17 	ldw	r4,-72(fp)
 2005938:	e03ff215 	stw	zero,-56(fp)
 200593c:	20073b40 	call	20073b4 <_ZN11CCarMessageD2Ev>
 2005940:	e0bffe17 	ldw	r2,-8(fp)
 2005944:	e0bfff15 	stw	r2,-4(fp)
 2005948:	00bfffc4 	movi	r2,-1
 200594c:	e0bff215 	stw	r2,-56(fp)
 2005950:	e13fff17 	ldw	r4,-4(fp)
 2005954:	200d34c0 	call	200d34c <_Unwind_SjLj_Resume>
 2005958:	e13ff104 	addi	r4,fp,-60
 200595c:	200d0900 	call	200d090 <_Unwind_SjLj_Unregister>
 2005960:	e037883a 	mov	sp,fp
 2005964:	dfc00917 	ldw	ra,36(sp)
 2005968:	df000817 	ldw	fp,32(sp)
 200596c:	ddc00717 	ldw	r23,28(sp)
 2005970:	dd800617 	ldw	r22,24(sp)
 2005974:	dd400517 	ldw	r21,20(sp)
 2005978:	dd000417 	ldw	r20,16(sp)
 200597c:	dcc00317 	ldw	r19,12(sp)
 2005980:	dc800217 	ldw	r18,8(sp)
 2005984:	dc400117 	ldw	r17,4(sp)
 2005988:	dc000017 	ldw	r16,0(sp)
 200598c:	dec00a04 	addi	sp,sp,40
 2005990:	f800283a 	ret

02005994 <_ZN15CControlMessageC2EPhi>:
CControlMessage::CControlMessage()
{

}

CControlMessage::CControlMessage(alt_u8 * pMessage, int iLength)
 2005994:	deffe404 	addi	sp,sp,-112
 2005998:	dfc01b15 	stw	ra,108(sp)
 200599c:	df001a15 	stw	fp,104(sp)
 20059a0:	ddc01915 	stw	r23,100(sp)
 20059a4:	dd801815 	stw	r22,96(sp)
 20059a8:	dd401715 	stw	r21,92(sp)
 20059ac:	dd001615 	stw	r20,88(sp)
 20059b0:	dcc01515 	stw	r19,84(sp)
 20059b4:	dc801415 	stw	r18,80(sp)
 20059b8:	dc401315 	stw	r17,76(sp)
 20059bc:	dc001215 	stw	r16,72(sp)
 20059c0:	df001204 	addi	fp,sp,72
 20059c4:	e13fee15 	stw	r4,-72(fp)
 20059c8:	e17fef15 	stw	r5,-68(fp)
 20059cc:	e1bff015 	stw	r6,-64(fp)
 20059d0:	00808074 	movhi	r2,513
 20059d4:	10adca04 	addi	r2,r2,-18648
 20059d8:	e0bff715 	stw	r2,-36(fp)
 20059dc:	00808074 	movhi	r2,513
 20059e0:	10892204 	addi	r2,r2,9352
 20059e4:	e0bff815 	stw	r2,-32(fp)
 20059e8:	e0bff904 	addi	r2,fp,-28
 20059ec:	e0ffee04 	addi	r3,fp,-72
 20059f0:	10c00015 	stw	r3,0(r2)
 20059f4:	00c08034 	movhi	r3,512
 20059f8:	18d69f04 	addi	r3,r3,23164
 20059fc:	10c00115 	stw	r3,4(r2)
 2005a00:	16c00215 	stw	sp,8(r2)
 2005a04:	e13ff104 	addi	r4,fp,-60
 2005a08:	200d0800 	call	200d080 <_Unwind_SjLj_Register>
 2005a0c:	e13fee17 	ldw	r4,-72(fp)
 2005a10:	00bfffc4 	movi	r2,-1
 2005a14:	e0bff215 	stw	r2,-56(fp)
 2005a18:	2006df00 	call	2006df0 <_ZN11CCarMessageC2Ev>
 2005a1c:	00c08074 	movhi	r3,513
 2005a20:	18c99e04 	addi	r3,r3,9848
 2005a24:	e0bfee17 	ldw	r2,-72(fp)
 2005a28:	10c00015 	stw	r3,0(r2)
{
    parseHeader(pMessage, iLength);
 2005a2c:	e13fee17 	ldw	r4,-72(fp)
 2005a30:	00800044 	movi	r2,1
 2005a34:	e0bff215 	stw	r2,-56(fp)
 2005a38:	e17fef17 	ldw	r5,-68(fp)
 2005a3c:	e1bff017 	ldw	r6,-64(fp)
 2005a40:	20071480 	call	2007148 <_ZN11CCarMessage11parseHeaderEPhi>
    if(m_bValid)
 2005a44:	e0bfee17 	ldw	r2,-72(fp)
 2005a48:	10800203 	ldbu	r2,8(r2)
 2005a4c:	10803fcc 	andi	r2,r2,255
 2005a50:	1005003a 	cmpeq	r2,r2,zero
 2005a54:	1000171e 	bne	r2,zero,2005ab4 <_ZN15CControlMessageC2EPhi+0x120>
    {
        m_bValid = false;
 2005a58:	e0bfee17 	ldw	r2,-72(fp)
 2005a5c:	10000205 	stb	zero,8(r2)
        parseMessage(pMessage+4, iLength-4);
 2005a60:	e0bfef17 	ldw	r2,-68(fp)
 2005a64:	11400104 	addi	r5,r2,4
 2005a68:	e0bff017 	ldw	r2,-64(fp)
 2005a6c:	11bfff04 	addi	r6,r2,-4
 2005a70:	e13fee17 	ldw	r4,-72(fp)
 2005a74:	20055cc0 	call	20055cc <_ZN15CControlMessage12parseMessageEPhi>
    }
}
 2005a78:	00000e06 	br	2005ab4 <_ZN15CControlMessageC2EPhi+0x120>
 2005a7c:	e7001204 	addi	fp,fp,72
 2005a80:	e0bff317 	ldw	r2,-52(fp)
 2005a84:	e0bfff15 	stw	r2,-4(fp)
 2005a88:	e0ffff17 	ldw	r3,-4(fp)
 2005a8c:	e0fffe15 	stw	r3,-8(fp)
 2005a90:	e13fee17 	ldw	r4,-72(fp)
 2005a94:	e03ff215 	stw	zero,-56(fp)
 2005a98:	20073b40 	call	20073b4 <_ZN11CCarMessageD2Ev>
 2005a9c:	e0bffe17 	ldw	r2,-8(fp)
 2005aa0:	e0bfff15 	stw	r2,-4(fp)
 2005aa4:	00bfffc4 	movi	r2,-1
 2005aa8:	e0bff215 	stw	r2,-56(fp)
 2005aac:	e13fff17 	ldw	r4,-4(fp)
 2005ab0:	200d34c0 	call	200d34c <_Unwind_SjLj_Resume>
 2005ab4:	e13ff104 	addi	r4,fp,-60
 2005ab8:	200d0900 	call	200d090 <_Unwind_SjLj_Unregister>
 2005abc:	e037883a 	mov	sp,fp
 2005ac0:	dfc00917 	ldw	ra,36(sp)
 2005ac4:	df000817 	ldw	fp,32(sp)
 2005ac8:	ddc00717 	ldw	r23,28(sp)
 2005acc:	dd800617 	ldw	r22,24(sp)
 2005ad0:	dd400517 	ldw	r21,20(sp)
 2005ad4:	dd000417 	ldw	r20,16(sp)
 2005ad8:	dcc00317 	ldw	r19,12(sp)
 2005adc:	dc800217 	ldw	r18,8(sp)
 2005ae0:	dc400117 	ldw	r17,4(sp)
 2005ae4:	dc000017 	ldw	r16,0(sp)
 2005ae8:	dec00a04 	addi	sp,sp,40
 2005aec:	f800283a 	ret

02005af0 <_ZN22CEmergencyBrakeMessage13answerMessageEb>:
CEmergencyBrakeMessage::~CEmergencyBrakeMessage()
{

}

void CEmergencyBrakeMessage::answerMessage(bool executed_b)
 2005af0:	defffd04 	addi	sp,sp,-12
 2005af4:	df000215 	stw	fp,8(sp)
 2005af8:	df000204 	addi	fp,sp,8
 2005afc:	e13ffe15 	stw	r4,-8(fp)
 2005b00:	e17fff05 	stb	r5,-4(fp)
{

}
 2005b04:	e037883a 	mov	sp,fp
 2005b08:	df000017 	ldw	fp,0(sp)
 2005b0c:	dec00104 	addi	sp,sp,4
 2005b10:	f800283a 	ret

02005b14 <_ZN22CEmergencyBrakeMessage8doActionEv>:

void CEmergencyBrakeMessage::doAction()
 2005b14:	defffe04 	addi	sp,sp,-8
 2005b18:	df000115 	stw	fp,4(sp)
 2005b1c:	df000104 	addi	fp,sp,4
 2005b20:	e13fff15 	stw	r4,-4(fp)
{

}
 2005b24:	e037883a 	mov	sp,fp
 2005b28:	df000017 	ldw	fp,0(sp)
 2005b2c:	dec00104 	addi	sp,sp,4
 2005b30:	f800283a 	ret

02005b34 <_ZN22CEmergencyBrakeMessage8getBytesEPh>:

bool CEmergencyBrakeMessage::getBytes(alt_u8* pMessage)
 2005b34:	defffd04 	addi	sp,sp,-12
 2005b38:	df000215 	stw	fp,8(sp)
 2005b3c:	df000204 	addi	fp,sp,8
 2005b40:	e13ffe15 	stw	r4,-8(fp)
 2005b44:	e17fff15 	stw	r5,-4(fp)
{
	return true;
 2005b48:	00800044 	movi	r2,1
}
 2005b4c:	e037883a 	mov	sp,fp
 2005b50:	df000017 	ldw	fp,0(sp)
 2005b54:	dec00104 	addi	sp,sp,4
 2005b58:	f800283a 	ret

02005b5c <_ZN22CEmergencyBrakeMessage9getLengthEv>:

alt_u32 CEmergencyBrakeMessage::getLength()
 2005b5c:	defffe04 	addi	sp,sp,-8
 2005b60:	df000115 	stw	fp,4(sp)
 2005b64:	df000104 	addi	fp,sp,4
 2005b68:	e13fff15 	stw	r4,-4(fp)
{
	return 0;
 2005b6c:	0005883a 	mov	r2,zero
}
 2005b70:	e037883a 	mov	sp,fp
 2005b74:	df000017 	ldw	fp,0(sp)
 2005b78:	dec00104 	addi	sp,sp,4
 2005b7c:	f800283a 	ret

02005b80 <_ZN22CEmergencyBrakeMessage12parseMessageEPhi>:

void CEmergencyBrakeMessage::parseMessage(alt_u8 *pMessage, int iLength)
 2005b80:	defffc04 	addi	sp,sp,-16
 2005b84:	df000315 	stw	fp,12(sp)
 2005b88:	df000304 	addi	fp,sp,12
 2005b8c:	e13ffd15 	stw	r4,-12(fp)
 2005b90:	e17ffe15 	stw	r5,-8(fp)
 2005b94:	e1bfff15 	stw	r6,-4(fp)
{

}
 2005b98:	e037883a 	mov	sp,fp
 2005b9c:	df000017 	ldw	fp,0(sp)
 2005ba0:	dec00104 	addi	sp,sp,4
 2005ba4:	f800283a 	ret

02005ba8 <_ZN22CEmergencyBrakeMessageD0Ev>:
CEmergencyBrakeMessage::CEmergencyBrakeMessage(alt_u8* pMessage, int iLength)
{
	parseHeader(pMessage, iLength);
}

CEmergencyBrakeMessage::~CEmergencyBrakeMessage()
 2005ba8:	defffd04 	addi	sp,sp,-12
 2005bac:	dfc00215 	stw	ra,8(sp)
 2005bb0:	df000115 	stw	fp,4(sp)
 2005bb4:	df000104 	addi	fp,sp,4
 2005bb8:	e13fff15 	stw	r4,-4(fp)
 2005bbc:	00c08074 	movhi	r3,513
 2005bc0:	18c9ad04 	addi	r3,r3,9908
 2005bc4:	e0bfff17 	ldw	r2,-4(fp)
 2005bc8:	10c00015 	stw	r3,0(r2)
{

}
 2005bcc:	e13fff17 	ldw	r4,-4(fp)
 2005bd0:	20073b40 	call	20073b4 <_ZN11CCarMessageD2Ev>
 2005bd4:	00800044 	movi	r2,1
 2005bd8:	10803fcc 	andi	r2,r2,255
 2005bdc:	1005003a 	cmpeq	r2,r2,zero
 2005be0:	1000021e 	bne	r2,zero,2005bec <_ZN22CEmergencyBrakeMessageD0Ev+0x44>
 2005be4:	e13fff17 	ldw	r4,-4(fp)
 2005be8:	200bc9c0 	call	200bc9c <_ZdlPv>
 2005bec:	e037883a 	mov	sp,fp
 2005bf0:	dfc00117 	ldw	ra,4(sp)
 2005bf4:	df000017 	ldw	fp,0(sp)
 2005bf8:	dec00204 	addi	sp,sp,8
 2005bfc:	f800283a 	ret

02005c00 <_ZN22CEmergencyBrakeMessageD1Ev>:
CEmergencyBrakeMessage::CEmergencyBrakeMessage(alt_u8* pMessage, int iLength)
{
	parseHeader(pMessage, iLength);
}

CEmergencyBrakeMessage::~CEmergencyBrakeMessage()
 2005c00:	defffd04 	addi	sp,sp,-12
 2005c04:	dfc00215 	stw	ra,8(sp)
 2005c08:	df000115 	stw	fp,4(sp)
 2005c0c:	df000104 	addi	fp,sp,4
 2005c10:	e13fff15 	stw	r4,-4(fp)
 2005c14:	00c08074 	movhi	r3,513
 2005c18:	18c9ad04 	addi	r3,r3,9908
 2005c1c:	e0bfff17 	ldw	r2,-4(fp)
 2005c20:	10c00015 	stw	r3,0(r2)
{

}
 2005c24:	e13fff17 	ldw	r4,-4(fp)
 2005c28:	20073b40 	call	20073b4 <_ZN11CCarMessageD2Ev>
 2005c2c:	0005883a 	mov	r2,zero
 2005c30:	10803fcc 	andi	r2,r2,255
 2005c34:	1005003a 	cmpeq	r2,r2,zero
 2005c38:	1000021e 	bne	r2,zero,2005c44 <_ZN22CEmergencyBrakeMessageD1Ev+0x44>
 2005c3c:	e13fff17 	ldw	r4,-4(fp)
 2005c40:	200bc9c0 	call	200bc9c <_ZdlPv>
 2005c44:	e037883a 	mov	sp,fp
 2005c48:	dfc00117 	ldw	ra,4(sp)
 2005c4c:	df000017 	ldw	fp,0(sp)
 2005c50:	dec00204 	addi	sp,sp,8
 2005c54:	f800283a 	ret

02005c58 <_ZN22CEmergencyBrakeMessageD2Ev>:
CEmergencyBrakeMessage::CEmergencyBrakeMessage(alt_u8* pMessage, int iLength)
{
	parseHeader(pMessage, iLength);
}

CEmergencyBrakeMessage::~CEmergencyBrakeMessage()
 2005c58:	defffd04 	addi	sp,sp,-12
 2005c5c:	dfc00215 	stw	ra,8(sp)
 2005c60:	df000115 	stw	fp,4(sp)
 2005c64:	df000104 	addi	fp,sp,4
 2005c68:	e13fff15 	stw	r4,-4(fp)
 2005c6c:	00c08074 	movhi	r3,513
 2005c70:	18c9ad04 	addi	r3,r3,9908
 2005c74:	e0bfff17 	ldw	r2,-4(fp)
 2005c78:	10c00015 	stw	r3,0(r2)
{

}
 2005c7c:	e13fff17 	ldw	r4,-4(fp)
 2005c80:	20073b40 	call	20073b4 <_ZN11CCarMessageD2Ev>
 2005c84:	0005883a 	mov	r2,zero
 2005c88:	10803fcc 	andi	r2,r2,255
 2005c8c:	1005003a 	cmpeq	r2,r2,zero
 2005c90:	1000021e 	bne	r2,zero,2005c9c <_ZN22CEmergencyBrakeMessageD2Ev+0x44>
 2005c94:	e13fff17 	ldw	r4,-4(fp)
 2005c98:	200bc9c0 	call	200bc9c <_ZdlPv>
 2005c9c:	e037883a 	mov	sp,fp
 2005ca0:	dfc00117 	ldw	ra,4(sp)
 2005ca4:	df000017 	ldw	fp,0(sp)
 2005ca8:	dec00204 	addi	sp,sp,8
 2005cac:	f800283a 	ret

02005cb0 <_ZN22CEmergencyBrakeMessageC1Ev>:
#include "CEmergencyBrakeMessage.h"
CEmergencyBrakeMessage::CEmergencyBrakeMessage()
 2005cb0:	defffd04 	addi	sp,sp,-12
 2005cb4:	dfc00215 	stw	ra,8(sp)
 2005cb8:	df000115 	stw	fp,4(sp)
 2005cbc:	df000104 	addi	fp,sp,4
 2005cc0:	e13fff15 	stw	r4,-4(fp)
 2005cc4:	e13fff17 	ldw	r4,-4(fp)
 2005cc8:	2006df00 	call	2006df0 <_ZN11CCarMessageC2Ev>
 2005ccc:	00c08074 	movhi	r3,513
 2005cd0:	18c9ad04 	addi	r3,r3,9908
 2005cd4:	e0bfff17 	ldw	r2,-4(fp)
 2005cd8:	10c00015 	stw	r3,0(r2)
{

}
 2005cdc:	e037883a 	mov	sp,fp
 2005ce0:	dfc00117 	ldw	ra,4(sp)
 2005ce4:	df000017 	ldw	fp,0(sp)
 2005ce8:	dec00204 	addi	sp,sp,8
 2005cec:	f800283a 	ret

02005cf0 <_ZN22CEmergencyBrakeMessageC2Ev>:
#include "CEmergencyBrakeMessage.h"
CEmergencyBrakeMessage::CEmergencyBrakeMessage()
 2005cf0:	defffd04 	addi	sp,sp,-12
 2005cf4:	dfc00215 	stw	ra,8(sp)
 2005cf8:	df000115 	stw	fp,4(sp)
 2005cfc:	df000104 	addi	fp,sp,4
 2005d00:	e13fff15 	stw	r4,-4(fp)
 2005d04:	e13fff17 	ldw	r4,-4(fp)
 2005d08:	2006df00 	call	2006df0 <_ZN11CCarMessageC2Ev>
 2005d0c:	00c08074 	movhi	r3,513
 2005d10:	18c9ad04 	addi	r3,r3,9908
 2005d14:	e0bfff17 	ldw	r2,-4(fp)
 2005d18:	10c00015 	stw	r3,0(r2)
{

}
 2005d1c:	e037883a 	mov	sp,fp
 2005d20:	dfc00117 	ldw	ra,4(sp)
 2005d24:	df000017 	ldw	fp,0(sp)
 2005d28:	dec00204 	addi	sp,sp,8
 2005d2c:	f800283a 	ret

02005d30 <_ZN22CEmergencyBrakeMessageC1EPhi>:

CEmergencyBrakeMessage::CEmergencyBrakeMessage(alt_u8* pMessage, int iLength)
 2005d30:	deffe404 	addi	sp,sp,-112
 2005d34:	dfc01b15 	stw	ra,108(sp)
 2005d38:	df001a15 	stw	fp,104(sp)
 2005d3c:	ddc01915 	stw	r23,100(sp)
 2005d40:	dd801815 	stw	r22,96(sp)
 2005d44:	dd401715 	stw	r21,92(sp)
 2005d48:	dd001615 	stw	r20,88(sp)
 2005d4c:	dcc01515 	stw	r19,84(sp)
 2005d50:	dc801415 	stw	r18,80(sp)
 2005d54:	dc401315 	stw	r17,76(sp)
 2005d58:	dc001215 	stw	r16,72(sp)
 2005d5c:	df001204 	addi	fp,sp,72
 2005d60:	e13fee15 	stw	r4,-72(fp)
 2005d64:	e17fef15 	stw	r5,-68(fp)
 2005d68:	e1bff015 	stw	r6,-64(fp)
 2005d6c:	00808074 	movhi	r2,513
 2005d70:	10adca04 	addi	r2,r2,-18648
 2005d74:	e0bff715 	stw	r2,-36(fp)
 2005d78:	00808074 	movhi	r2,513
 2005d7c:	10892384 	addi	r2,r2,9358
 2005d80:	e0bff815 	stw	r2,-32(fp)
 2005d84:	e0bff904 	addi	r2,fp,-28
 2005d88:	e0ffee04 	addi	r3,fp,-72
 2005d8c:	10c00015 	stw	r3,0(r2)
 2005d90:	00c08034 	movhi	r3,512
 2005d94:	18d77904 	addi	r3,r3,24036
 2005d98:	10c00115 	stw	r3,4(r2)
 2005d9c:	16c00215 	stw	sp,8(r2)
 2005da0:	e13ff104 	addi	r4,fp,-60
 2005da4:	200d0800 	call	200d080 <_Unwind_SjLj_Register>
 2005da8:	e13fee17 	ldw	r4,-72(fp)
 2005dac:	00bfffc4 	movi	r2,-1
 2005db0:	e0bff215 	stw	r2,-56(fp)
 2005db4:	2006df00 	call	2006df0 <_ZN11CCarMessageC2Ev>
 2005db8:	00c08074 	movhi	r3,513
 2005dbc:	18c9ad04 	addi	r3,r3,9908
 2005dc0:	e0bfee17 	ldw	r2,-72(fp)
 2005dc4:	10c00015 	stw	r3,0(r2)
{
	parseHeader(pMessage, iLength);
 2005dc8:	e13fee17 	ldw	r4,-72(fp)
 2005dcc:	00800044 	movi	r2,1
 2005dd0:	e0bff215 	stw	r2,-56(fp)
 2005dd4:	e17fef17 	ldw	r5,-68(fp)
 2005dd8:	e1bff017 	ldw	r6,-64(fp)
 2005ddc:	20071480 	call	2007148 <_ZN11CCarMessage11parseHeaderEPhi>
}
 2005de0:	00000e06 	br	2005e1c <_ZN22CEmergencyBrakeMessageC1EPhi+0xec>
 2005de4:	e7001204 	addi	fp,fp,72
 2005de8:	e0bff317 	ldw	r2,-52(fp)
 2005dec:	e0bfff15 	stw	r2,-4(fp)
 2005df0:	e0ffff17 	ldw	r3,-4(fp)
 2005df4:	e0fffe15 	stw	r3,-8(fp)
 2005df8:	e13fee17 	ldw	r4,-72(fp)
 2005dfc:	e03ff215 	stw	zero,-56(fp)
 2005e00:	20073b40 	call	20073b4 <_ZN11CCarMessageD2Ev>
 2005e04:	e0bffe17 	ldw	r2,-8(fp)
 2005e08:	e0bfff15 	stw	r2,-4(fp)
 2005e0c:	00bfffc4 	movi	r2,-1
 2005e10:	e0bff215 	stw	r2,-56(fp)
 2005e14:	e13fff17 	ldw	r4,-4(fp)
 2005e18:	200d34c0 	call	200d34c <_Unwind_SjLj_Resume>
 2005e1c:	e13ff104 	addi	r4,fp,-60
 2005e20:	200d0900 	call	200d090 <_Unwind_SjLj_Unregister>
 2005e24:	e037883a 	mov	sp,fp
 2005e28:	dfc00917 	ldw	ra,36(sp)
 2005e2c:	df000817 	ldw	fp,32(sp)
 2005e30:	ddc00717 	ldw	r23,28(sp)
 2005e34:	dd800617 	ldw	r22,24(sp)
 2005e38:	dd400517 	ldw	r21,20(sp)
 2005e3c:	dd000417 	ldw	r20,16(sp)
 2005e40:	dcc00317 	ldw	r19,12(sp)
 2005e44:	dc800217 	ldw	r18,8(sp)
 2005e48:	dc400117 	ldw	r17,4(sp)
 2005e4c:	dc000017 	ldw	r16,0(sp)
 2005e50:	dec00a04 	addi	sp,sp,40
 2005e54:	f800283a 	ret

02005e58 <_ZN22CEmergencyBrakeMessageC2EPhi>:
CEmergencyBrakeMessage::CEmergencyBrakeMessage()
{

}

CEmergencyBrakeMessage::CEmergencyBrakeMessage(alt_u8* pMessage, int iLength)
 2005e58:	deffe404 	addi	sp,sp,-112
 2005e5c:	dfc01b15 	stw	ra,108(sp)
 2005e60:	df001a15 	stw	fp,104(sp)
 2005e64:	ddc01915 	stw	r23,100(sp)
 2005e68:	dd801815 	stw	r22,96(sp)
 2005e6c:	dd401715 	stw	r21,92(sp)
 2005e70:	dd001615 	stw	r20,88(sp)
 2005e74:	dcc01515 	stw	r19,84(sp)
 2005e78:	dc801415 	stw	r18,80(sp)
 2005e7c:	dc401315 	stw	r17,76(sp)
 2005e80:	dc001215 	stw	r16,72(sp)
 2005e84:	df001204 	addi	fp,sp,72
 2005e88:	e13fee15 	stw	r4,-72(fp)
 2005e8c:	e17fef15 	stw	r5,-68(fp)
 2005e90:	e1bff015 	stw	r6,-64(fp)
 2005e94:	00808074 	movhi	r2,513
 2005e98:	10adca04 	addi	r2,r2,-18648
 2005e9c:	e0bff715 	stw	r2,-36(fp)
 2005ea0:	00808074 	movhi	r2,513
 2005ea4:	10892504 	addi	r2,r2,9364
 2005ea8:	e0bff815 	stw	r2,-32(fp)
 2005eac:	e0bff904 	addi	r2,fp,-28
 2005eb0:	e0ffee04 	addi	r3,fp,-72
 2005eb4:	10c00015 	stw	r3,0(r2)
 2005eb8:	00c08034 	movhi	r3,512
 2005ebc:	18d7c304 	addi	r3,r3,24332
 2005ec0:	10c00115 	stw	r3,4(r2)
 2005ec4:	16c00215 	stw	sp,8(r2)
 2005ec8:	e13ff104 	addi	r4,fp,-60
 2005ecc:	200d0800 	call	200d080 <_Unwind_SjLj_Register>
 2005ed0:	e13fee17 	ldw	r4,-72(fp)
 2005ed4:	00bfffc4 	movi	r2,-1
 2005ed8:	e0bff215 	stw	r2,-56(fp)
 2005edc:	2006df00 	call	2006df0 <_ZN11CCarMessageC2Ev>
 2005ee0:	00c08074 	movhi	r3,513
 2005ee4:	18c9ad04 	addi	r3,r3,9908
 2005ee8:	e0bfee17 	ldw	r2,-72(fp)
 2005eec:	10c00015 	stw	r3,0(r2)
{
	parseHeader(pMessage, iLength);
 2005ef0:	e13fee17 	ldw	r4,-72(fp)
 2005ef4:	00800044 	movi	r2,1
 2005ef8:	e0bff215 	stw	r2,-56(fp)
 2005efc:	e17fef17 	ldw	r5,-68(fp)
 2005f00:	e1bff017 	ldw	r6,-64(fp)
 2005f04:	20071480 	call	2007148 <_ZN11CCarMessage11parseHeaderEPhi>
}
 2005f08:	00000e06 	br	2005f44 <_ZN22CEmergencyBrakeMessageC2EPhi+0xec>
 2005f0c:	e7001204 	addi	fp,fp,72
 2005f10:	e0bff317 	ldw	r2,-52(fp)
 2005f14:	e0bfff15 	stw	r2,-4(fp)
 2005f18:	e0ffff17 	ldw	r3,-4(fp)
 2005f1c:	e0fffe15 	stw	r3,-8(fp)
 2005f20:	e13fee17 	ldw	r4,-72(fp)
 2005f24:	e03ff215 	stw	zero,-56(fp)
 2005f28:	20073b40 	call	20073b4 <_ZN11CCarMessageD2Ev>
 2005f2c:	e0bffe17 	ldw	r2,-8(fp)
 2005f30:	e0bfff15 	stw	r2,-4(fp)
 2005f34:	00bfffc4 	movi	r2,-1
 2005f38:	e0bff215 	stw	r2,-56(fp)
 2005f3c:	e13fff17 	ldw	r4,-4(fp)
 2005f40:	200d34c0 	call	200d34c <_Unwind_SjLj_Resume>
 2005f44:	e13ff104 	addi	r4,fp,-60
 2005f48:	200d0900 	call	200d090 <_Unwind_SjLj_Unregister>
 2005f4c:	e037883a 	mov	sp,fp
 2005f50:	dfc00917 	ldw	ra,36(sp)
 2005f54:	df000817 	ldw	fp,32(sp)
 2005f58:	ddc00717 	ldw	r23,28(sp)
 2005f5c:	dd800617 	ldw	r22,24(sp)
 2005f60:	dd400517 	ldw	r21,20(sp)
 2005f64:	dd000417 	ldw	r20,16(sp)
 2005f68:	dcc00317 	ldw	r19,12(sp)
 2005f6c:	dc800217 	ldw	r18,8(sp)
 2005f70:	dc400117 	ldw	r17,4(sp)
 2005f74:	dc000017 	ldw	r16,0(sp)
 2005f78:	dec00a04 	addi	sp,sp,40
 2005f7c:	f800283a 	ret

02005f80 <_ZN18CInfoSensorMessage13answerMessageEb>:
CInfoSensorMessage::~CInfoSensorMessage()
{

}

void CInfoSensorMessage::answerMessage(bool executed_b)
 2005f80:	defffd04 	addi	sp,sp,-12
 2005f84:	df000215 	stw	fp,8(sp)
 2005f88:	df000204 	addi	fp,sp,8
 2005f8c:	e13ffe15 	stw	r4,-8(fp)
 2005f90:	e17fff05 	stb	r5,-4(fp)
{

}
 2005f94:	e037883a 	mov	sp,fp
 2005f98:	df000017 	ldw	fp,0(sp)
 2005f9c:	dec00104 	addi	sp,sp,4
 2005fa0:	f800283a 	ret

02005fa4 <_ZN18CInfoSensorMessage8doActionEv>:

void CInfoSensorMessage::doAction()
 2005fa4:	defffe04 	addi	sp,sp,-8
 2005fa8:	df000115 	stw	fp,4(sp)
 2005fac:	df000104 	addi	fp,sp,4
 2005fb0:	e13fff15 	stw	r4,-4(fp)
{

}
 2005fb4:	e037883a 	mov	sp,fp
 2005fb8:	df000017 	ldw	fp,0(sp)
 2005fbc:	dec00104 	addi	sp,sp,4
 2005fc0:	f800283a 	ret

02005fc4 <_ZN18CInfoSensorMessage8getBytesEPh>:

bool CInfoSensorMessage::getBytes(alt_u8* pMessage)
 2005fc4:	defffd04 	addi	sp,sp,-12
 2005fc8:	df000215 	stw	fp,8(sp)
 2005fcc:	df000204 	addi	fp,sp,8
 2005fd0:	e13ffe15 	stw	r4,-8(fp)
 2005fd4:	e17fff15 	stw	r5,-4(fp)
{
	return true;
 2005fd8:	00800044 	movi	r2,1
}
 2005fdc:	e037883a 	mov	sp,fp
 2005fe0:	df000017 	ldw	fp,0(sp)
 2005fe4:	dec00104 	addi	sp,sp,4
 2005fe8:	f800283a 	ret

02005fec <_ZN18CInfoSensorMessage9getLengthEv>:

alt_u32 CInfoSensorMessage::getLength()
 2005fec:	defffe04 	addi	sp,sp,-8
 2005ff0:	df000115 	stw	fp,4(sp)
 2005ff4:	df000104 	addi	fp,sp,4
 2005ff8:	e13fff15 	stw	r4,-4(fp)
{
	return 0;
 2005ffc:	0005883a 	mov	r2,zero
}
 2006000:	e037883a 	mov	sp,fp
 2006004:	df000017 	ldw	fp,0(sp)
 2006008:	dec00104 	addi	sp,sp,4
 200600c:	f800283a 	ret

02006010 <_ZN18CInfoSensorMessage12parseMessageEPhi>:

void CInfoSensorMessage::parseMessage(alt_u8 *pMessage, int iLength)
 2006010:	defffc04 	addi	sp,sp,-16
 2006014:	df000315 	stw	fp,12(sp)
 2006018:	df000304 	addi	fp,sp,12
 200601c:	e13ffd15 	stw	r4,-12(fp)
 2006020:	e17ffe15 	stw	r5,-8(fp)
 2006024:	e1bfff15 	stw	r6,-4(fp)
{

}
 2006028:	e037883a 	mov	sp,fp
 200602c:	df000017 	ldw	fp,0(sp)
 2006030:	dec00104 	addi	sp,sp,4
 2006034:	f800283a 	ret

02006038 <_ZN18CInfoSensorMessageD0Ev>:
CInfoSensorMessage::CInfoSensorMessage(alt_u8* pMessage, int iLength)
{
	parseHeader(pMessage, iLength);
}

CInfoSensorMessage::~CInfoSensorMessage()
 2006038:	defffd04 	addi	sp,sp,-12
 200603c:	dfc00215 	stw	ra,8(sp)
 2006040:	df000115 	stw	fp,4(sp)
 2006044:	df000104 	addi	fp,sp,4
 2006048:	e13fff15 	stw	r4,-4(fp)
 200604c:	00c08074 	movhi	r3,513
 2006050:	18c9be04 	addi	r3,r3,9976
 2006054:	e0bfff17 	ldw	r2,-4(fp)
 2006058:	10c00015 	stw	r3,0(r2)
{

}
 200605c:	e13fff17 	ldw	r4,-4(fp)
 2006060:	20073b40 	call	20073b4 <_ZN11CCarMessageD2Ev>
 2006064:	00800044 	movi	r2,1
 2006068:	10803fcc 	andi	r2,r2,255
 200606c:	1005003a 	cmpeq	r2,r2,zero
 2006070:	1000021e 	bne	r2,zero,200607c <_ZN18CInfoSensorMessageD0Ev+0x44>
 2006074:	e13fff17 	ldw	r4,-4(fp)
 2006078:	200bc9c0 	call	200bc9c <_ZdlPv>
 200607c:	e037883a 	mov	sp,fp
 2006080:	dfc00117 	ldw	ra,4(sp)
 2006084:	df000017 	ldw	fp,0(sp)
 2006088:	dec00204 	addi	sp,sp,8
 200608c:	f800283a 	ret

02006090 <_ZN18CInfoSensorMessageD1Ev>:
CInfoSensorMessage::CInfoSensorMessage(alt_u8* pMessage, int iLength)
{
	parseHeader(pMessage, iLength);
}

CInfoSensorMessage::~CInfoSensorMessage()
 2006090:	defffd04 	addi	sp,sp,-12
 2006094:	dfc00215 	stw	ra,8(sp)
 2006098:	df000115 	stw	fp,4(sp)
 200609c:	df000104 	addi	fp,sp,4
 20060a0:	e13fff15 	stw	r4,-4(fp)
 20060a4:	00c08074 	movhi	r3,513
 20060a8:	18c9be04 	addi	r3,r3,9976
 20060ac:	e0bfff17 	ldw	r2,-4(fp)
 20060b0:	10c00015 	stw	r3,0(r2)
{

}
 20060b4:	e13fff17 	ldw	r4,-4(fp)
 20060b8:	20073b40 	call	20073b4 <_ZN11CCarMessageD2Ev>
 20060bc:	0005883a 	mov	r2,zero
 20060c0:	10803fcc 	andi	r2,r2,255
 20060c4:	1005003a 	cmpeq	r2,r2,zero
 20060c8:	1000021e 	bne	r2,zero,20060d4 <_ZN18CInfoSensorMessageD1Ev+0x44>
 20060cc:	e13fff17 	ldw	r4,-4(fp)
 20060d0:	200bc9c0 	call	200bc9c <_ZdlPv>
 20060d4:	e037883a 	mov	sp,fp
 20060d8:	dfc00117 	ldw	ra,4(sp)
 20060dc:	df000017 	ldw	fp,0(sp)
 20060e0:	dec00204 	addi	sp,sp,8
 20060e4:	f800283a 	ret

020060e8 <_ZN18CInfoSensorMessageD2Ev>:
CInfoSensorMessage::CInfoSensorMessage(alt_u8* pMessage, int iLength)
{
	parseHeader(pMessage, iLength);
}

CInfoSensorMessage::~CInfoSensorMessage()
 20060e8:	defffd04 	addi	sp,sp,-12
 20060ec:	dfc00215 	stw	ra,8(sp)
 20060f0:	df000115 	stw	fp,4(sp)
 20060f4:	df000104 	addi	fp,sp,4
 20060f8:	e13fff15 	stw	r4,-4(fp)
 20060fc:	00c08074 	movhi	r3,513
 2006100:	18c9be04 	addi	r3,r3,9976
 2006104:	e0bfff17 	ldw	r2,-4(fp)
 2006108:	10c00015 	stw	r3,0(r2)
{

}
 200610c:	e13fff17 	ldw	r4,-4(fp)
 2006110:	20073b40 	call	20073b4 <_ZN11CCarMessageD2Ev>
 2006114:	0005883a 	mov	r2,zero
 2006118:	10803fcc 	andi	r2,r2,255
 200611c:	1005003a 	cmpeq	r2,r2,zero
 2006120:	1000021e 	bne	r2,zero,200612c <_ZN18CInfoSensorMessageD2Ev+0x44>
 2006124:	e13fff17 	ldw	r4,-4(fp)
 2006128:	200bc9c0 	call	200bc9c <_ZdlPv>
 200612c:	e037883a 	mov	sp,fp
 2006130:	dfc00117 	ldw	ra,4(sp)
 2006134:	df000017 	ldw	fp,0(sp)
 2006138:	dec00204 	addi	sp,sp,8
 200613c:	f800283a 	ret

02006140 <_ZN18CInfoSensorMessageC1Ev>:
#include "CInfoSensorMessage.h"
CInfoSensorMessage::CInfoSensorMessage()
 2006140:	defffd04 	addi	sp,sp,-12
 2006144:	dfc00215 	stw	ra,8(sp)
 2006148:	df000115 	stw	fp,4(sp)
 200614c:	df000104 	addi	fp,sp,4
 2006150:	e13fff15 	stw	r4,-4(fp)
 2006154:	e13fff17 	ldw	r4,-4(fp)
 2006158:	2006df00 	call	2006df0 <_ZN11CCarMessageC2Ev>
 200615c:	00c08074 	movhi	r3,513
 2006160:	18c9be04 	addi	r3,r3,9976
 2006164:	e0bfff17 	ldw	r2,-4(fp)
 2006168:	10c00015 	stw	r3,0(r2)
{

}
 200616c:	e037883a 	mov	sp,fp
 2006170:	dfc00117 	ldw	ra,4(sp)
 2006174:	df000017 	ldw	fp,0(sp)
 2006178:	dec00204 	addi	sp,sp,8
 200617c:	f800283a 	ret

02006180 <_ZN18CInfoSensorMessageC2Ev>:
#include "CInfoSensorMessage.h"
CInfoSensorMessage::CInfoSensorMessage()
 2006180:	defffd04 	addi	sp,sp,-12
 2006184:	dfc00215 	stw	ra,8(sp)
 2006188:	df000115 	stw	fp,4(sp)
 200618c:	df000104 	addi	fp,sp,4
 2006190:	e13fff15 	stw	r4,-4(fp)
 2006194:	e13fff17 	ldw	r4,-4(fp)
 2006198:	2006df00 	call	2006df0 <_ZN11CCarMessageC2Ev>
 200619c:	00c08074 	movhi	r3,513
 20061a0:	18c9be04 	addi	r3,r3,9976
 20061a4:	e0bfff17 	ldw	r2,-4(fp)
 20061a8:	10c00015 	stw	r3,0(r2)
{

}
 20061ac:	e037883a 	mov	sp,fp
 20061b0:	dfc00117 	ldw	ra,4(sp)
 20061b4:	df000017 	ldw	fp,0(sp)
 20061b8:	dec00204 	addi	sp,sp,8
 20061bc:	f800283a 	ret

020061c0 <_ZN18CInfoSensorMessageC1EPhi>:

CInfoSensorMessage::CInfoSensorMessage(alt_u8* pMessage, int iLength)
 20061c0:	deffe404 	addi	sp,sp,-112
 20061c4:	dfc01b15 	stw	ra,108(sp)
 20061c8:	df001a15 	stw	fp,104(sp)
 20061cc:	ddc01915 	stw	r23,100(sp)
 20061d0:	dd801815 	stw	r22,96(sp)
 20061d4:	dd401715 	stw	r21,92(sp)
 20061d8:	dd001615 	stw	r20,88(sp)
 20061dc:	dcc01515 	stw	r19,84(sp)
 20061e0:	dc801415 	stw	r18,80(sp)
 20061e4:	dc401315 	stw	r17,76(sp)
 20061e8:	dc001215 	stw	r16,72(sp)
 20061ec:	df001204 	addi	fp,sp,72
 20061f0:	e13fee15 	stw	r4,-72(fp)
 20061f4:	e17fef15 	stw	r5,-68(fp)
 20061f8:	e1bff015 	stw	r6,-64(fp)
 20061fc:	00808074 	movhi	r2,513
 2006200:	10adca04 	addi	r2,r2,-18648
 2006204:	e0bff715 	stw	r2,-36(fp)
 2006208:	00808074 	movhi	r2,513
 200620c:	10892684 	addi	r2,r2,9370
 2006210:	e0bff815 	stw	r2,-32(fp)
 2006214:	e0bff904 	addi	r2,fp,-28
 2006218:	e0ffee04 	addi	r3,fp,-72
 200621c:	10c00015 	stw	r3,0(r2)
 2006220:	00c08034 	movhi	r3,512
 2006224:	18d89d04 	addi	r3,r3,25204
 2006228:	10c00115 	stw	r3,4(r2)
 200622c:	16c00215 	stw	sp,8(r2)
 2006230:	e13ff104 	addi	r4,fp,-60
 2006234:	200d0800 	call	200d080 <_Unwind_SjLj_Register>
 2006238:	e13fee17 	ldw	r4,-72(fp)
 200623c:	00bfffc4 	movi	r2,-1
 2006240:	e0bff215 	stw	r2,-56(fp)
 2006244:	2006df00 	call	2006df0 <_ZN11CCarMessageC2Ev>
 2006248:	00c08074 	movhi	r3,513
 200624c:	18c9be04 	addi	r3,r3,9976
 2006250:	e0bfee17 	ldw	r2,-72(fp)
 2006254:	10c00015 	stw	r3,0(r2)
{
	parseHeader(pMessage, iLength);
 2006258:	e13fee17 	ldw	r4,-72(fp)
 200625c:	00800044 	movi	r2,1
 2006260:	e0bff215 	stw	r2,-56(fp)
 2006264:	e17fef17 	ldw	r5,-68(fp)
 2006268:	e1bff017 	ldw	r6,-64(fp)
 200626c:	20071480 	call	2007148 <_ZN11CCarMessage11parseHeaderEPhi>
}
 2006270:	00000e06 	br	20062ac <_ZN18CInfoSensorMessageC1EPhi+0xec>
 2006274:	e7001204 	addi	fp,fp,72
 2006278:	e0bff317 	ldw	r2,-52(fp)
 200627c:	e0bfff15 	stw	r2,-4(fp)
 2006280:	e0ffff17 	ldw	r3,-4(fp)
 2006284:	e0fffe15 	stw	r3,-8(fp)
 2006288:	e13fee17 	ldw	r4,-72(fp)
 200628c:	e03ff215 	stw	zero,-56(fp)
 2006290:	20073b40 	call	20073b4 <_ZN11CCarMessageD2Ev>
 2006294:	e0bffe17 	ldw	r2,-8(fp)
 2006298:	e0bfff15 	stw	r2,-4(fp)
 200629c:	00bfffc4 	movi	r2,-1
 20062a0:	e0bff215 	stw	r2,-56(fp)
 20062a4:	e13fff17 	ldw	r4,-4(fp)
 20062a8:	200d34c0 	call	200d34c <_Unwind_SjLj_Resume>
 20062ac:	e13ff104 	addi	r4,fp,-60
 20062b0:	200d0900 	call	200d090 <_Unwind_SjLj_Unregister>
 20062b4:	e037883a 	mov	sp,fp
 20062b8:	dfc00917 	ldw	ra,36(sp)
 20062bc:	df000817 	ldw	fp,32(sp)
 20062c0:	ddc00717 	ldw	r23,28(sp)
 20062c4:	dd800617 	ldw	r22,24(sp)
 20062c8:	dd400517 	ldw	r21,20(sp)
 20062cc:	dd000417 	ldw	r20,16(sp)
 20062d0:	dcc00317 	ldw	r19,12(sp)
 20062d4:	dc800217 	ldw	r18,8(sp)
 20062d8:	dc400117 	ldw	r17,4(sp)
 20062dc:	dc000017 	ldw	r16,0(sp)
 20062e0:	dec00a04 	addi	sp,sp,40
 20062e4:	f800283a 	ret

020062e8 <_ZN18CInfoSensorMessageC2EPhi>:
CInfoSensorMessage::CInfoSensorMessage()
{

}

CInfoSensorMessage::CInfoSensorMessage(alt_u8* pMessage, int iLength)
 20062e8:	deffe404 	addi	sp,sp,-112
 20062ec:	dfc01b15 	stw	ra,108(sp)
 20062f0:	df001a15 	stw	fp,104(sp)
 20062f4:	ddc01915 	stw	r23,100(sp)
 20062f8:	dd801815 	stw	r22,96(sp)
 20062fc:	dd401715 	stw	r21,92(sp)
 2006300:	dd001615 	stw	r20,88(sp)
 2006304:	dcc01515 	stw	r19,84(sp)
 2006308:	dc801415 	stw	r18,80(sp)
 200630c:	dc401315 	stw	r17,76(sp)
 2006310:	dc001215 	stw	r16,72(sp)
 2006314:	df001204 	addi	fp,sp,72
 2006318:	e13fee15 	stw	r4,-72(fp)
 200631c:	e17fef15 	stw	r5,-68(fp)
 2006320:	e1bff015 	stw	r6,-64(fp)
 2006324:	00808074 	movhi	r2,513
 2006328:	10adca04 	addi	r2,r2,-18648
 200632c:	e0bff715 	stw	r2,-36(fp)
 2006330:	00808074 	movhi	r2,513
 2006334:	10892804 	addi	r2,r2,9376
 2006338:	e0bff815 	stw	r2,-32(fp)
 200633c:	e0bff904 	addi	r2,fp,-28
 2006340:	e0ffee04 	addi	r3,fp,-72
 2006344:	10c00015 	stw	r3,0(r2)
 2006348:	00c08034 	movhi	r3,512
 200634c:	18d8e704 	addi	r3,r3,25500
 2006350:	10c00115 	stw	r3,4(r2)
 2006354:	16c00215 	stw	sp,8(r2)
 2006358:	e13ff104 	addi	r4,fp,-60
 200635c:	200d0800 	call	200d080 <_Unwind_SjLj_Register>
 2006360:	e13fee17 	ldw	r4,-72(fp)
 2006364:	00bfffc4 	movi	r2,-1
 2006368:	e0bff215 	stw	r2,-56(fp)
 200636c:	2006df00 	call	2006df0 <_ZN11CCarMessageC2Ev>
 2006370:	00c08074 	movhi	r3,513
 2006374:	18c9be04 	addi	r3,r3,9976
 2006378:	e0bfee17 	ldw	r2,-72(fp)
 200637c:	10c00015 	stw	r3,0(r2)
{
	parseHeader(pMessage, iLength);
 2006380:	e13fee17 	ldw	r4,-72(fp)
 2006384:	00800044 	movi	r2,1
 2006388:	e0bff215 	stw	r2,-56(fp)
 200638c:	e17fef17 	ldw	r5,-68(fp)
 2006390:	e1bff017 	ldw	r6,-64(fp)
 2006394:	20071480 	call	2007148 <_ZN11CCarMessage11parseHeaderEPhi>
}
 2006398:	00000e06 	br	20063d4 <_ZN18CInfoSensorMessageC2EPhi+0xec>
 200639c:	e7001204 	addi	fp,fp,72
 20063a0:	e0bff317 	ldw	r2,-52(fp)
 20063a4:	e0bfff15 	stw	r2,-4(fp)
 20063a8:	e0ffff17 	ldw	r3,-4(fp)
 20063ac:	e0fffe15 	stw	r3,-8(fp)
 20063b0:	e13fee17 	ldw	r4,-72(fp)
 20063b4:	e03ff215 	stw	zero,-56(fp)
 20063b8:	20073b40 	call	20073b4 <_ZN11CCarMessageD2Ev>
 20063bc:	e0bffe17 	ldw	r2,-8(fp)
 20063c0:	e0bfff15 	stw	r2,-4(fp)
 20063c4:	00bfffc4 	movi	r2,-1
 20063c8:	e0bff215 	stw	r2,-56(fp)
 20063cc:	e13fff17 	ldw	r4,-4(fp)
 20063d0:	200d34c0 	call	200d34c <_Unwind_SjLj_Resume>
 20063d4:	e13ff104 	addi	r4,fp,-60
 20063d8:	200d0900 	call	200d090 <_Unwind_SjLj_Unregister>
 20063dc:	e037883a 	mov	sp,fp
 20063e0:	dfc00917 	ldw	ra,36(sp)
 20063e4:	df000817 	ldw	fp,32(sp)
 20063e8:	ddc00717 	ldw	r23,28(sp)
 20063ec:	dd800617 	ldw	r22,24(sp)
 20063f0:	dd400517 	ldw	r21,20(sp)
 20063f4:	dd000417 	ldw	r20,16(sp)
 20063f8:	dcc00317 	ldw	r19,12(sp)
 20063fc:	dc800217 	ldw	r18,8(sp)
 2006400:	dc400117 	ldw	r17,4(sp)
 2006404:	dc000017 	ldw	r16,0(sp)
 2006408:	dec00a04 	addi	sp,sp,40
 200640c:	f800283a 	ret

02006410 <_ZN17CInfoStateMessage13answerMessageEb>:
CInfoStateMessage::~CInfoStateMessage()
{

}

void CInfoStateMessage::answerMessage(bool executed_b)
 2006410:	defffd04 	addi	sp,sp,-12
 2006414:	df000215 	stw	fp,8(sp)
 2006418:	df000204 	addi	fp,sp,8
 200641c:	e13ffe15 	stw	r4,-8(fp)
 2006420:	e17fff05 	stb	r5,-4(fp)
{

}
 2006424:	e037883a 	mov	sp,fp
 2006428:	df000017 	ldw	fp,0(sp)
 200642c:	dec00104 	addi	sp,sp,4
 2006430:	f800283a 	ret

02006434 <_ZN17CInfoStateMessage8doActionEv>:

void CInfoStateMessage::doAction()
 2006434:	defffe04 	addi	sp,sp,-8
 2006438:	df000115 	stw	fp,4(sp)
 200643c:	df000104 	addi	fp,sp,4
 2006440:	e13fff15 	stw	r4,-4(fp)
{

}
 2006444:	e037883a 	mov	sp,fp
 2006448:	df000017 	ldw	fp,0(sp)
 200644c:	dec00104 	addi	sp,sp,4
 2006450:	f800283a 	ret

02006454 <_ZN17CInfoStateMessage8getBytesEPh>:

bool CInfoStateMessage::getBytes(alt_u8* pMessage)
 2006454:	defffd04 	addi	sp,sp,-12
 2006458:	df000215 	stw	fp,8(sp)
 200645c:	df000204 	addi	fp,sp,8
 2006460:	e13ffe15 	stw	r4,-8(fp)
 2006464:	e17fff15 	stw	r5,-4(fp)
{
	return true;
 2006468:	00800044 	movi	r2,1
}
 200646c:	e037883a 	mov	sp,fp
 2006470:	df000017 	ldw	fp,0(sp)
 2006474:	dec00104 	addi	sp,sp,4
 2006478:	f800283a 	ret

0200647c <_ZN17CInfoStateMessage9getLengthEv>:

alt_u32 CInfoStateMessage::getLength()
 200647c:	defffe04 	addi	sp,sp,-8
 2006480:	df000115 	stw	fp,4(sp)
 2006484:	df000104 	addi	fp,sp,4
 2006488:	e13fff15 	stw	r4,-4(fp)
{
	return 0;
 200648c:	0005883a 	mov	r2,zero
}
 2006490:	e037883a 	mov	sp,fp
 2006494:	df000017 	ldw	fp,0(sp)
 2006498:	dec00104 	addi	sp,sp,4
 200649c:	f800283a 	ret

020064a0 <_ZN17CInfoStateMessage12parseMessageEPhi>:

void CInfoStateMessage::parseMessage(alt_u8 *pMessage, int iLength)
 20064a0:	defffc04 	addi	sp,sp,-16
 20064a4:	df000315 	stw	fp,12(sp)
 20064a8:	df000304 	addi	fp,sp,12
 20064ac:	e13ffd15 	stw	r4,-12(fp)
 20064b0:	e17ffe15 	stw	r5,-8(fp)
 20064b4:	e1bfff15 	stw	r6,-4(fp)
{

}
 20064b8:	e037883a 	mov	sp,fp
 20064bc:	df000017 	ldw	fp,0(sp)
 20064c0:	dec00104 	addi	sp,sp,4
 20064c4:	f800283a 	ret

020064c8 <_ZN17CInfoStateMessageD0Ev>:
CInfoStateMessage::CInfoStateMessage(alt_u8* pMessage, int iLength)
{
	parseHeader(pMessage, iLength);
}

CInfoStateMessage::~CInfoStateMessage()
 20064c8:	defffd04 	addi	sp,sp,-12
 20064cc:	dfc00215 	stw	ra,8(sp)
 20064d0:	df000115 	stw	fp,4(sp)
 20064d4:	df000104 	addi	fp,sp,4
 20064d8:	e13fff15 	stw	r4,-4(fp)
 20064dc:	00c08074 	movhi	r3,513
 20064e0:	18c9ce04 	addi	r3,r3,10040
 20064e4:	e0bfff17 	ldw	r2,-4(fp)
 20064e8:	10c00015 	stw	r3,0(r2)
{

}
 20064ec:	e13fff17 	ldw	r4,-4(fp)
 20064f0:	20073b40 	call	20073b4 <_ZN11CCarMessageD2Ev>
 20064f4:	00800044 	movi	r2,1
 20064f8:	10803fcc 	andi	r2,r2,255
 20064fc:	1005003a 	cmpeq	r2,r2,zero
 2006500:	1000021e 	bne	r2,zero,200650c <_ZN17CInfoStateMessageD0Ev+0x44>
 2006504:	e13fff17 	ldw	r4,-4(fp)
 2006508:	200bc9c0 	call	200bc9c <_ZdlPv>
 200650c:	e037883a 	mov	sp,fp
 2006510:	dfc00117 	ldw	ra,4(sp)
 2006514:	df000017 	ldw	fp,0(sp)
 2006518:	dec00204 	addi	sp,sp,8
 200651c:	f800283a 	ret

02006520 <_ZN17CInfoStateMessageD1Ev>:
CInfoStateMessage::CInfoStateMessage(alt_u8* pMessage, int iLength)
{
	parseHeader(pMessage, iLength);
}

CInfoStateMessage::~CInfoStateMessage()
 2006520:	defffd04 	addi	sp,sp,-12
 2006524:	dfc00215 	stw	ra,8(sp)
 2006528:	df000115 	stw	fp,4(sp)
 200652c:	df000104 	addi	fp,sp,4
 2006530:	e13fff15 	stw	r4,-4(fp)
 2006534:	00c08074 	movhi	r3,513
 2006538:	18c9ce04 	addi	r3,r3,10040
 200653c:	e0bfff17 	ldw	r2,-4(fp)
 2006540:	10c00015 	stw	r3,0(r2)
{

}
 2006544:	e13fff17 	ldw	r4,-4(fp)
 2006548:	20073b40 	call	20073b4 <_ZN11CCarMessageD2Ev>
 200654c:	0005883a 	mov	r2,zero
 2006550:	10803fcc 	andi	r2,r2,255
 2006554:	1005003a 	cmpeq	r2,r2,zero
 2006558:	1000021e 	bne	r2,zero,2006564 <_ZN17CInfoStateMessageD1Ev+0x44>
 200655c:	e13fff17 	ldw	r4,-4(fp)
 2006560:	200bc9c0 	call	200bc9c <_ZdlPv>
 2006564:	e037883a 	mov	sp,fp
 2006568:	dfc00117 	ldw	ra,4(sp)
 200656c:	df000017 	ldw	fp,0(sp)
 2006570:	dec00204 	addi	sp,sp,8
 2006574:	f800283a 	ret

02006578 <_ZN17CInfoStateMessageD2Ev>:
CInfoStateMessage::CInfoStateMessage(alt_u8* pMessage, int iLength)
{
	parseHeader(pMessage, iLength);
}

CInfoStateMessage::~CInfoStateMessage()
 2006578:	defffd04 	addi	sp,sp,-12
 200657c:	dfc00215 	stw	ra,8(sp)
 2006580:	df000115 	stw	fp,4(sp)
 2006584:	df000104 	addi	fp,sp,4
 2006588:	e13fff15 	stw	r4,-4(fp)
 200658c:	00c08074 	movhi	r3,513
 2006590:	18c9ce04 	addi	r3,r3,10040
 2006594:	e0bfff17 	ldw	r2,-4(fp)
 2006598:	10c00015 	stw	r3,0(r2)
{

}
 200659c:	e13fff17 	ldw	r4,-4(fp)
 20065a0:	20073b40 	call	20073b4 <_ZN11CCarMessageD2Ev>
 20065a4:	0005883a 	mov	r2,zero
 20065a8:	10803fcc 	andi	r2,r2,255
 20065ac:	1005003a 	cmpeq	r2,r2,zero
 20065b0:	1000021e 	bne	r2,zero,20065bc <_ZN17CInfoStateMessageD2Ev+0x44>
 20065b4:	e13fff17 	ldw	r4,-4(fp)
 20065b8:	200bc9c0 	call	200bc9c <_ZdlPv>
 20065bc:	e037883a 	mov	sp,fp
 20065c0:	dfc00117 	ldw	ra,4(sp)
 20065c4:	df000017 	ldw	fp,0(sp)
 20065c8:	dec00204 	addi	sp,sp,8
 20065cc:	f800283a 	ret

020065d0 <_ZN17CInfoStateMessageC1Ev>:
#include "CInfoStateMessage.h"
CInfoStateMessage::CInfoStateMessage()
 20065d0:	defffd04 	addi	sp,sp,-12
 20065d4:	dfc00215 	stw	ra,8(sp)
 20065d8:	df000115 	stw	fp,4(sp)
 20065dc:	df000104 	addi	fp,sp,4
 20065e0:	e13fff15 	stw	r4,-4(fp)
 20065e4:	e13fff17 	ldw	r4,-4(fp)
 20065e8:	2006df00 	call	2006df0 <_ZN11CCarMessageC2Ev>
 20065ec:	00c08074 	movhi	r3,513
 20065f0:	18c9ce04 	addi	r3,r3,10040
 20065f4:	e0bfff17 	ldw	r2,-4(fp)
 20065f8:	10c00015 	stw	r3,0(r2)
{

}
 20065fc:	e037883a 	mov	sp,fp
 2006600:	dfc00117 	ldw	ra,4(sp)
 2006604:	df000017 	ldw	fp,0(sp)
 2006608:	dec00204 	addi	sp,sp,8
 200660c:	f800283a 	ret

02006610 <_ZN17CInfoStateMessageC2Ev>:
#include "CInfoStateMessage.h"
CInfoStateMessage::CInfoStateMessage()
 2006610:	defffd04 	addi	sp,sp,-12
 2006614:	dfc00215 	stw	ra,8(sp)
 2006618:	df000115 	stw	fp,4(sp)
 200661c:	df000104 	addi	fp,sp,4
 2006620:	e13fff15 	stw	r4,-4(fp)
 2006624:	e13fff17 	ldw	r4,-4(fp)
 2006628:	2006df00 	call	2006df0 <_ZN11CCarMessageC2Ev>
 200662c:	00c08074 	movhi	r3,513
 2006630:	18c9ce04 	addi	r3,r3,10040
 2006634:	e0bfff17 	ldw	r2,-4(fp)
 2006638:	10c00015 	stw	r3,0(r2)
{

}
 200663c:	e037883a 	mov	sp,fp
 2006640:	dfc00117 	ldw	ra,4(sp)
 2006644:	df000017 	ldw	fp,0(sp)
 2006648:	dec00204 	addi	sp,sp,8
 200664c:	f800283a 	ret

02006650 <_ZN17CInfoStateMessageC1EPhi>:

CInfoStateMessage::CInfoStateMessage(alt_u8* pMessage, int iLength)
 2006650:	deffe404 	addi	sp,sp,-112
 2006654:	dfc01b15 	stw	ra,108(sp)
 2006658:	df001a15 	stw	fp,104(sp)
 200665c:	ddc01915 	stw	r23,100(sp)
 2006660:	dd801815 	stw	r22,96(sp)
 2006664:	dd401715 	stw	r21,92(sp)
 2006668:	dd001615 	stw	r20,88(sp)
 200666c:	dcc01515 	stw	r19,84(sp)
 2006670:	dc801415 	stw	r18,80(sp)
 2006674:	dc401315 	stw	r17,76(sp)
 2006678:	dc001215 	stw	r16,72(sp)
 200667c:	df001204 	addi	fp,sp,72
 2006680:	e13fee15 	stw	r4,-72(fp)
 2006684:	e17fef15 	stw	r5,-68(fp)
 2006688:	e1bff015 	stw	r6,-64(fp)
 200668c:	00808074 	movhi	r2,513
 2006690:	10adca04 	addi	r2,r2,-18648
 2006694:	e0bff715 	stw	r2,-36(fp)
 2006698:	00808074 	movhi	r2,513
 200669c:	10892984 	addi	r2,r2,9382
 20066a0:	e0bff815 	stw	r2,-32(fp)
 20066a4:	e0bff904 	addi	r2,fp,-28
 20066a8:	e0ffee04 	addi	r3,fp,-72
 20066ac:	10c00015 	stw	r3,0(r2)
 20066b0:	00c08034 	movhi	r3,512
 20066b4:	18d9c104 	addi	r3,r3,26372
 20066b8:	10c00115 	stw	r3,4(r2)
 20066bc:	16c00215 	stw	sp,8(r2)
 20066c0:	e13ff104 	addi	r4,fp,-60
 20066c4:	200d0800 	call	200d080 <_Unwind_SjLj_Register>
 20066c8:	e13fee17 	ldw	r4,-72(fp)
 20066cc:	00bfffc4 	movi	r2,-1
 20066d0:	e0bff215 	stw	r2,-56(fp)
 20066d4:	2006df00 	call	2006df0 <_ZN11CCarMessageC2Ev>
 20066d8:	00c08074 	movhi	r3,513
 20066dc:	18c9ce04 	addi	r3,r3,10040
 20066e0:	e0bfee17 	ldw	r2,-72(fp)
 20066e4:	10c00015 	stw	r3,0(r2)
{
	parseHeader(pMessage, iLength);
 20066e8:	e13fee17 	ldw	r4,-72(fp)
 20066ec:	00800044 	movi	r2,1
 20066f0:	e0bff215 	stw	r2,-56(fp)
 20066f4:	e17fef17 	ldw	r5,-68(fp)
 20066f8:	e1bff017 	ldw	r6,-64(fp)
 20066fc:	20071480 	call	2007148 <_ZN11CCarMessage11parseHeaderEPhi>
}
 2006700:	00000e06 	br	200673c <_ZN17CInfoStateMessageC1EPhi+0xec>
 2006704:	e7001204 	addi	fp,fp,72
 2006708:	e0bff317 	ldw	r2,-52(fp)
 200670c:	e0bfff15 	stw	r2,-4(fp)
 2006710:	e0ffff17 	ldw	r3,-4(fp)
 2006714:	e0fffe15 	stw	r3,-8(fp)
 2006718:	e13fee17 	ldw	r4,-72(fp)
 200671c:	e03ff215 	stw	zero,-56(fp)
 2006720:	20073b40 	call	20073b4 <_ZN11CCarMessageD2Ev>
 2006724:	e0bffe17 	ldw	r2,-8(fp)
 2006728:	e0bfff15 	stw	r2,-4(fp)
 200672c:	00bfffc4 	movi	r2,-1
 2006730:	e0bff215 	stw	r2,-56(fp)
 2006734:	e13fff17 	ldw	r4,-4(fp)
 2006738:	200d34c0 	call	200d34c <_Unwind_SjLj_Resume>
 200673c:	e13ff104 	addi	r4,fp,-60
 2006740:	200d0900 	call	200d090 <_Unwind_SjLj_Unregister>
 2006744:	e037883a 	mov	sp,fp
 2006748:	dfc00917 	ldw	ra,36(sp)
 200674c:	df000817 	ldw	fp,32(sp)
 2006750:	ddc00717 	ldw	r23,28(sp)
 2006754:	dd800617 	ldw	r22,24(sp)
 2006758:	dd400517 	ldw	r21,20(sp)
 200675c:	dd000417 	ldw	r20,16(sp)
 2006760:	dcc00317 	ldw	r19,12(sp)
 2006764:	dc800217 	ldw	r18,8(sp)
 2006768:	dc400117 	ldw	r17,4(sp)
 200676c:	dc000017 	ldw	r16,0(sp)
 2006770:	dec00a04 	addi	sp,sp,40
 2006774:	f800283a 	ret

02006778 <_ZN17CInfoStateMessageC2EPhi>:
CInfoStateMessage::CInfoStateMessage()
{

}

CInfoStateMessage::CInfoStateMessage(alt_u8* pMessage, int iLength)
 2006778:	deffe404 	addi	sp,sp,-112
 200677c:	dfc01b15 	stw	ra,108(sp)
 2006780:	df001a15 	stw	fp,104(sp)
 2006784:	ddc01915 	stw	r23,100(sp)
 2006788:	dd801815 	stw	r22,96(sp)
 200678c:	dd401715 	stw	r21,92(sp)
 2006790:	dd001615 	stw	r20,88(sp)
 2006794:	dcc01515 	stw	r19,84(sp)
 2006798:	dc801415 	stw	r18,80(sp)
 200679c:	dc401315 	stw	r17,76(sp)
 20067a0:	dc001215 	stw	r16,72(sp)
 20067a4:	df001204 	addi	fp,sp,72
 20067a8:	e13fee15 	stw	r4,-72(fp)
 20067ac:	e17fef15 	stw	r5,-68(fp)
 20067b0:	e1bff015 	stw	r6,-64(fp)
 20067b4:	00808074 	movhi	r2,513
 20067b8:	10adca04 	addi	r2,r2,-18648
 20067bc:	e0bff715 	stw	r2,-36(fp)
 20067c0:	00808074 	movhi	r2,513
 20067c4:	10892b04 	addi	r2,r2,9388
 20067c8:	e0bff815 	stw	r2,-32(fp)
 20067cc:	e0bff904 	addi	r2,fp,-28
 20067d0:	e0ffee04 	addi	r3,fp,-72
 20067d4:	10c00015 	stw	r3,0(r2)
 20067d8:	00c08034 	movhi	r3,512
 20067dc:	18da0b04 	addi	r3,r3,26668
 20067e0:	10c00115 	stw	r3,4(r2)
 20067e4:	16c00215 	stw	sp,8(r2)
 20067e8:	e13ff104 	addi	r4,fp,-60
 20067ec:	200d0800 	call	200d080 <_Unwind_SjLj_Register>
 20067f0:	e13fee17 	ldw	r4,-72(fp)
 20067f4:	00bfffc4 	movi	r2,-1
 20067f8:	e0bff215 	stw	r2,-56(fp)
 20067fc:	2006df00 	call	2006df0 <_ZN11CCarMessageC2Ev>
 2006800:	00c08074 	movhi	r3,513
 2006804:	18c9ce04 	addi	r3,r3,10040
 2006808:	e0bfee17 	ldw	r2,-72(fp)
 200680c:	10c00015 	stw	r3,0(r2)
{
	parseHeader(pMessage, iLength);
 2006810:	e13fee17 	ldw	r4,-72(fp)
 2006814:	00800044 	movi	r2,1
 2006818:	e0bff215 	stw	r2,-56(fp)
 200681c:	e17fef17 	ldw	r5,-68(fp)
 2006820:	e1bff017 	ldw	r6,-64(fp)
 2006824:	20071480 	call	2007148 <_ZN11CCarMessage11parseHeaderEPhi>
}
 2006828:	00000e06 	br	2006864 <_ZN17CInfoStateMessageC2EPhi+0xec>
 200682c:	e7001204 	addi	fp,fp,72
 2006830:	e0bff317 	ldw	r2,-52(fp)
 2006834:	e0bfff15 	stw	r2,-4(fp)
 2006838:	e0ffff17 	ldw	r3,-4(fp)
 200683c:	e0fffe15 	stw	r3,-8(fp)
 2006840:	e13fee17 	ldw	r4,-72(fp)
 2006844:	e03ff215 	stw	zero,-56(fp)
 2006848:	20073b40 	call	20073b4 <_ZN11CCarMessageD2Ev>
 200684c:	e0bffe17 	ldw	r2,-8(fp)
 2006850:	e0bfff15 	stw	r2,-4(fp)
 2006854:	00bfffc4 	movi	r2,-1
 2006858:	e0bff215 	stw	r2,-56(fp)
 200685c:	e13fff17 	ldw	r4,-4(fp)
 2006860:	200d34c0 	call	200d34c <_Unwind_SjLj_Resume>
 2006864:	e13ff104 	addi	r4,fp,-60
 2006868:	200d0900 	call	200d090 <_Unwind_SjLj_Unregister>
 200686c:	e037883a 	mov	sp,fp
 2006870:	dfc00917 	ldw	ra,36(sp)
 2006874:	df000817 	ldw	fp,32(sp)
 2006878:	ddc00717 	ldw	r23,28(sp)
 200687c:	dd800617 	ldw	r22,24(sp)
 2006880:	dd400517 	ldw	r21,20(sp)
 2006884:	dd000417 	ldw	r20,16(sp)
 2006888:	dcc00317 	ldw	r19,12(sp)
 200688c:	dc800217 	ldw	r18,8(sp)
 2006890:	dc400117 	ldw	r17,4(sp)
 2006894:	dc000017 	ldw	r16,0(sp)
 2006898:	dec00a04 	addi	sp,sp,40
 200689c:	f800283a 	ret

020068a0 <_ZN21CRemoteControlMessage13answerMessageEb>:
CRemoteControlMessage::~CRemoteControlMessage()
{

}

void CRemoteControlMessage::answerMessage(bool executed_b)
 20068a0:	defffd04 	addi	sp,sp,-12
 20068a4:	df000215 	stw	fp,8(sp)
 20068a8:	df000204 	addi	fp,sp,8
 20068ac:	e13ffe15 	stw	r4,-8(fp)
 20068b0:	e17fff05 	stb	r5,-4(fp)
{

}
 20068b4:	e037883a 	mov	sp,fp
 20068b8:	df000017 	ldw	fp,0(sp)
 20068bc:	dec00104 	addi	sp,sp,4
 20068c0:	f800283a 	ret

020068c4 <_ZN21CRemoteControlMessage8doActionEv>:

void CRemoteControlMessage::doAction()
 20068c4:	defffe04 	addi	sp,sp,-8
 20068c8:	df000115 	stw	fp,4(sp)
 20068cc:	df000104 	addi	fp,sp,4
 20068d0:	e13fff15 	stw	r4,-4(fp)
{

}
 20068d4:	e037883a 	mov	sp,fp
 20068d8:	df000017 	ldw	fp,0(sp)
 20068dc:	dec00104 	addi	sp,sp,4
 20068e0:	f800283a 	ret

020068e4 <_ZN21CRemoteControlMessage8getBytesEPh>:

bool CRemoteControlMessage::getBytes(alt_u8* pMessage)
 20068e4:	defffd04 	addi	sp,sp,-12
 20068e8:	df000215 	stw	fp,8(sp)
 20068ec:	df000204 	addi	fp,sp,8
 20068f0:	e13ffe15 	stw	r4,-8(fp)
 20068f4:	e17fff15 	stw	r5,-4(fp)
{
	return true;
 20068f8:	00800044 	movi	r2,1
}
 20068fc:	e037883a 	mov	sp,fp
 2006900:	df000017 	ldw	fp,0(sp)
 2006904:	dec00104 	addi	sp,sp,4
 2006908:	f800283a 	ret

0200690c <_ZN21CRemoteControlMessage9getLengthEv>:

alt_u32 CRemoteControlMessage::getLength()
 200690c:	defffe04 	addi	sp,sp,-8
 2006910:	df000115 	stw	fp,4(sp)
 2006914:	df000104 	addi	fp,sp,4
 2006918:	e13fff15 	stw	r4,-4(fp)
{
	return 0;
 200691c:	0005883a 	mov	r2,zero
}
 2006920:	e037883a 	mov	sp,fp
 2006924:	df000017 	ldw	fp,0(sp)
 2006928:	dec00104 	addi	sp,sp,4
 200692c:	f800283a 	ret

02006930 <_ZN21CRemoteControlMessage12parseMessageEPhi>:

void CRemoteControlMessage::parseMessage(alt_u8 *pMessage, int iLength)
 2006930:	defffc04 	addi	sp,sp,-16
 2006934:	df000315 	stw	fp,12(sp)
 2006938:	df000304 	addi	fp,sp,12
 200693c:	e13ffd15 	stw	r4,-12(fp)
 2006940:	e17ffe15 	stw	r5,-8(fp)
 2006944:	e1bfff15 	stw	r6,-4(fp)
{
	m_bValid = true;
 2006948:	e0fffd17 	ldw	r3,-12(fp)
 200694c:	00800044 	movi	r2,1
 2006950:	18800205 	stb	r2,8(r3)
	m_ipPart1=pMessage[0];
 2006954:	e0bffe17 	ldw	r2,-8(fp)
 2006958:	10c00003 	ldbu	r3,0(r2)
 200695c:	e0bffd17 	ldw	r2,-12(fp)
 2006960:	10c00405 	stb	r3,16(r2)
	m_ipPart2=pMessage[1];
 2006964:	e0bffe17 	ldw	r2,-8(fp)
 2006968:	10800044 	addi	r2,r2,1
 200696c:	10c00003 	ldbu	r3,0(r2)
 2006970:	e0bffd17 	ldw	r2,-12(fp)
 2006974:	10c00445 	stb	r3,17(r2)
	m_ipPart3=pMessage[2];
 2006978:	e0bffe17 	ldw	r2,-8(fp)
 200697c:	10800084 	addi	r2,r2,2
 2006980:	10c00003 	ldbu	r3,0(r2)
 2006984:	e0bffd17 	ldw	r2,-12(fp)
 2006988:	10c00485 	stb	r3,18(r2)
	m_ipPart4=pMessage[3];
 200698c:	e0bffe17 	ldw	r2,-8(fp)
 2006990:	108000c4 	addi	r2,r2,3
 2006994:	10c00003 	ldbu	r3,0(r2)
 2006998:	e0bffd17 	ldw	r2,-12(fp)
 200699c:	10c004c5 	stb	r3,19(r2)
}
 20069a0:	e037883a 	mov	sp,fp
 20069a4:	df000017 	ldw	fp,0(sp)
 20069a8:	dec00104 	addi	sp,sp,4
 20069ac:	f800283a 	ret

020069b0 <_ZN21CRemoteControlMessageD0Ev>:
    {
        m_bValid = false;
        parseMessage(pMessage+4, iLength-4);
    }}

CRemoteControlMessage::~CRemoteControlMessage()
 20069b0:	defffd04 	addi	sp,sp,-12
 20069b4:	dfc00215 	stw	ra,8(sp)
 20069b8:	df000115 	stw	fp,4(sp)
 20069bc:	df000104 	addi	fp,sp,4
 20069c0:	e13fff15 	stw	r4,-4(fp)
 20069c4:	00c08074 	movhi	r3,513
 20069c8:	18c9dd04 	addi	r3,r3,10100
 20069cc:	e0bfff17 	ldw	r2,-4(fp)
 20069d0:	10c00015 	stw	r3,0(r2)
{

}
 20069d4:	e13fff17 	ldw	r4,-4(fp)
 20069d8:	20073b40 	call	20073b4 <_ZN11CCarMessageD2Ev>
 20069dc:	00800044 	movi	r2,1
 20069e0:	10803fcc 	andi	r2,r2,255
 20069e4:	1005003a 	cmpeq	r2,r2,zero
 20069e8:	1000021e 	bne	r2,zero,20069f4 <_ZN21CRemoteControlMessageD0Ev+0x44>
 20069ec:	e13fff17 	ldw	r4,-4(fp)
 20069f0:	200bc9c0 	call	200bc9c <_ZdlPv>
 20069f4:	e037883a 	mov	sp,fp
 20069f8:	dfc00117 	ldw	ra,4(sp)
 20069fc:	df000017 	ldw	fp,0(sp)
 2006a00:	dec00204 	addi	sp,sp,8
 2006a04:	f800283a 	ret

02006a08 <_ZN21CRemoteControlMessageD1Ev>:
    {
        m_bValid = false;
        parseMessage(pMessage+4, iLength-4);
    }}

CRemoteControlMessage::~CRemoteControlMessage()
 2006a08:	defffd04 	addi	sp,sp,-12
 2006a0c:	dfc00215 	stw	ra,8(sp)
 2006a10:	df000115 	stw	fp,4(sp)
 2006a14:	df000104 	addi	fp,sp,4
 2006a18:	e13fff15 	stw	r4,-4(fp)
 2006a1c:	00c08074 	movhi	r3,513
 2006a20:	18c9dd04 	addi	r3,r3,10100
 2006a24:	e0bfff17 	ldw	r2,-4(fp)
 2006a28:	10c00015 	stw	r3,0(r2)
{

}
 2006a2c:	e13fff17 	ldw	r4,-4(fp)
 2006a30:	20073b40 	call	20073b4 <_ZN11CCarMessageD2Ev>
 2006a34:	0005883a 	mov	r2,zero
 2006a38:	10803fcc 	andi	r2,r2,255
 2006a3c:	1005003a 	cmpeq	r2,r2,zero
 2006a40:	1000021e 	bne	r2,zero,2006a4c <_ZN21CRemoteControlMessageD1Ev+0x44>
 2006a44:	e13fff17 	ldw	r4,-4(fp)
 2006a48:	200bc9c0 	call	200bc9c <_ZdlPv>
 2006a4c:	e037883a 	mov	sp,fp
 2006a50:	dfc00117 	ldw	ra,4(sp)
 2006a54:	df000017 	ldw	fp,0(sp)
 2006a58:	dec00204 	addi	sp,sp,8
 2006a5c:	f800283a 	ret

02006a60 <_ZN21CRemoteControlMessageD2Ev>:
    {
        m_bValid = false;
        parseMessage(pMessage+4, iLength-4);
    }}

CRemoteControlMessage::~CRemoteControlMessage()
 2006a60:	defffd04 	addi	sp,sp,-12
 2006a64:	dfc00215 	stw	ra,8(sp)
 2006a68:	df000115 	stw	fp,4(sp)
 2006a6c:	df000104 	addi	fp,sp,4
 2006a70:	e13fff15 	stw	r4,-4(fp)
 2006a74:	00c08074 	movhi	r3,513
 2006a78:	18c9dd04 	addi	r3,r3,10100
 2006a7c:	e0bfff17 	ldw	r2,-4(fp)
 2006a80:	10c00015 	stw	r3,0(r2)
{

}
 2006a84:	e13fff17 	ldw	r4,-4(fp)
 2006a88:	20073b40 	call	20073b4 <_ZN11CCarMessageD2Ev>
 2006a8c:	0005883a 	mov	r2,zero
 2006a90:	10803fcc 	andi	r2,r2,255
 2006a94:	1005003a 	cmpeq	r2,r2,zero
 2006a98:	1000021e 	bne	r2,zero,2006aa4 <_ZN21CRemoteControlMessageD2Ev+0x44>
 2006a9c:	e13fff17 	ldw	r4,-4(fp)
 2006aa0:	200bc9c0 	call	200bc9c <_ZdlPv>
 2006aa4:	e037883a 	mov	sp,fp
 2006aa8:	dfc00117 	ldw	ra,4(sp)
 2006aac:	df000017 	ldw	fp,0(sp)
 2006ab0:	dec00204 	addi	sp,sp,8
 2006ab4:	f800283a 	ret

02006ab8 <_ZN21CRemoteControlMessageC1Ev>:
#include "CRemoteControlMessage.h"
CRemoteControlMessage::CRemoteControlMessage()
 2006ab8:	defffd04 	addi	sp,sp,-12
 2006abc:	dfc00215 	stw	ra,8(sp)
 2006ac0:	df000115 	stw	fp,4(sp)
 2006ac4:	df000104 	addi	fp,sp,4
 2006ac8:	e13fff15 	stw	r4,-4(fp)
 2006acc:	e13fff17 	ldw	r4,-4(fp)
 2006ad0:	2006df00 	call	2006df0 <_ZN11CCarMessageC2Ev>
 2006ad4:	00c08074 	movhi	r3,513
 2006ad8:	18c9dd04 	addi	r3,r3,10100
 2006adc:	e0bfff17 	ldw	r2,-4(fp)
 2006ae0:	10c00015 	stw	r3,0(r2)
{

}
 2006ae4:	e037883a 	mov	sp,fp
 2006ae8:	dfc00117 	ldw	ra,4(sp)
 2006aec:	df000017 	ldw	fp,0(sp)
 2006af0:	dec00204 	addi	sp,sp,8
 2006af4:	f800283a 	ret

02006af8 <_ZN21CRemoteControlMessageC2Ev>:
#include "CRemoteControlMessage.h"
CRemoteControlMessage::CRemoteControlMessage()
 2006af8:	defffd04 	addi	sp,sp,-12
 2006afc:	dfc00215 	stw	ra,8(sp)
 2006b00:	df000115 	stw	fp,4(sp)
 2006b04:	df000104 	addi	fp,sp,4
 2006b08:	e13fff15 	stw	r4,-4(fp)
 2006b0c:	e13fff17 	ldw	r4,-4(fp)
 2006b10:	2006df00 	call	2006df0 <_ZN11CCarMessageC2Ev>
 2006b14:	00c08074 	movhi	r3,513
 2006b18:	18c9dd04 	addi	r3,r3,10100
 2006b1c:	e0bfff17 	ldw	r2,-4(fp)
 2006b20:	10c00015 	stw	r3,0(r2)
{

}
 2006b24:	e037883a 	mov	sp,fp
 2006b28:	dfc00117 	ldw	ra,4(sp)
 2006b2c:	df000017 	ldw	fp,0(sp)
 2006b30:	dec00204 	addi	sp,sp,8
 2006b34:	f800283a 	ret

02006b38 <_ZN21CRemoteControlMessageC1EPhi>:

CRemoteControlMessage::CRemoteControlMessage(alt_u8* pMessage, int iLength)
 2006b38:	deffe404 	addi	sp,sp,-112
 2006b3c:	dfc01b15 	stw	ra,108(sp)
 2006b40:	df001a15 	stw	fp,104(sp)
 2006b44:	ddc01915 	stw	r23,100(sp)
 2006b48:	dd801815 	stw	r22,96(sp)
 2006b4c:	dd401715 	stw	r21,92(sp)
 2006b50:	dd001615 	stw	r20,88(sp)
 2006b54:	dcc01515 	stw	r19,84(sp)
 2006b58:	dc801415 	stw	r18,80(sp)
 2006b5c:	dc401315 	stw	r17,76(sp)
 2006b60:	dc001215 	stw	r16,72(sp)
 2006b64:	df001204 	addi	fp,sp,72
 2006b68:	e13fee15 	stw	r4,-72(fp)
 2006b6c:	e17fef15 	stw	r5,-68(fp)
 2006b70:	e1bff015 	stw	r6,-64(fp)
 2006b74:	00808074 	movhi	r2,513
 2006b78:	10adca04 	addi	r2,r2,-18648
 2006b7c:	e0bff715 	stw	r2,-36(fp)
 2006b80:	00808074 	movhi	r2,513
 2006b84:	10892c84 	addi	r2,r2,9394
 2006b88:	e0bff815 	stw	r2,-32(fp)
 2006b8c:	e0bff904 	addi	r2,fp,-28
 2006b90:	e0ffee04 	addi	r3,fp,-72
 2006b94:	10c00015 	stw	r3,0(r2)
 2006b98:	00c08034 	movhi	r3,512
 2006b9c:	18db0804 	addi	r3,r3,27680
 2006ba0:	10c00115 	stw	r3,4(r2)
 2006ba4:	16c00215 	stw	sp,8(r2)
 2006ba8:	e13ff104 	addi	r4,fp,-60
 2006bac:	200d0800 	call	200d080 <_Unwind_SjLj_Register>
 2006bb0:	e13fee17 	ldw	r4,-72(fp)
 2006bb4:	00bfffc4 	movi	r2,-1
 2006bb8:	e0bff215 	stw	r2,-56(fp)
 2006bbc:	2006df00 	call	2006df0 <_ZN11CCarMessageC2Ev>
 2006bc0:	00c08074 	movhi	r3,513
 2006bc4:	18c9dd04 	addi	r3,r3,10100
 2006bc8:	e0bfee17 	ldw	r2,-72(fp)
 2006bcc:	10c00015 	stw	r3,0(r2)
{
    parseHeader(pMessage, iLength);
 2006bd0:	e13fee17 	ldw	r4,-72(fp)
 2006bd4:	00800044 	movi	r2,1
 2006bd8:	e0bff215 	stw	r2,-56(fp)
 2006bdc:	e17fef17 	ldw	r5,-68(fp)
 2006be0:	e1bff017 	ldw	r6,-64(fp)
 2006be4:	20071480 	call	2007148 <_ZN11CCarMessage11parseHeaderEPhi>
    if(m_bValid)
 2006be8:	e0bfee17 	ldw	r2,-72(fp)
 2006bec:	10800203 	ldbu	r2,8(r2)
 2006bf0:	10803fcc 	andi	r2,r2,255
 2006bf4:	1005003a 	cmpeq	r2,r2,zero
 2006bf8:	1000171e 	bne	r2,zero,2006c58 <_ZN21CRemoteControlMessageC1EPhi+0x120>
    {
        m_bValid = false;
 2006bfc:	e0bfee17 	ldw	r2,-72(fp)
 2006c00:	10000205 	stb	zero,8(r2)
        parseMessage(pMessage+4, iLength-4);
 2006c04:	e0bfef17 	ldw	r2,-68(fp)
 2006c08:	11400104 	addi	r5,r2,4
 2006c0c:	e0bff017 	ldw	r2,-64(fp)
 2006c10:	11bfff04 	addi	r6,r2,-4
 2006c14:	e13fee17 	ldw	r4,-72(fp)
 2006c18:	20069300 	call	2006930 <_ZN21CRemoteControlMessage12parseMessageEPhi>
    }}
 2006c1c:	00000e06 	br	2006c58 <_ZN21CRemoteControlMessageC1EPhi+0x120>
 2006c20:	e7001204 	addi	fp,fp,72
 2006c24:	e0bff317 	ldw	r2,-52(fp)
 2006c28:	e0bfff15 	stw	r2,-4(fp)
 2006c2c:	e0ffff17 	ldw	r3,-4(fp)
 2006c30:	e0fffe15 	stw	r3,-8(fp)
 2006c34:	e13fee17 	ldw	r4,-72(fp)
 2006c38:	e03ff215 	stw	zero,-56(fp)
 2006c3c:	20073b40 	call	20073b4 <_ZN11CCarMessageD2Ev>
 2006c40:	e0bffe17 	ldw	r2,-8(fp)
 2006c44:	e0bfff15 	stw	r2,-4(fp)
 2006c48:	00bfffc4 	movi	r2,-1
 2006c4c:	e0bff215 	stw	r2,-56(fp)
 2006c50:	e13fff17 	ldw	r4,-4(fp)
 2006c54:	200d34c0 	call	200d34c <_Unwind_SjLj_Resume>
 2006c58:	e13ff104 	addi	r4,fp,-60
 2006c5c:	200d0900 	call	200d090 <_Unwind_SjLj_Unregister>
 2006c60:	e037883a 	mov	sp,fp
 2006c64:	dfc00917 	ldw	ra,36(sp)
 2006c68:	df000817 	ldw	fp,32(sp)
 2006c6c:	ddc00717 	ldw	r23,28(sp)
 2006c70:	dd800617 	ldw	r22,24(sp)
 2006c74:	dd400517 	ldw	r21,20(sp)
 2006c78:	dd000417 	ldw	r20,16(sp)
 2006c7c:	dcc00317 	ldw	r19,12(sp)
 2006c80:	dc800217 	ldw	r18,8(sp)
 2006c84:	dc400117 	ldw	r17,4(sp)
 2006c88:	dc000017 	ldw	r16,0(sp)
 2006c8c:	dec00a04 	addi	sp,sp,40
 2006c90:	f800283a 	ret

02006c94 <_ZN21CRemoteControlMessageC2EPhi>:
CRemoteControlMessage::CRemoteControlMessage()
{

}

CRemoteControlMessage::CRemoteControlMessage(alt_u8* pMessage, int iLength)
 2006c94:	deffe404 	addi	sp,sp,-112
 2006c98:	dfc01b15 	stw	ra,108(sp)
 2006c9c:	df001a15 	stw	fp,104(sp)
 2006ca0:	ddc01915 	stw	r23,100(sp)
 2006ca4:	dd801815 	stw	r22,96(sp)
 2006ca8:	dd401715 	stw	r21,92(sp)
 2006cac:	dd001615 	stw	r20,88(sp)
 2006cb0:	dcc01515 	stw	r19,84(sp)
 2006cb4:	dc801415 	stw	r18,80(sp)
 2006cb8:	dc401315 	stw	r17,76(sp)
 2006cbc:	dc001215 	stw	r16,72(sp)
 2006cc0:	df001204 	addi	fp,sp,72
 2006cc4:	e13fee15 	stw	r4,-72(fp)
 2006cc8:	e17fef15 	stw	r5,-68(fp)
 2006ccc:	e1bff015 	stw	r6,-64(fp)
 2006cd0:	00808074 	movhi	r2,513
 2006cd4:	10adca04 	addi	r2,r2,-18648
 2006cd8:	e0bff715 	stw	r2,-36(fp)
 2006cdc:	00808074 	movhi	r2,513
 2006ce0:	10892e04 	addi	r2,r2,9400
 2006ce4:	e0bff815 	stw	r2,-32(fp)
 2006ce8:	e0bff904 	addi	r2,fp,-28
 2006cec:	e0ffee04 	addi	r3,fp,-72
 2006cf0:	10c00015 	stw	r3,0(r2)
 2006cf4:	00c08034 	movhi	r3,512
 2006cf8:	18db5f04 	addi	r3,r3,28028
 2006cfc:	10c00115 	stw	r3,4(r2)
 2006d00:	16c00215 	stw	sp,8(r2)
 2006d04:	e13ff104 	addi	r4,fp,-60
 2006d08:	200d0800 	call	200d080 <_Unwind_SjLj_Register>
 2006d0c:	e13fee17 	ldw	r4,-72(fp)
 2006d10:	00bfffc4 	movi	r2,-1
 2006d14:	e0bff215 	stw	r2,-56(fp)
 2006d18:	2006df00 	call	2006df0 <_ZN11CCarMessageC2Ev>
 2006d1c:	00c08074 	movhi	r3,513
 2006d20:	18c9dd04 	addi	r3,r3,10100
 2006d24:	e0bfee17 	ldw	r2,-72(fp)
 2006d28:	10c00015 	stw	r3,0(r2)
{
    parseHeader(pMessage, iLength);
 2006d2c:	e13fee17 	ldw	r4,-72(fp)
 2006d30:	00800044 	movi	r2,1
 2006d34:	e0bff215 	stw	r2,-56(fp)
 2006d38:	e17fef17 	ldw	r5,-68(fp)
 2006d3c:	e1bff017 	ldw	r6,-64(fp)
 2006d40:	20071480 	call	2007148 <_ZN11CCarMessage11parseHeaderEPhi>
    if(m_bValid)
 2006d44:	e0bfee17 	ldw	r2,-72(fp)
 2006d48:	10800203 	ldbu	r2,8(r2)
 2006d4c:	10803fcc 	andi	r2,r2,255
 2006d50:	1005003a 	cmpeq	r2,r2,zero
 2006d54:	1000171e 	bne	r2,zero,2006db4 <_ZN21CRemoteControlMessageC2EPhi+0x120>
    {
        m_bValid = false;
 2006d58:	e0bfee17 	ldw	r2,-72(fp)
 2006d5c:	10000205 	stb	zero,8(r2)
        parseMessage(pMessage+4, iLength-4);
 2006d60:	e0bfef17 	ldw	r2,-68(fp)
 2006d64:	11400104 	addi	r5,r2,4
 2006d68:	e0bff017 	ldw	r2,-64(fp)
 2006d6c:	11bfff04 	addi	r6,r2,-4
 2006d70:	e13fee17 	ldw	r4,-72(fp)
 2006d74:	20069300 	call	2006930 <_ZN21CRemoteControlMessage12parseMessageEPhi>
    }}
 2006d78:	00000e06 	br	2006db4 <_ZN21CRemoteControlMessageC2EPhi+0x120>
 2006d7c:	e7001204 	addi	fp,fp,72
 2006d80:	e0bff317 	ldw	r2,-52(fp)
 2006d84:	e0bfff15 	stw	r2,-4(fp)
 2006d88:	e0ffff17 	ldw	r3,-4(fp)
 2006d8c:	e0fffe15 	stw	r3,-8(fp)
 2006d90:	e13fee17 	ldw	r4,-72(fp)
 2006d94:	e03ff215 	stw	zero,-56(fp)
 2006d98:	20073b40 	call	20073b4 <_ZN11CCarMessageD2Ev>
 2006d9c:	e0bffe17 	ldw	r2,-8(fp)
 2006da0:	e0bfff15 	stw	r2,-4(fp)
 2006da4:	00bfffc4 	movi	r2,-1
 2006da8:	e0bff215 	stw	r2,-56(fp)
 2006dac:	e13fff17 	ldw	r4,-4(fp)
 2006db0:	200d34c0 	call	200d34c <_Unwind_SjLj_Resume>
 2006db4:	e13ff104 	addi	r4,fp,-60
 2006db8:	200d0900 	call	200d090 <_Unwind_SjLj_Unregister>
 2006dbc:	e037883a 	mov	sp,fp
 2006dc0:	dfc00917 	ldw	ra,36(sp)
 2006dc4:	df000817 	ldw	fp,32(sp)
 2006dc8:	ddc00717 	ldw	r23,28(sp)
 2006dcc:	dd800617 	ldw	r22,24(sp)
 2006dd0:	dd400517 	ldw	r21,20(sp)
 2006dd4:	dd000417 	ldw	r20,16(sp)
 2006dd8:	dcc00317 	ldw	r19,12(sp)
 2006ddc:	dc800217 	ldw	r18,8(sp)
 2006de0:	dc400117 	ldw	r17,4(sp)
 2006de4:	dc000017 	ldw	r16,0(sp)
 2006de8:	dec00a04 	addi	sp,sp,40
 2006dec:	f800283a 	ret

02006df0 <_ZN11CCarMessageC2Ev>:
 *      Author: Florian
 */

#include "CarProtocol.h"

CCarMessage::CCarMessage()
 2006df0:	defffe04 	addi	sp,sp,-8
 2006df4:	df000115 	stw	fp,4(sp)
 2006df8:	df000104 	addi	fp,sp,4
 2006dfc:	e13fff15 	stw	r4,-4(fp)
 2006e00:	00808074 	movhi	r2,513
 2006e04:	1089ed04 	addi	r2,r2,10164
 2006e08:	e0ffff17 	ldw	r3,-4(fp)
 2006e0c:	18800015 	stw	r2,0(r3)
{
	m_bValid = false;
 2006e10:	e0bfff17 	ldw	r2,-4(fp)
 2006e14:	10000205 	stb	zero,8(r2)

}
 2006e18:	e037883a 	mov	sp,fp
 2006e1c:	df000017 	ldw	fp,0(sp)
 2006e20:	dec00104 	addi	sp,sp,4
 2006e24:	f800283a 	ret

02006e28 <_ZN11CCarMessageC1Ev>:
 *      Author: Florian
 */

#include "CarProtocol.h"

CCarMessage::CCarMessage()
 2006e28:	defffe04 	addi	sp,sp,-8
 2006e2c:	df000115 	stw	fp,4(sp)
 2006e30:	df000104 	addi	fp,sp,4
 2006e34:	e13fff15 	stw	r4,-4(fp)
 2006e38:	00808074 	movhi	r2,513
 2006e3c:	1089ed04 	addi	r2,r2,10164
 2006e40:	e0ffff17 	ldw	r3,-4(fp)
 2006e44:	18800015 	stw	r2,0(r3)
{
	m_bValid = false;
 2006e48:	e0bfff17 	ldw	r2,-4(fp)
 2006e4c:	10000205 	stb	zero,8(r2)

}
 2006e50:	e037883a 	mov	sp,fp
 2006e54:	df000017 	ldw	fp,0(sp)
 2006e58:	dec00104 	addi	sp,sp,4
 2006e5c:	f800283a 	ret

02006e60 <_ZN11CCarMessage8doActionEv>:
CCarMessage::~CCarMessage()
{

}

void CCarMessage::doAction()
 2006e60:	defffe04 	addi	sp,sp,-8
 2006e64:	df000115 	stw	fp,4(sp)
 2006e68:	df000104 	addi	fp,sp,4
 2006e6c:	e13fff15 	stw	r4,-4(fp)
{
	// Do nothing!
}
 2006e70:	e037883a 	mov	sp,fp
 2006e74:	df000017 	ldw	fp,0(sp)
 2006e78:	dec00104 	addi	sp,sp,4
 2006e7c:	f800283a 	ret

02006e80 <_ZN11CCarMessage8getBytesEPh>:


bool CCarMessage::getBytes(alt_u8 *pMessage)
 2006e80:	defffb04 	addi	sp,sp,-20
 2006e84:	dfc00415 	stw	ra,16(sp)
 2006e88:	df000315 	stw	fp,12(sp)
 2006e8c:	dc000215 	stw	r16,8(sp)
 2006e90:	df000204 	addi	fp,sp,8
 2006e94:	e13ffe15 	stw	r4,-8(fp)
 2006e98:	e17fff15 	stw	r5,-4(fp)
{
	pMessage[0] = m_uiType;
 2006e9c:	e0bffe17 	ldw	r2,-8(fp)
 2006ea0:	10c00103 	ldbu	r3,4(r2)
 2006ea4:	e0bfff17 	ldw	r2,-4(fp)
 2006ea8:	10c00005 	stb	r3,0(r2)
	pMessage[1] = getLength();
 2006eac:	e0bfff17 	ldw	r2,-4(fp)
 2006eb0:	14000044 	addi	r16,r2,1
 2006eb4:	e0bffe17 	ldw	r2,-8(fp)
 2006eb8:	10800017 	ldw	r2,0(r2)
 2006ebc:	10800404 	addi	r2,r2,16
 2006ec0:	10800017 	ldw	r2,0(r2)
 2006ec4:	e13ffe17 	ldw	r4,-8(fp)
 2006ec8:	103ee83a 	callr	r2
 2006ecc:	80800005 	stb	r2,0(r16)
	pMessage[2] = m_uiSubType;
 2006ed0:	e0bfff17 	ldw	r2,-4(fp)
 2006ed4:	10c00084 	addi	r3,r2,2
 2006ed8:	e0bffe17 	ldw	r2,-8(fp)
 2006edc:	10800183 	ldbu	r2,6(r2)
 2006ee0:	18800005 	stb	r2,0(r3)
	pMessage[3] = m_uiFlags;
 2006ee4:	e0bfff17 	ldw	r2,-4(fp)
 2006ee8:	10c000c4 	addi	r3,r2,3
 2006eec:	e0bffe17 	ldw	r2,-8(fp)
 2006ef0:	108001c3 	ldbu	r2,7(r2)
 2006ef4:	18800005 	stb	r2,0(r3)

	return m_bValid;
 2006ef8:	e0bffe17 	ldw	r2,-8(fp)
 2006efc:	10800203 	ldbu	r2,8(r2)
 2006f00:	10803fcc 	andi	r2,r2,255
}
 2006f04:	e037883a 	mov	sp,fp
 2006f08:	dfc00217 	ldw	ra,8(sp)
 2006f0c:	df000117 	ldw	fp,4(sp)
 2006f10:	dc000017 	ldw	r16,0(sp)
 2006f14:	dec00304 	addi	sp,sp,12
 2006f18:	f800283a 	ret

02006f1c <_ZN11CCarMessage9getLengthEv>:


alt_u32 CCarMessage::getLength()
 2006f1c:	defffe04 	addi	sp,sp,-8
 2006f20:	df000115 	stw	fp,4(sp)
 2006f24:	df000104 	addi	fp,sp,4
 2006f28:	e13fff15 	stw	r4,-4(fp)
{
	return 4;
 2006f2c:	00800104 	movi	r2,4
}
 2006f30:	e037883a 	mov	sp,fp
 2006f34:	df000017 	ldw	fp,0(sp)
 2006f38:	dec00104 	addi	sp,sp,4
 2006f3c:	f800283a 	ret

02006f40 <_ZN11CCarMessage7getTypeEv>:


alt_u8 CCarMessage::getType()
 2006f40:	defffe04 	addi	sp,sp,-8
 2006f44:	df000115 	stw	fp,4(sp)
 2006f48:	df000104 	addi	fp,sp,4
 2006f4c:	e13fff15 	stw	r4,-4(fp)
{
	return m_uiType;
 2006f50:	e0bfff17 	ldw	r2,-4(fp)
 2006f54:	10800103 	ldbu	r2,4(r2)
 2006f58:	10803fcc 	andi	r2,r2,255
}
 2006f5c:	e037883a 	mov	sp,fp
 2006f60:	df000017 	ldw	fp,0(sp)
 2006f64:	dec00104 	addi	sp,sp,4
 2006f68:	f800283a 	ret

02006f6c <_ZN11CCarMessage10getSubTypeEv>:

alt_u8 CCarMessage::getSubType()
 2006f6c:	defffe04 	addi	sp,sp,-8
 2006f70:	df000115 	stw	fp,4(sp)
 2006f74:	df000104 	addi	fp,sp,4
 2006f78:	e13fff15 	stw	r4,-4(fp)
{
	return m_uiSubType;
 2006f7c:	e0bfff17 	ldw	r2,-4(fp)
 2006f80:	10800183 	ldbu	r2,6(r2)
 2006f84:	10803fcc 	andi	r2,r2,255
}
 2006f88:	e037883a 	mov	sp,fp
 2006f8c:	df000017 	ldw	fp,0(sp)
 2006f90:	dec00104 	addi	sp,sp,4
 2006f94:	f800283a 	ret

02006f98 <_ZN11CCarMessage7isValidEv>:

bool CCarMessage::isValid()
 2006f98:	defffe04 	addi	sp,sp,-8
 2006f9c:	df000115 	stw	fp,4(sp)
 2006fa0:	df000104 	addi	fp,sp,4
 2006fa4:	e13fff15 	stw	r4,-4(fp)
{
	return m_bValid;
 2006fa8:	e0bfff17 	ldw	r2,-4(fp)
 2006fac:	10800203 	ldbu	r2,8(r2)
 2006fb0:	10803fcc 	andi	r2,r2,255
}
 2006fb4:	e037883a 	mov	sp,fp
 2006fb8:	df000017 	ldw	fp,0(sp)
 2006fbc:	dec00104 	addi	sp,sp,4
 2006fc0:	f800283a 	ret

02006fc4 <_ZN11CCarMessage9setHeaderEhhb>:

void CCarMessage::setHeader(alt_u8 uiType, alt_u8 uiLength, bool bResponse)
 2006fc4:	defffb04 	addi	sp,sp,-20
 2006fc8:	df000415 	stw	fp,16(sp)
 2006fcc:	df000404 	addi	fp,sp,16
 2006fd0:	e13ffc15 	stw	r4,-16(fp)
 2006fd4:	e17ffd05 	stb	r5,-12(fp)
 2006fd8:	e1bffe05 	stb	r6,-8(fp)
 2006fdc:	e1ffff05 	stb	r7,-4(fp)
{
	m_uiType = uiType;
 2006fe0:	e0fffc17 	ldw	r3,-16(fp)
 2006fe4:	e0bffd03 	ldbu	r2,-12(fp)
 2006fe8:	18800105 	stb	r2,4(r3)
	m_uiLength = uiLength;
 2006fec:	e0fffc17 	ldw	r3,-16(fp)
 2006ff0:	e0bffe03 	ldbu	r2,-8(fp)
 2006ff4:	18800145 	stb	r2,5(r3)
	m_uiSubType = 0;
 2006ff8:	e0bffc17 	ldw	r2,-16(fp)
 2006ffc:	10000185 	stb	zero,6(r2)
	m_uiFlags = bResponse;
 2007000:	e0ffff03 	ldbu	r3,-4(fp)
 2007004:	e0bffc17 	ldw	r2,-16(fp)
 2007008:	10c001c5 	stb	r3,7(r2)

	m_bValid = true;
 200700c:	e0fffc17 	ldw	r3,-16(fp)
 2007010:	00800044 	movi	r2,1
 2007014:	18800205 	stb	r2,8(r3)
}
 2007018:	e037883a 	mov	sp,fp
 200701c:	df000017 	ldw	fp,0(sp)
 2007020:	dec00104 	addi	sp,sp,4
 2007024:	f800283a 	ret

02007028 <_ZN11CCarMessageC1Ehhb>:
{
	m_bValid = false;
	parseHeader(pMessage, iLength);
}

CCarMessage::CCarMessage(alt_u8 uiType, alt_u8 uiLength, bool bResponse)
 2007028:	defffa04 	addi	sp,sp,-24
 200702c:	dfc00515 	stw	ra,20(sp)
 2007030:	df000415 	stw	fp,16(sp)
 2007034:	df000404 	addi	fp,sp,16
 2007038:	e13ffc15 	stw	r4,-16(fp)
 200703c:	e17ffd05 	stb	r5,-12(fp)
 2007040:	e1bffe05 	stb	r6,-8(fp)
 2007044:	e1ffff05 	stb	r7,-4(fp)
 2007048:	00c08074 	movhi	r3,513
 200704c:	18c9ed04 	addi	r3,r3,10164
 2007050:	e0bffc17 	ldw	r2,-16(fp)
 2007054:	10c00015 	stw	r3,0(r2)
{
	setHeader(uiType, uiLength, bResponse);
 2007058:	e17ffd03 	ldbu	r5,-12(fp)
 200705c:	e1bffe03 	ldbu	r6,-8(fp)
 2007060:	e1ffff03 	ldbu	r7,-4(fp)
 2007064:	e13ffc17 	ldw	r4,-16(fp)
 2007068:	2006fc40 	call	2006fc4 <_ZN11CCarMessage9setHeaderEhhb>
}
 200706c:	e037883a 	mov	sp,fp
 2007070:	dfc00117 	ldw	ra,4(sp)
 2007074:	df000017 	ldw	fp,0(sp)
 2007078:	dec00204 	addi	sp,sp,8
 200707c:	f800283a 	ret

02007080 <_ZN11CCarMessageC2Ehhb>:
{
	m_bValid = false;
	parseHeader(pMessage, iLength);
}

CCarMessage::CCarMessage(alt_u8 uiType, alt_u8 uiLength, bool bResponse)
 2007080:	defffa04 	addi	sp,sp,-24
 2007084:	dfc00515 	stw	ra,20(sp)
 2007088:	df000415 	stw	fp,16(sp)
 200708c:	df000404 	addi	fp,sp,16
 2007090:	e13ffc15 	stw	r4,-16(fp)
 2007094:	e17ffd05 	stb	r5,-12(fp)
 2007098:	e1bffe05 	stb	r6,-8(fp)
 200709c:	e1ffff05 	stb	r7,-4(fp)
 20070a0:	00c08074 	movhi	r3,513
 20070a4:	18c9ed04 	addi	r3,r3,10164
 20070a8:	e0bffc17 	ldw	r2,-16(fp)
 20070ac:	10c00015 	stw	r3,0(r2)
{
	setHeader(uiType, uiLength, bResponse);
 20070b0:	e17ffd03 	ldbu	r5,-12(fp)
 20070b4:	e1bffe03 	ldbu	r6,-8(fp)
 20070b8:	e1ffff03 	ldbu	r7,-4(fp)
 20070bc:	e13ffc17 	ldw	r4,-16(fp)
 20070c0:	2006fc40 	call	2006fc4 <_ZN11CCarMessage9setHeaderEhhb>
}
 20070c4:	e037883a 	mov	sp,fp
 20070c8:	dfc00117 	ldw	ra,4(sp)
 20070cc:	df000017 	ldw	fp,0(sp)
 20070d0:	dec00204 	addi	sp,sp,8
 20070d4:	f800283a 	ret

020070d8 <_ZN11CCarMessage9setHeaderEhhhb>:
	m_uiFlags = bResponse;

	m_bValid = true;
}

void CCarMessage::setHeader(alt_u8 uiType, alt_u8 uiLength, alt_u8 uiSubType, bool bResponse)
 20070d8:	defffa04 	addi	sp,sp,-24
 20070dc:	df000515 	stw	fp,20(sp)
 20070e0:	df000504 	addi	fp,sp,20
 20070e4:	e13ffb15 	stw	r4,-20(fp)
 20070e8:	e0800117 	ldw	r2,4(fp)
 20070ec:	e17ffc05 	stb	r5,-16(fp)
 20070f0:	e1bffd05 	stb	r6,-12(fp)
 20070f4:	e1fffe05 	stb	r7,-8(fp)
 20070f8:	e0bfff05 	stb	r2,-4(fp)
{
	m_uiType = uiType;
 20070fc:	e0fffb17 	ldw	r3,-20(fp)
 2007100:	e0bffc03 	ldbu	r2,-16(fp)
 2007104:	18800105 	stb	r2,4(r3)
	m_uiLength = uiLength;
 2007108:	e0fffb17 	ldw	r3,-20(fp)
 200710c:	e0bffd03 	ldbu	r2,-12(fp)
 2007110:	18800145 	stb	r2,5(r3)
	m_uiSubType = uiSubType;
 2007114:	e0fffb17 	ldw	r3,-20(fp)
 2007118:	e0bffe03 	ldbu	r2,-8(fp)
 200711c:	18800185 	stb	r2,6(r3)
	m_uiFlags = bResponse;
 2007120:	e0ffff03 	ldbu	r3,-4(fp)
 2007124:	e0bffb17 	ldw	r2,-20(fp)
 2007128:	10c001c5 	stb	r3,7(r2)

	m_bValid = true;
 200712c:	e0fffb17 	ldw	r3,-20(fp)
 2007130:	00800044 	movi	r2,1
 2007134:	18800205 	stb	r2,8(r3)
}
 2007138:	e037883a 	mov	sp,fp
 200713c:	df000017 	ldw	fp,0(sp)
 2007140:	dec00104 	addi	sp,sp,4
 2007144:	f800283a 	ret

02007148 <_ZN11CCarMessage11parseHeaderEPhi>:

void CCarMessage::parseHeader(alt_u8 *pMessage, int iLength)
 2007148:	defffc04 	addi	sp,sp,-16
 200714c:	df000315 	stw	fp,12(sp)
 2007150:	df000304 	addi	fp,sp,12
 2007154:	e13ffd15 	stw	r4,-12(fp)
 2007158:	e17ffe15 	stw	r5,-8(fp)
 200715c:	e1bfff15 	stw	r6,-4(fp)
{
	if(iLength < 3)
 2007160:	e0bfff17 	ldw	r2,-4(fp)
 2007164:	108000d0 	cmplti	r2,r2,3
 2007168:	1000161e 	bne	r2,zero,20071c4 <_ZN11CCarMessage11parseHeaderEPhi+0x7c>
		return;

	m_uiType = pMessage[0];
 200716c:	e0bffe17 	ldw	r2,-8(fp)
 2007170:	10c00003 	ldbu	r3,0(r2)
 2007174:	e0bffd17 	ldw	r2,-12(fp)
 2007178:	10c00105 	stb	r3,4(r2)
	m_uiLength = pMessage[1];
 200717c:	e0bffe17 	ldw	r2,-8(fp)
 2007180:	10800044 	addi	r2,r2,1
 2007184:	10c00003 	ldbu	r3,0(r2)
 2007188:	e0bffd17 	ldw	r2,-12(fp)
 200718c:	10c00145 	stb	r3,5(r2)
	m_uiSubType = pMessage[2];
 2007190:	e0bffe17 	ldw	r2,-8(fp)
 2007194:	10800084 	addi	r2,r2,2
 2007198:	10c00003 	ldbu	r3,0(r2)
 200719c:	e0bffd17 	ldw	r2,-12(fp)
 20071a0:	10c00185 	stb	r3,6(r2)
	m_uiFlags = pMessage[3];
 20071a4:	e0bffe17 	ldw	r2,-8(fp)
 20071a8:	108000c4 	addi	r2,r2,3
 20071ac:	10c00003 	ldbu	r3,0(r2)
 20071b0:	e0bffd17 	ldw	r2,-12(fp)
 20071b4:	10c001c5 	stb	r3,7(r2)

	m_bValid = true;
 20071b8:	e0fffd17 	ldw	r3,-12(fp)
 20071bc:	00800044 	movi	r2,1
 20071c0:	18800205 	stb	r2,8(r3)
}
 20071c4:	e037883a 	mov	sp,fp
 20071c8:	df000017 	ldw	fp,0(sp)
 20071cc:	dec00104 	addi	sp,sp,4
 20071d0:	f800283a 	ret

020071d4 <_ZN11CCarMessageC1EPhi>:
{
	m_bValid = false;

}

CCarMessage::CCarMessage(alt_u8 *pMessage, int iLength)
 20071d4:	defffb04 	addi	sp,sp,-20
 20071d8:	dfc00415 	stw	ra,16(sp)
 20071dc:	df000315 	stw	fp,12(sp)
 20071e0:	df000304 	addi	fp,sp,12
 20071e4:	e13ffd15 	stw	r4,-12(fp)
 20071e8:	e17ffe15 	stw	r5,-8(fp)
 20071ec:	e1bfff15 	stw	r6,-4(fp)
 20071f0:	00808074 	movhi	r2,513
 20071f4:	1089ed04 	addi	r2,r2,10164
 20071f8:	e0fffd17 	ldw	r3,-12(fp)
 20071fc:	18800015 	stw	r2,0(r3)
{
	m_bValid = false;
 2007200:	e0bffd17 	ldw	r2,-12(fp)
 2007204:	10000205 	stb	zero,8(r2)
	parseHeader(pMessage, iLength);
 2007208:	e13ffd17 	ldw	r4,-12(fp)
 200720c:	e17ffe17 	ldw	r5,-8(fp)
 2007210:	e1bfff17 	ldw	r6,-4(fp)
 2007214:	20071480 	call	2007148 <_ZN11CCarMessage11parseHeaderEPhi>
}
 2007218:	e037883a 	mov	sp,fp
 200721c:	dfc00117 	ldw	ra,4(sp)
 2007220:	df000017 	ldw	fp,0(sp)
 2007224:	dec00204 	addi	sp,sp,8
 2007228:	f800283a 	ret

0200722c <_ZN11CCarMessageC2EPhi>:
{
	m_bValid = false;

}

CCarMessage::CCarMessage(alt_u8 *pMessage, int iLength)
 200722c:	defffb04 	addi	sp,sp,-20
 2007230:	dfc00415 	stw	ra,16(sp)
 2007234:	df000315 	stw	fp,12(sp)
 2007238:	df000304 	addi	fp,sp,12
 200723c:	e13ffd15 	stw	r4,-12(fp)
 2007240:	e17ffe15 	stw	r5,-8(fp)
 2007244:	e1bfff15 	stw	r6,-4(fp)
 2007248:	00808074 	movhi	r2,513
 200724c:	1089ed04 	addi	r2,r2,10164
 2007250:	e0fffd17 	ldw	r3,-12(fp)
 2007254:	18800015 	stw	r2,0(r3)
{
	m_bValid = false;
 2007258:	e0bffd17 	ldw	r2,-12(fp)
 200725c:	10000205 	stb	zero,8(r2)
	parseHeader(pMessage, iLength);
 2007260:	e13ffd17 	ldw	r4,-12(fp)
 2007264:	e17ffe17 	ldw	r5,-8(fp)
 2007268:	e1bfff17 	ldw	r6,-4(fp)
 200726c:	20071480 	call	2007148 <_ZN11CCarMessage11parseHeaderEPhi>
}
 2007270:	e037883a 	mov	sp,fp
 2007274:	dfc00117 	ldw	ra,4(sp)
 2007278:	df000017 	ldw	fp,0(sp)
 200727c:	dec00204 	addi	sp,sp,8
 2007280:	f800283a 	ret

02007284 <_ZN11CCarMessage19writeHeaderToBufferEPhi>:
	m_uiFlags = pMessage[3];

	m_bValid = true;
}

alt_32 CCarMessage::writeHeaderToBuffer(alt_u8 *pMessage, int iLength)
 2007284:	defffb04 	addi	sp,sp,-20
 2007288:	df000415 	stw	fp,16(sp)
 200728c:	df000404 	addi	fp,sp,16
 2007290:	e13ffc15 	stw	r4,-16(fp)
 2007294:	e17ffd15 	stw	r5,-12(fp)
 2007298:	e1bffe15 	stw	r6,-8(fp)
{
	if(iLength < 4)
 200729c:	e0bffe17 	ldw	r2,-8(fp)
 20072a0:	10800108 	cmpgei	r2,r2,4
 20072a4:	1000031e 	bne	r2,zero,20072b4 <_ZN11CCarMessage19writeHeaderToBufferEPhi+0x30>
		return -1;
 20072a8:	00bfffc4 	movi	r2,-1
 20072ac:	e0bfff15 	stw	r2,-4(fp)
 20072b0:	00001306 	br	2007300 <_ZN11CCarMessage19writeHeaderToBufferEPhi+0x7c>

	pMessage[0] = m_uiType;
 20072b4:	e0bffc17 	ldw	r2,-16(fp)
 20072b8:	10c00103 	ldbu	r3,4(r2)
 20072bc:	e0bffd17 	ldw	r2,-12(fp)
 20072c0:	10c00005 	stb	r3,0(r2)
	pMessage[1] = m_uiLength;
 20072c4:	e0bffd17 	ldw	r2,-12(fp)
 20072c8:	10c00044 	addi	r3,r2,1
 20072cc:	e0bffc17 	ldw	r2,-16(fp)
 20072d0:	10800143 	ldbu	r2,5(r2)
 20072d4:	18800005 	stb	r2,0(r3)
	pMessage[2] = 0;
 20072d8:	e0bffd17 	ldw	r2,-12(fp)
 20072dc:	10800084 	addi	r2,r2,2
 20072e0:	10000005 	stb	zero,0(r2)
	pMessage[3] = m_uiFlags;
 20072e4:	e0bffd17 	ldw	r2,-12(fp)
 20072e8:	10c000c4 	addi	r3,r2,3
 20072ec:	e0bffc17 	ldw	r2,-16(fp)
 20072f0:	108001c3 	ldbu	r2,7(r2)
 20072f4:	18800005 	stb	r2,0(r3)

	return 4;
 20072f8:	00800104 	movi	r2,4
 20072fc:	e0bfff15 	stw	r2,-4(fp)
 2007300:	e0bfff17 	ldw	r2,-4(fp)
}
 2007304:	e037883a 	mov	sp,fp
 2007308:	df000017 	ldw	fp,0(sp)
 200730c:	dec00104 	addi	sp,sp,4
 2007310:	f800283a 	ret

02007314 <_ZN11CCarMessageD0Ev>:
CCarMessage::CCarMessage(alt_u8 uiType, alt_u8 uiLength, bool bResponse)
{
	setHeader(uiType, uiLength, bResponse);
}

CCarMessage::~CCarMessage()
 2007314:	defffd04 	addi	sp,sp,-12
 2007318:	dfc00215 	stw	ra,8(sp)
 200731c:	df000115 	stw	fp,4(sp)
 2007320:	df000104 	addi	fp,sp,4
 2007324:	e13fff15 	stw	r4,-4(fp)
 2007328:	00c08074 	movhi	r3,513
 200732c:	18c9ed04 	addi	r3,r3,10164
 2007330:	e0bfff17 	ldw	r2,-4(fp)
 2007334:	10c00015 	stw	r3,0(r2)
{

}
 2007338:	00800044 	movi	r2,1
 200733c:	10803fcc 	andi	r2,r2,255
 2007340:	1005003a 	cmpeq	r2,r2,zero
 2007344:	1000021e 	bne	r2,zero,2007350 <_ZN11CCarMessageD0Ev+0x3c>
 2007348:	e13fff17 	ldw	r4,-4(fp)
 200734c:	200bc9c0 	call	200bc9c <_ZdlPv>
 2007350:	e037883a 	mov	sp,fp
 2007354:	dfc00117 	ldw	ra,4(sp)
 2007358:	df000017 	ldw	fp,0(sp)
 200735c:	dec00204 	addi	sp,sp,8
 2007360:	f800283a 	ret

02007364 <_ZN11CCarMessageD1Ev>:
CCarMessage::CCarMessage(alt_u8 uiType, alt_u8 uiLength, bool bResponse)
{
	setHeader(uiType, uiLength, bResponse);
}

CCarMessage::~CCarMessage()
 2007364:	defffd04 	addi	sp,sp,-12
 2007368:	dfc00215 	stw	ra,8(sp)
 200736c:	df000115 	stw	fp,4(sp)
 2007370:	df000104 	addi	fp,sp,4
 2007374:	e13fff15 	stw	r4,-4(fp)
 2007378:	00c08074 	movhi	r3,513
 200737c:	18c9ed04 	addi	r3,r3,10164
 2007380:	e0bfff17 	ldw	r2,-4(fp)
 2007384:	10c00015 	stw	r3,0(r2)
{

}
 2007388:	0005883a 	mov	r2,zero
 200738c:	10803fcc 	andi	r2,r2,255
 2007390:	1005003a 	cmpeq	r2,r2,zero
 2007394:	1000021e 	bne	r2,zero,20073a0 <_ZN11CCarMessageD1Ev+0x3c>
 2007398:	e13fff17 	ldw	r4,-4(fp)
 200739c:	200bc9c0 	call	200bc9c <_ZdlPv>
 20073a0:	e037883a 	mov	sp,fp
 20073a4:	dfc00117 	ldw	ra,4(sp)
 20073a8:	df000017 	ldw	fp,0(sp)
 20073ac:	dec00204 	addi	sp,sp,8
 20073b0:	f800283a 	ret

020073b4 <_ZN11CCarMessageD2Ev>:
CCarMessage::CCarMessage(alt_u8 uiType, alt_u8 uiLength, bool bResponse)
{
	setHeader(uiType, uiLength, bResponse);
}

CCarMessage::~CCarMessage()
 20073b4:	defffd04 	addi	sp,sp,-12
 20073b8:	dfc00215 	stw	ra,8(sp)
 20073bc:	df000115 	stw	fp,4(sp)
 20073c0:	df000104 	addi	fp,sp,4
 20073c4:	e13fff15 	stw	r4,-4(fp)
 20073c8:	00c08074 	movhi	r3,513
 20073cc:	18c9ed04 	addi	r3,r3,10164
 20073d0:	e0bfff17 	ldw	r2,-4(fp)
 20073d4:	10c00015 	stw	r3,0(r2)
{

}
 20073d8:	0005883a 	mov	r2,zero
 20073dc:	10803fcc 	andi	r2,r2,255
 20073e0:	1005003a 	cmpeq	r2,r2,zero
 20073e4:	1000021e 	bne	r2,zero,20073f0 <_ZN11CCarMessageD2Ev+0x3c>
 20073e8:	e13fff17 	ldw	r4,-4(fp)
 20073ec:	200bc9c0 	call	200bc9c <_ZdlPv>
 20073f0:	e037883a 	mov	sp,fp
 20073f4:	dfc00117 	ldw	ra,4(sp)
 20073f8:	df000017 	ldw	fp,0(sp)
 20073fc:	dec00204 	addi	sp,sp,8
 2007400:	f800283a 	ret

02007404 <_ZN12CCarProtocolC2EtPP11CCarMessagem>:

	parsePacket(pPacket, iLength);
}

CCarProtocol::CCarProtocol(alt_u16 uiPacketNumber, CCarMessage **pMessages,
		alt_u32 uiMessageCount) {
 2007404:	defffa04 	addi	sp,sp,-24
 2007408:	df000515 	stw	fp,20(sp)
 200740c:	df000504 	addi	fp,sp,20
 2007410:	e13ffc15 	stw	r4,-16(fp)
 2007414:	e1bffe15 	stw	r6,-8(fp)
 2007418:	e1ffff15 	stw	r7,-4(fp)
 200741c:	e17ffd0d 	sth	r5,-12(fp)
 2007420:	00c08074 	movhi	r3,513
 2007424:	18c9f804 	addi	r3,r3,10208
 2007428:	e0bffc17 	ldw	r2,-16(fp)
 200742c:	10c00015 	stw	r3,0(r2)
	m_uiPacketNumber = uiPacketNumber;
 2007430:	e0fffc17 	ldw	r3,-16(fp)
 2007434:	e0bffd0b 	ldhu	r2,-12(fp)
 2007438:	1880018d 	sth	r2,6(r3)

	for (alt_u32 i = 0; i < uiMessageCount; i++) {
 200743c:	e03ffb15 	stw	zero,-20(fp)
 2007440:	00001106 	br	2007488 <_ZN12CCarProtocolC2EtPP11CCarMessagem+0x84>
		m_pMessages[i] = pMessages[i];
 2007444:	e13ffb17 	ldw	r4,-20(fp)
 2007448:	e0bffb17 	ldw	r2,-20(fp)
 200744c:	1085883a 	add	r2,r2,r2
 2007450:	1085883a 	add	r2,r2,r2
 2007454:	1007883a 	mov	r3,r2
 2007458:	e0bffe17 	ldw	r2,-8(fp)
 200745c:	1885883a 	add	r2,r3,r2
 2007460:	11400017 	ldw	r5,0(r2)
 2007464:	e0fffc17 	ldw	r3,-16(fp)
 2007468:	2105883a 	add	r2,r4,r4
 200746c:	1085883a 	add	r2,r2,r2
 2007470:	10c5883a 	add	r2,r2,r3
 2007474:	10800204 	addi	r2,r2,8
 2007478:	11400015 	stw	r5,0(r2)

CCarProtocol::CCarProtocol(alt_u16 uiPacketNumber, CCarMessage **pMessages,
		alt_u32 uiMessageCount) {
	m_uiPacketNumber = uiPacketNumber;

	for (alt_u32 i = 0; i < uiMessageCount; i++) {
 200747c:	e0bffb17 	ldw	r2,-20(fp)
 2007480:	10800044 	addi	r2,r2,1
 2007484:	e0bffb15 	stw	r2,-20(fp)
 2007488:	e0fffb17 	ldw	r3,-20(fp)
 200748c:	e0bfff17 	ldw	r2,-4(fp)
 2007490:	18bfec36 	bltu	r3,r2,2007444 <_ZN12CCarProtocolC2EtPP11CCarMessagem+0x40>
		m_pMessages[i] = pMessages[i];
	}

	m_uiMessageCount = uiMessageCount;
 2007494:	e0fffc17 	ldw	r3,-16(fp)
 2007498:	e0bfff17 	ldw	r2,-4(fp)
 200749c:	18800a15 	stw	r2,40(r3)

	m_bValid = true;
 20074a0:	e0fffc17 	ldw	r3,-16(fp)
 20074a4:	00800044 	movi	r2,1
 20074a8:	18800105 	stb	r2,4(r3)
	m_bThereIsMore = false;
 20074ac:	e0bffc17 	ldw	r2,-16(fp)
 20074b0:	10000145 	stb	zero,5(r2)
}
 20074b4:	e037883a 	mov	sp,fp
 20074b8:	df000017 	ldw	fp,0(sp)
 20074bc:	dec00104 	addi	sp,sp,4
 20074c0:	f800283a 	ret

020074c4 <_ZN12CCarProtocolC1EtPP11CCarMessagem>:

	parsePacket(pPacket, iLength);
}

CCarProtocol::CCarProtocol(alt_u16 uiPacketNumber, CCarMessage **pMessages,
		alt_u32 uiMessageCount) {
 20074c4:	defffa04 	addi	sp,sp,-24
 20074c8:	df000515 	stw	fp,20(sp)
 20074cc:	df000504 	addi	fp,sp,20
 20074d0:	e13ffc15 	stw	r4,-16(fp)
 20074d4:	e1bffe15 	stw	r6,-8(fp)
 20074d8:	e1ffff15 	stw	r7,-4(fp)
 20074dc:	e17ffd0d 	sth	r5,-12(fp)
 20074e0:	00c08074 	movhi	r3,513
 20074e4:	18c9f804 	addi	r3,r3,10208
 20074e8:	e0bffc17 	ldw	r2,-16(fp)
 20074ec:	10c00015 	stw	r3,0(r2)
	m_uiPacketNumber = uiPacketNumber;
 20074f0:	e0fffc17 	ldw	r3,-16(fp)
 20074f4:	e0bffd0b 	ldhu	r2,-12(fp)
 20074f8:	1880018d 	sth	r2,6(r3)

	for (alt_u32 i = 0; i < uiMessageCount; i++) {
 20074fc:	e03ffb15 	stw	zero,-20(fp)
 2007500:	00001106 	br	2007548 <_ZN12CCarProtocolC1EtPP11CCarMessagem+0x84>
		m_pMessages[i] = pMessages[i];
 2007504:	e13ffb17 	ldw	r4,-20(fp)
 2007508:	e0bffb17 	ldw	r2,-20(fp)
 200750c:	1085883a 	add	r2,r2,r2
 2007510:	1085883a 	add	r2,r2,r2
 2007514:	1007883a 	mov	r3,r2
 2007518:	e0bffe17 	ldw	r2,-8(fp)
 200751c:	1885883a 	add	r2,r3,r2
 2007520:	11400017 	ldw	r5,0(r2)
 2007524:	e0fffc17 	ldw	r3,-16(fp)
 2007528:	2105883a 	add	r2,r4,r4
 200752c:	1085883a 	add	r2,r2,r2
 2007530:	10c5883a 	add	r2,r2,r3
 2007534:	10800204 	addi	r2,r2,8
 2007538:	11400015 	stw	r5,0(r2)

CCarProtocol::CCarProtocol(alt_u16 uiPacketNumber, CCarMessage **pMessages,
		alt_u32 uiMessageCount) {
	m_uiPacketNumber = uiPacketNumber;

	for (alt_u32 i = 0; i < uiMessageCount; i++) {
 200753c:	e0bffb17 	ldw	r2,-20(fp)
 2007540:	10800044 	addi	r2,r2,1
 2007544:	e0bffb15 	stw	r2,-20(fp)
 2007548:	e0fffb17 	ldw	r3,-20(fp)
 200754c:	e0bfff17 	ldw	r2,-4(fp)
 2007550:	18bfec36 	bltu	r3,r2,2007504 <_ZN12CCarProtocolC1EtPP11CCarMessagem+0x40>
		m_pMessages[i] = pMessages[i];
	}

	m_uiMessageCount = uiMessageCount;
 2007554:	e0fffc17 	ldw	r3,-16(fp)
 2007558:	e0bfff17 	ldw	r2,-4(fp)
 200755c:	18800a15 	stw	r2,40(r3)

	m_bValid = true;
 2007560:	e0fffc17 	ldw	r3,-16(fp)
 2007564:	00800044 	movi	r2,1
 2007568:	18800105 	stb	r2,4(r3)
	m_bThereIsMore = false;
 200756c:	e0bffc17 	ldw	r2,-16(fp)
 2007570:	10000145 	stb	zero,5(r2)
}
 2007574:	e037883a 	mov	sp,fp
 2007578:	df000017 	ldw	fp,0(sp)
 200757c:	dec00104 	addi	sp,sp,4
 2007580:	f800283a 	ret

02007584 <_ZN12CCarProtocol7isValidEv>:
		}
	}

}

bool CCarProtocol::isValid() {
 2007584:	defffe04 	addi	sp,sp,-8
 2007588:	df000115 	stw	fp,4(sp)
 200758c:	df000104 	addi	fp,sp,4
 2007590:	e13fff15 	stw	r4,-4(fp)
	return m_bValid;
 2007594:	e0bfff17 	ldw	r2,-4(fp)
 2007598:	10800103 	ldbu	r2,4(r2)
 200759c:	10803fcc 	andi	r2,r2,255
}
 20075a0:	e037883a 	mov	sp,fp
 20075a4:	df000017 	ldw	fp,0(sp)
 20075a8:	dec00104 	addi	sp,sp,4
 20075ac:	f800283a 	ret

020075b0 <_ZN12CCarProtocol9getLengthEv>:
	}

	return m_bValid;
}

alt_u32 CCarProtocol::getLength() {
 20075b0:	defffb04 	addi	sp,sp,-20
 20075b4:	dfc00415 	stw	ra,16(sp)
 20075b8:	df000315 	stw	fp,12(sp)
 20075bc:	df000304 	addi	fp,sp,12
 20075c0:	e13fff15 	stw	r4,-4(fp)
	alt_u32 uiLength = 8;
 20075c4:	00800204 	movi	r2,8
 20075c8:	e0bffe15 	stw	r2,-8(fp)

	for (alt_u32 i = 0; i < m_uiMessageCount; i++) {
 20075cc:	e03ffd15 	stw	zero,-12(fp)
 20075d0:	00001906 	br	2007638 <_ZN12CCarProtocol9getLengthEv+0x88>
		uiLength += m_pMessages[i]->getLength();
 20075d4:	e0bffd17 	ldw	r2,-12(fp)
 20075d8:	e0ffff17 	ldw	r3,-4(fp)
 20075dc:	1085883a 	add	r2,r2,r2
 20075e0:	1085883a 	add	r2,r2,r2
 20075e4:	10c5883a 	add	r2,r2,r3
 20075e8:	10800204 	addi	r2,r2,8
 20075ec:	10800017 	ldw	r2,0(r2)
 20075f0:	10800017 	ldw	r2,0(r2)
 20075f4:	10800404 	addi	r2,r2,16
 20075f8:	11400017 	ldw	r5,0(r2)
 20075fc:	e0bffd17 	ldw	r2,-12(fp)
 2007600:	e0ffff17 	ldw	r3,-4(fp)
 2007604:	1085883a 	add	r2,r2,r2
 2007608:	1085883a 	add	r2,r2,r2
 200760c:	10c5883a 	add	r2,r2,r3
 2007610:	10800204 	addi	r2,r2,8
 2007614:	11000017 	ldw	r4,0(r2)
 2007618:	283ee83a 	callr	r5
 200761c:	1007883a 	mov	r3,r2
 2007620:	e0bffe17 	ldw	r2,-8(fp)
 2007624:	10c5883a 	add	r2,r2,r3
 2007628:	e0bffe15 	stw	r2,-8(fp)
}

alt_u32 CCarProtocol::getLength() {
	alt_u32 uiLength = 8;

	for (alt_u32 i = 0; i < m_uiMessageCount; i++) {
 200762c:	e0bffd17 	ldw	r2,-12(fp)
 2007630:	10800044 	addi	r2,r2,1
 2007634:	e0bffd15 	stw	r2,-12(fp)
 2007638:	e0bfff17 	ldw	r2,-4(fp)
 200763c:	10c00a17 	ldw	r3,40(r2)
 2007640:	e0bffd17 	ldw	r2,-12(fp)
 2007644:	10ffe336 	bltu	r2,r3,20075d4 <_ZN12CCarProtocol9getLengthEv+0x24>
		uiLength += m_pMessages[i]->getLength();
	}

	return uiLength;
 2007648:	e0bffe17 	ldw	r2,-8(fp)
}
 200764c:	e037883a 	mov	sp,fp
 2007650:	dfc00117 	ldw	ra,4(sp)
 2007654:	df000017 	ldw	fp,0(sp)
 2007658:	dec00204 	addi	sp,sp,8
 200765c:	f800283a 	ret

02007660 <_ZN12CCarProtocol13getNthMessageEm>:

CCarMessage *CCarProtocol::getNthMessage(alt_u32 uiIdx) {
 2007660:	defffc04 	addi	sp,sp,-16
 2007664:	df000315 	stw	fp,12(sp)
 2007668:	df000304 	addi	fp,sp,12
 200766c:	e13ffd15 	stw	r4,-12(fp)
 2007670:	e17ffe15 	stw	r5,-8(fp)
	if (uiIdx >= m_uiMessageCount)
 2007674:	e0bffd17 	ldw	r2,-12(fp)
 2007678:	10c00a17 	ldw	r3,40(r2)
 200767c:	e0bffe17 	ldw	r2,-8(fp)
 2007680:	10c00236 	bltu	r2,r3,200768c <_ZN12CCarProtocol13getNthMessageEm+0x2c>
		return 0;
 2007684:	e03fff15 	stw	zero,-4(fp)
 2007688:	00000806 	br	20076ac <_ZN12CCarProtocol13getNthMessageEm+0x4c>

	return m_pMessages[uiIdx];
 200768c:	e0bffe17 	ldw	r2,-8(fp)
 2007690:	e0fffd17 	ldw	r3,-12(fp)
 2007694:	1085883a 	add	r2,r2,r2
 2007698:	1085883a 	add	r2,r2,r2
 200769c:	10c5883a 	add	r2,r2,r3
 20076a0:	10800204 	addi	r2,r2,8
 20076a4:	10800017 	ldw	r2,0(r2)
 20076a8:	e0bfff15 	stw	r2,-4(fp)
 20076ac:	e0bfff17 	ldw	r2,-4(fp)
}
 20076b0:	e037883a 	mov	sp,fp
 20076b4:	df000017 	ldw	fp,0(sp)
 20076b8:	dec00104 	addi	sp,sp,4
 20076bc:	f800283a 	ret

020076c0 <_ZN12CCarProtocol15getMessageCountEv>:

alt_u32 CCarProtocol::getMessageCount() {
 20076c0:	defffe04 	addi	sp,sp,-8
 20076c4:	df000115 	stw	fp,4(sp)
 20076c8:	df000104 	addi	fp,sp,4
 20076cc:	e13fff15 	stw	r4,-4(fp)
	return m_uiMessageCount;
 20076d0:	e0bfff17 	ldw	r2,-4(fp)
 20076d4:	10800a17 	ldw	r2,40(r2)
}
 20076d8:	e037883a 	mov	sp,fp
 20076dc:	df000017 	ldw	fp,0(sp)
 20076e0:	dec00104 	addi	sp,sp,4
 20076e4:	f800283a 	ret

020076e8 <_ZN12CCarProtocol8getBytesEPh>:

bool CCarProtocol::isValid() {
	return m_bValid;
}

bool CCarProtocol::getBytes(alt_u8 *pPacket) {
 20076e8:	defff804 	addi	sp,sp,-32
 20076ec:	dfc00715 	stw	ra,28(sp)
 20076f0:	df000615 	stw	fp,24(sp)
 20076f4:	dc000515 	stw	r16,20(sp)
 20076f8:	df000504 	addi	fp,sp,20
 20076fc:	e13ffd15 	stw	r4,-12(fp)
 2007700:	e17ffe15 	stw	r5,-8(fp)
	alt_u16 uiLength = (alt_u16) getLength();
 2007704:	e13ffd17 	ldw	r4,-12(fp)
 2007708:	20075b00 	call	20075b0 <_ZN12CCarProtocol9getLengthEv>
 200770c:	e0bffc8d 	sth	r2,-14(fp)
	alt_u16 uiOffset = 8;
 2007710:	00800204 	movi	r2,8
 2007714:	e0bffc0d 	sth	r2,-16(fp)

	if (!m_bValid)
 2007718:	e0bffd17 	ldw	r2,-12(fp)
 200771c:	10800103 	ldbu	r2,4(r2)
 2007720:	1080005c 	xori	r2,r2,1
 2007724:	10803fcc 	andi	r2,r2,255
 2007728:	1005003a 	cmpeq	r2,r2,zero
 200772c:	1000051e 	bne	r2,zero,2007744 <_ZN12CCarProtocol8getBytesEPh+0x5c>
		return m_bValid;
 2007730:	e0bffd17 	ldw	r2,-12(fp)
 2007734:	10800103 	ldbu	r2,4(r2)
 2007738:	10803fcc 	andi	r2,r2,255
 200773c:	e0bfff15 	stw	r2,-4(fp)
 2007740:	00006506 	br	20078d8 <_ZN12CCarProtocol8getBytesEPh+0x1f0>

	pPacket[0] = 'C';
 2007744:	e0fffe17 	ldw	r3,-8(fp)
 2007748:	008010c4 	movi	r2,67
 200774c:	18800005 	stb	r2,0(r3)
	pPacket[1] = 'A';
 2007750:	e0bffe17 	ldw	r2,-8(fp)
 2007754:	10c00044 	addi	r3,r2,1
 2007758:	00801044 	movi	r2,65
 200775c:	18800005 	stb	r2,0(r3)
	pPacket[2] = 'R';
 2007760:	e0bffe17 	ldw	r2,-8(fp)
 2007764:	10c00084 	addi	r3,r2,2
 2007768:	00801484 	movi	r2,82
 200776c:	18800005 	stb	r2,0(r3)
	pPacket[3] = 'P';
 2007770:	e0bffe17 	ldw	r2,-8(fp)
 2007774:	10c000c4 	addi	r3,r2,3
 2007778:	00801404 	movi	r2,80
 200777c:	18800005 	stb	r2,0(r3)

	*((alt_u16*) (pPacket + 4)) = m_uiPacketNumber;
 2007780:	e0bffe17 	ldw	r2,-8(fp)
 2007784:	10800104 	addi	r2,r2,4
 2007788:	1007883a 	mov	r3,r2
 200778c:	e0bffd17 	ldw	r2,-12(fp)
 2007790:	1080018b 	ldhu	r2,6(r2)
 2007794:	1880000d 	sth	r2,0(r3)
	swapEndianess(pPacket + 4, 2);
 2007798:	e0bffe17 	ldw	r2,-8(fp)
 200779c:	11000104 	addi	r4,r2,4
 20077a0:	01400084 	movi	r5,2
 20077a4:	20002480 	call	2000248 <_Z13swapEndianessPhm>

	*((alt_u16*) (pPacket + 6)) = uiLength - 8;
 20077a8:	e0bffe17 	ldw	r2,-8(fp)
 20077ac:	10800184 	addi	r2,r2,6
 20077b0:	1007883a 	mov	r3,r2
 20077b4:	e0bffc8b 	ldhu	r2,-14(fp)
 20077b8:	10bffe04 	addi	r2,r2,-8
 20077bc:	1880000d 	sth	r2,0(r3)
	swapEndianess(pPacket + 6, 2);
 20077c0:	e0bffe17 	ldw	r2,-8(fp)
 20077c4:	11000184 	addi	r4,r2,6
 20077c8:	01400084 	movi	r5,2
 20077cc:	20002480 	call	2000248 <_Z13swapEndianessPhm>

	for (alt_u32 i = 0; i < m_uiMessageCount; i++) {
 20077d0:	e03ffb15 	stw	zero,-20(fp)
 20077d4:	00003806 	br	20078b8 <_ZN12CCarProtocol8getBytesEPh+0x1d0>
		m_bValid &= m_pMessages[i]->getBytes(pPacket + uiOffset);
 20077d8:	e0bffd17 	ldw	r2,-12(fp)
 20077dc:	10800103 	ldbu	r2,4(r2)
 20077e0:	14003fcc 	andi	r16,r2,255
 20077e4:	e0bffb17 	ldw	r2,-20(fp)
 20077e8:	e0fffd17 	ldw	r3,-12(fp)
 20077ec:	1085883a 	add	r2,r2,r2
 20077f0:	1085883a 	add	r2,r2,r2
 20077f4:	10c5883a 	add	r2,r2,r3
 20077f8:	10800204 	addi	r2,r2,8
 20077fc:	10800017 	ldw	r2,0(r2)
 2007800:	10800017 	ldw	r2,0(r2)
 2007804:	10800304 	addi	r2,r2,12
 2007808:	11800017 	ldw	r6,0(r2)
 200780c:	e0bffb17 	ldw	r2,-20(fp)
 2007810:	e0fffd17 	ldw	r3,-12(fp)
 2007814:	1085883a 	add	r2,r2,r2
 2007818:	1085883a 	add	r2,r2,r2
 200781c:	10c5883a 	add	r2,r2,r3
 2007820:	10800204 	addi	r2,r2,8
 2007824:	11000017 	ldw	r4,0(r2)
 2007828:	e0bffc0b 	ldhu	r2,-16(fp)
 200782c:	1007883a 	mov	r3,r2
 2007830:	e0bffe17 	ldw	r2,-8(fp)
 2007834:	188b883a 	add	r5,r3,r2
 2007838:	303ee83a 	callr	r6
 200783c:	10803fcc 	andi	r2,r2,255
 2007840:	8084703a 	and	r2,r16,r2
 2007844:	1004c03a 	cmpne	r2,r2,zero
 2007848:	1007883a 	mov	r3,r2
 200784c:	e0bffd17 	ldw	r2,-12(fp)
 2007850:	10c00105 	stb	r3,4(r2)
		uiOffset += m_pMessages[i]->getLength();
 2007854:	e0bffb17 	ldw	r2,-20(fp)
 2007858:	e0fffd17 	ldw	r3,-12(fp)
 200785c:	1085883a 	add	r2,r2,r2
 2007860:	1085883a 	add	r2,r2,r2
 2007864:	10c5883a 	add	r2,r2,r3
 2007868:	10800204 	addi	r2,r2,8
 200786c:	10800017 	ldw	r2,0(r2)
 2007870:	10800017 	ldw	r2,0(r2)
 2007874:	10800404 	addi	r2,r2,16
 2007878:	11400017 	ldw	r5,0(r2)
 200787c:	e0bffb17 	ldw	r2,-20(fp)
 2007880:	e0fffd17 	ldw	r3,-12(fp)
 2007884:	1085883a 	add	r2,r2,r2
 2007888:	1085883a 	add	r2,r2,r2
 200788c:	10c5883a 	add	r2,r2,r3
 2007890:	10800204 	addi	r2,r2,8
 2007894:	11000017 	ldw	r4,0(r2)
 2007898:	283ee83a 	callr	r5
 200789c:	1007883a 	mov	r3,r2
 20078a0:	e0bffc0b 	ldhu	r2,-16(fp)
 20078a4:	10c5883a 	add	r2,r2,r3
 20078a8:	e0bffc0d 	sth	r2,-16(fp)
	swapEndianess(pPacket + 4, 2);

	*((alt_u16*) (pPacket + 6)) = uiLength - 8;
	swapEndianess(pPacket + 6, 2);

	for (alt_u32 i = 0; i < m_uiMessageCount; i++) {
 20078ac:	e0bffb17 	ldw	r2,-20(fp)
 20078b0:	10800044 	addi	r2,r2,1
 20078b4:	e0bffb15 	stw	r2,-20(fp)
 20078b8:	e0bffd17 	ldw	r2,-12(fp)
 20078bc:	10c00a17 	ldw	r3,40(r2)
 20078c0:	e0bffb17 	ldw	r2,-20(fp)
 20078c4:	10ffc436 	bltu	r2,r3,20077d8 <_ZN12CCarProtocol8getBytesEPh+0xf0>
		m_bValid &= m_pMessages[i]->getBytes(pPacket + uiOffset);
		uiOffset += m_pMessages[i]->getLength();
	}

	return m_bValid;
 20078c8:	e0bffd17 	ldw	r2,-12(fp)
 20078cc:	10800103 	ldbu	r2,4(r2)
 20078d0:	10803fcc 	andi	r2,r2,255
 20078d4:	e0bfff15 	stw	r2,-4(fp)
 20078d8:	e0bfff17 	ldw	r2,-4(fp)
}
 20078dc:	e037883a 	mov	sp,fp
 20078e0:	dfc00217 	ldw	ra,8(sp)
 20078e4:	df000117 	ldw	fp,4(sp)
 20078e8:	dc000017 	ldw	r16,0(sp)
 20078ec:	dec00304 	addi	sp,sp,12
 20078f0:	f800283a 	ret

020078f4 <_ZN12CCarProtocolD0Ev>:

	m_bValid = true;
	m_bThereIsMore = false;
}

CCarProtocol::~CCarProtocol() {
 20078f4:	defffc04 	addi	sp,sp,-16
 20078f8:	dfc00315 	stw	ra,12(sp)
 20078fc:	df000215 	stw	fp,8(sp)
 2007900:	df000204 	addi	fp,sp,8
 2007904:	e13fff15 	stw	r4,-4(fp)
 2007908:	00c08074 	movhi	r3,513
 200790c:	18c9f804 	addi	r3,r3,10208
 2007910:	e0bfff17 	ldw	r2,-4(fp)
 2007914:	10c00015 	stw	r3,0(r2)
	for (alt_u32 i = 0; i < m_uiMessageCount; i++) {
 2007918:	e03ffe15 	stw	zero,-8(fp)
 200791c:	00002e06 	br	20079d8 <_ZN12CCarProtocolD0Ev+0xe4>
		if (m_pMessages[i] != 0)
 2007920:	e0bffe17 	ldw	r2,-8(fp)
 2007924:	e0ffff17 	ldw	r3,-4(fp)
 2007928:	1085883a 	add	r2,r2,r2
 200792c:	1085883a 	add	r2,r2,r2
 2007930:	10c5883a 	add	r2,r2,r3
 2007934:	10800204 	addi	r2,r2,8
 2007938:	10800017 	ldw	r2,0(r2)
 200793c:	1005003a 	cmpeq	r2,r2,zero
 2007940:	10001b1e 	bne	r2,zero,20079b0 <_ZN12CCarProtocolD0Ev+0xbc>
			delete (m_pMessages[i]);
 2007944:	e0bffe17 	ldw	r2,-8(fp)
 2007948:	e0ffff17 	ldw	r3,-4(fp)
 200794c:	1085883a 	add	r2,r2,r2
 2007950:	1085883a 	add	r2,r2,r2
 2007954:	10c5883a 	add	r2,r2,r3
 2007958:	10800204 	addi	r2,r2,8
 200795c:	10800017 	ldw	r2,0(r2)
 2007960:	1005003a 	cmpeq	r2,r2,zero
 2007964:	1000121e 	bne	r2,zero,20079b0 <_ZN12CCarProtocolD0Ev+0xbc>
 2007968:	e0bffe17 	ldw	r2,-8(fp)
 200796c:	e0ffff17 	ldw	r3,-4(fp)
 2007970:	1085883a 	add	r2,r2,r2
 2007974:	1085883a 	add	r2,r2,r2
 2007978:	10c5883a 	add	r2,r2,r3
 200797c:	10800204 	addi	r2,r2,8
 2007980:	10800017 	ldw	r2,0(r2)
 2007984:	10800017 	ldw	r2,0(r2)
 2007988:	10800104 	addi	r2,r2,4
 200798c:	11400017 	ldw	r5,0(r2)
 2007990:	e0bffe17 	ldw	r2,-8(fp)
 2007994:	e0ffff17 	ldw	r3,-4(fp)
 2007998:	1085883a 	add	r2,r2,r2
 200799c:	1085883a 	add	r2,r2,r2
 20079a0:	10c5883a 	add	r2,r2,r3
 20079a4:	10800204 	addi	r2,r2,8
 20079a8:	11000017 	ldw	r4,0(r2)
 20079ac:	283ee83a 	callr	r5
		m_pMessages[i] = 0;
 20079b0:	e0bffe17 	ldw	r2,-8(fp)
 20079b4:	e0ffff17 	ldw	r3,-4(fp)
 20079b8:	1085883a 	add	r2,r2,r2
 20079bc:	1085883a 	add	r2,r2,r2
 20079c0:	10c5883a 	add	r2,r2,r3
 20079c4:	10800204 	addi	r2,r2,8
 20079c8:	10000015 	stw	zero,0(r2)
	m_bValid = true;
	m_bThereIsMore = false;
}

CCarProtocol::~CCarProtocol() {
	for (alt_u32 i = 0; i < m_uiMessageCount; i++) {
 20079cc:	e0bffe17 	ldw	r2,-8(fp)
 20079d0:	10800044 	addi	r2,r2,1
 20079d4:	e0bffe15 	stw	r2,-8(fp)
 20079d8:	e0bfff17 	ldw	r2,-4(fp)
 20079dc:	10c00a17 	ldw	r3,40(r2)
 20079e0:	e0bffe17 	ldw	r2,-8(fp)
 20079e4:	10ffce36 	bltu	r2,r3,2007920 <_ZN12CCarProtocolD0Ev+0x2c>
		if (m_pMessages[i] != 0)
			delete (m_pMessages[i]);
		m_pMessages[i] = 0;
	}
}
 20079e8:	00800044 	movi	r2,1
 20079ec:	10803fcc 	andi	r2,r2,255
 20079f0:	1005003a 	cmpeq	r2,r2,zero
 20079f4:	1000021e 	bne	r2,zero,2007a00 <_ZN12CCarProtocolD0Ev+0x10c>
 20079f8:	e13fff17 	ldw	r4,-4(fp)
 20079fc:	200bc9c0 	call	200bc9c <_ZdlPv>
 2007a00:	e037883a 	mov	sp,fp
 2007a04:	dfc00117 	ldw	ra,4(sp)
 2007a08:	df000017 	ldw	fp,0(sp)
 2007a0c:	dec00204 	addi	sp,sp,8
 2007a10:	f800283a 	ret

02007a14 <_ZN12CCarProtocolD1Ev>:

	m_bValid = true;
	m_bThereIsMore = false;
}

CCarProtocol::~CCarProtocol() {
 2007a14:	defffc04 	addi	sp,sp,-16
 2007a18:	dfc00315 	stw	ra,12(sp)
 2007a1c:	df000215 	stw	fp,8(sp)
 2007a20:	df000204 	addi	fp,sp,8
 2007a24:	e13fff15 	stw	r4,-4(fp)
 2007a28:	00c08074 	movhi	r3,513
 2007a2c:	18c9f804 	addi	r3,r3,10208
 2007a30:	e0bfff17 	ldw	r2,-4(fp)
 2007a34:	10c00015 	stw	r3,0(r2)
	for (alt_u32 i = 0; i < m_uiMessageCount; i++) {
 2007a38:	e03ffe15 	stw	zero,-8(fp)
 2007a3c:	00002e06 	br	2007af8 <_ZN12CCarProtocolD1Ev+0xe4>
		if (m_pMessages[i] != 0)
 2007a40:	e0bffe17 	ldw	r2,-8(fp)
 2007a44:	e0ffff17 	ldw	r3,-4(fp)
 2007a48:	1085883a 	add	r2,r2,r2
 2007a4c:	1085883a 	add	r2,r2,r2
 2007a50:	10c5883a 	add	r2,r2,r3
 2007a54:	10800204 	addi	r2,r2,8
 2007a58:	10800017 	ldw	r2,0(r2)
 2007a5c:	1005003a 	cmpeq	r2,r2,zero
 2007a60:	10001b1e 	bne	r2,zero,2007ad0 <_ZN12CCarProtocolD1Ev+0xbc>
			delete (m_pMessages[i]);
 2007a64:	e0bffe17 	ldw	r2,-8(fp)
 2007a68:	e0ffff17 	ldw	r3,-4(fp)
 2007a6c:	1085883a 	add	r2,r2,r2
 2007a70:	1085883a 	add	r2,r2,r2
 2007a74:	10c5883a 	add	r2,r2,r3
 2007a78:	10800204 	addi	r2,r2,8
 2007a7c:	10800017 	ldw	r2,0(r2)
 2007a80:	1005003a 	cmpeq	r2,r2,zero
 2007a84:	1000121e 	bne	r2,zero,2007ad0 <_ZN12CCarProtocolD1Ev+0xbc>
 2007a88:	e0bffe17 	ldw	r2,-8(fp)
 2007a8c:	e0ffff17 	ldw	r3,-4(fp)
 2007a90:	1085883a 	add	r2,r2,r2
 2007a94:	1085883a 	add	r2,r2,r2
 2007a98:	10c5883a 	add	r2,r2,r3
 2007a9c:	10800204 	addi	r2,r2,8
 2007aa0:	10800017 	ldw	r2,0(r2)
 2007aa4:	10800017 	ldw	r2,0(r2)
 2007aa8:	10800104 	addi	r2,r2,4
 2007aac:	11400017 	ldw	r5,0(r2)
 2007ab0:	e0bffe17 	ldw	r2,-8(fp)
 2007ab4:	e0ffff17 	ldw	r3,-4(fp)
 2007ab8:	1085883a 	add	r2,r2,r2
 2007abc:	1085883a 	add	r2,r2,r2
 2007ac0:	10c5883a 	add	r2,r2,r3
 2007ac4:	10800204 	addi	r2,r2,8
 2007ac8:	11000017 	ldw	r4,0(r2)
 2007acc:	283ee83a 	callr	r5
		m_pMessages[i] = 0;
 2007ad0:	e0bffe17 	ldw	r2,-8(fp)
 2007ad4:	e0ffff17 	ldw	r3,-4(fp)
 2007ad8:	1085883a 	add	r2,r2,r2
 2007adc:	1085883a 	add	r2,r2,r2
 2007ae0:	10c5883a 	add	r2,r2,r3
 2007ae4:	10800204 	addi	r2,r2,8
 2007ae8:	10000015 	stw	zero,0(r2)
	m_bValid = true;
	m_bThereIsMore = false;
}

CCarProtocol::~CCarProtocol() {
	for (alt_u32 i = 0; i < m_uiMessageCount; i++) {
 2007aec:	e0bffe17 	ldw	r2,-8(fp)
 2007af0:	10800044 	addi	r2,r2,1
 2007af4:	e0bffe15 	stw	r2,-8(fp)
 2007af8:	e0bfff17 	ldw	r2,-4(fp)
 2007afc:	10c00a17 	ldw	r3,40(r2)
 2007b00:	e0bffe17 	ldw	r2,-8(fp)
 2007b04:	10ffce36 	bltu	r2,r3,2007a40 <_ZN12CCarProtocolD1Ev+0x2c>
		if (m_pMessages[i] != 0)
			delete (m_pMessages[i]);
		m_pMessages[i] = 0;
	}
}
 2007b08:	0005883a 	mov	r2,zero
 2007b0c:	10803fcc 	andi	r2,r2,255
 2007b10:	1005003a 	cmpeq	r2,r2,zero
 2007b14:	1000021e 	bne	r2,zero,2007b20 <_ZN12CCarProtocolD1Ev+0x10c>
 2007b18:	e13fff17 	ldw	r4,-4(fp)
 2007b1c:	200bc9c0 	call	200bc9c <_ZdlPv>
 2007b20:	e037883a 	mov	sp,fp
 2007b24:	dfc00117 	ldw	ra,4(sp)
 2007b28:	df000017 	ldw	fp,0(sp)
 2007b2c:	dec00204 	addi	sp,sp,8
 2007b30:	f800283a 	ret

02007b34 <_ZN12CCarProtocolD2Ev>:

	m_bValid = true;
	m_bThereIsMore = false;
}

CCarProtocol::~CCarProtocol() {
 2007b34:	defffc04 	addi	sp,sp,-16
 2007b38:	dfc00315 	stw	ra,12(sp)
 2007b3c:	df000215 	stw	fp,8(sp)
 2007b40:	df000204 	addi	fp,sp,8
 2007b44:	e13fff15 	stw	r4,-4(fp)
 2007b48:	00c08074 	movhi	r3,513
 2007b4c:	18c9f804 	addi	r3,r3,10208
 2007b50:	e0bfff17 	ldw	r2,-4(fp)
 2007b54:	10c00015 	stw	r3,0(r2)
	for (alt_u32 i = 0; i < m_uiMessageCount; i++) {
 2007b58:	e03ffe15 	stw	zero,-8(fp)
 2007b5c:	00002e06 	br	2007c18 <_ZN12CCarProtocolD2Ev+0xe4>
		if (m_pMessages[i] != 0)
 2007b60:	e0bffe17 	ldw	r2,-8(fp)
 2007b64:	e0ffff17 	ldw	r3,-4(fp)
 2007b68:	1085883a 	add	r2,r2,r2
 2007b6c:	1085883a 	add	r2,r2,r2
 2007b70:	10c5883a 	add	r2,r2,r3
 2007b74:	10800204 	addi	r2,r2,8
 2007b78:	10800017 	ldw	r2,0(r2)
 2007b7c:	1005003a 	cmpeq	r2,r2,zero
 2007b80:	10001b1e 	bne	r2,zero,2007bf0 <_ZN12CCarProtocolD2Ev+0xbc>
			delete (m_pMessages[i]);
 2007b84:	e0bffe17 	ldw	r2,-8(fp)
 2007b88:	e0ffff17 	ldw	r3,-4(fp)
 2007b8c:	1085883a 	add	r2,r2,r2
 2007b90:	1085883a 	add	r2,r2,r2
 2007b94:	10c5883a 	add	r2,r2,r3
 2007b98:	10800204 	addi	r2,r2,8
 2007b9c:	10800017 	ldw	r2,0(r2)
 2007ba0:	1005003a 	cmpeq	r2,r2,zero
 2007ba4:	1000121e 	bne	r2,zero,2007bf0 <_ZN12CCarProtocolD2Ev+0xbc>
 2007ba8:	e0bffe17 	ldw	r2,-8(fp)
 2007bac:	e0ffff17 	ldw	r3,-4(fp)
 2007bb0:	1085883a 	add	r2,r2,r2
 2007bb4:	1085883a 	add	r2,r2,r2
 2007bb8:	10c5883a 	add	r2,r2,r3
 2007bbc:	10800204 	addi	r2,r2,8
 2007bc0:	10800017 	ldw	r2,0(r2)
 2007bc4:	10800017 	ldw	r2,0(r2)
 2007bc8:	10800104 	addi	r2,r2,4
 2007bcc:	11400017 	ldw	r5,0(r2)
 2007bd0:	e0bffe17 	ldw	r2,-8(fp)
 2007bd4:	e0ffff17 	ldw	r3,-4(fp)
 2007bd8:	1085883a 	add	r2,r2,r2
 2007bdc:	1085883a 	add	r2,r2,r2
 2007be0:	10c5883a 	add	r2,r2,r3
 2007be4:	10800204 	addi	r2,r2,8
 2007be8:	11000017 	ldw	r4,0(r2)
 2007bec:	283ee83a 	callr	r5
		m_pMessages[i] = 0;
 2007bf0:	e0bffe17 	ldw	r2,-8(fp)
 2007bf4:	e0ffff17 	ldw	r3,-4(fp)
 2007bf8:	1085883a 	add	r2,r2,r2
 2007bfc:	1085883a 	add	r2,r2,r2
 2007c00:	10c5883a 	add	r2,r2,r3
 2007c04:	10800204 	addi	r2,r2,8
 2007c08:	10000015 	stw	zero,0(r2)
	m_bValid = true;
	m_bThereIsMore = false;
}

CCarProtocol::~CCarProtocol() {
	for (alt_u32 i = 0; i < m_uiMessageCount; i++) {
 2007c0c:	e0bffe17 	ldw	r2,-8(fp)
 2007c10:	10800044 	addi	r2,r2,1
 2007c14:	e0bffe15 	stw	r2,-8(fp)
 2007c18:	e0bfff17 	ldw	r2,-4(fp)
 2007c1c:	10c00a17 	ldw	r3,40(r2)
 2007c20:	e0bffe17 	ldw	r2,-8(fp)
 2007c24:	10ffce36 	bltu	r2,r3,2007b60 <_ZN12CCarProtocolD2Ev+0x2c>
		if (m_pMessages[i] != 0)
			delete (m_pMessages[i]);
		m_pMessages[i] = 0;
	}
}
 2007c28:	0005883a 	mov	r2,zero
 2007c2c:	10803fcc 	andi	r2,r2,255
 2007c30:	1005003a 	cmpeq	r2,r2,zero
 2007c34:	1000021e 	bne	r2,zero,2007c40 <_ZN12CCarProtocolD2Ev+0x10c>
 2007c38:	e13fff17 	ldw	r4,-4(fp)
 2007c3c:	200bc9c0 	call	200bc9c <_ZdlPv>
 2007c40:	e037883a 	mov	sp,fp
 2007c44:	dfc00117 	ldw	ra,4(sp)
 2007c48:	df000017 	ldw	fp,0(sp)
 2007c4c:	dec00204 	addi	sp,sp,8
 2007c50:	f800283a 	ret

02007c54 <_ZN12CCarProtocol11parsePacketEPhi>:
 * packets will be ignored!
 *
 * pPacket: byte array containing the byte (network) representation of the packet.
 * iLength: length of the byte stream.
 */
void CCarProtocol::parsePacket(alt_u8 *pPacket, int iLength) {
 2007c54:	deffbd04 	addi	sp,sp,-268
 2007c58:	dfc04215 	stw	ra,264(sp)
 2007c5c:	df004115 	stw	fp,260(sp)
 2007c60:	ddc04015 	stw	r23,256(sp)
 2007c64:	dd803f15 	stw	r22,252(sp)
 2007c68:	dd403e15 	stw	r21,248(sp)
 2007c6c:	dd003d15 	stw	r20,244(sp)
 2007c70:	dcc03c15 	stw	r19,240(sp)
 2007c74:	dc803b15 	stw	r18,236(sp)
 2007c78:	dc403a15 	stw	r17,232(sp)
 2007c7c:	dc003915 	stw	r16,228(sp)
 2007c80:	df003904 	addi	fp,sp,228
 2007c84:	e13fc915 	stw	r4,-220(fp)
 2007c88:	e17fca15 	stw	r5,-216(fp)
 2007c8c:	e1bfcb15 	stw	r6,-212(fp)
 2007c90:	00808074 	movhi	r2,513
 2007c94:	10adca04 	addi	r2,r2,-18648
 2007c98:	e0bfd215 	stw	r2,-184(fp)
 2007c9c:	00808074 	movhi	r2,513
 2007ca0:	10892f84 	addi	r2,r2,9406
 2007ca4:	e0bfd315 	stw	r2,-180(fp)
 2007ca8:	e0bfd404 	addi	r2,fp,-176
 2007cac:	e0ffc704 	addi	r3,fp,-228
 2007cb0:	10c00015 	stw	r3,0(r2)
 2007cb4:	00c08074 	movhi	r3,513
 2007cb8:	18e27804 	addi	r3,r3,-30240
 2007cbc:	10c00115 	stw	r3,4(r2)
 2007cc0:	16c00215 	stw	sp,8(r2)
 2007cc4:	e13fcc04 	addi	r4,fp,-208
 2007cc8:	200d0800 	call	200d080 <_Unwind_SjLj_Register>
	alt_u16 uiPayloadLength; // Payload length as read out of the byte array
	alt_u16 uiPayloadOffset; // Current working point for parsing of the next message
// Will be increment along the message lengths!

// Check Minimum Length 8 (which is the packet-header)
	if (iLength < 8)
 2007ccc:	e0bfcb17 	ldw	r2,-212(fp)
 2007cd0:	10800210 	cmplti	r2,r2,8
 2007cd4:	10037d1e 	bne	r2,zero,2008acc <_ZN12CCarProtocol11parsePacketEPhi+0xe78>
		return;

// Search for 'C' 'A' 'R' 'P'
	for (uiStartIdx = 0; uiStartIdx < iLength; uiStartIdx++) {
 2007cd8:	e03fc78d 	sth	zero,-226(fp)
 2007cdc:	00002606 	br	2007d78 <_ZN12CCarProtocol11parsePacketEPhi+0x124>
		if (pPacket[uiStartIdx] == 'C' && pPacket[uiStartIdx + 1] == 'A'
 2007ce0:	e0bfc78b 	ldhu	r2,-226(fp)
 2007ce4:	1007883a 	mov	r3,r2
 2007ce8:	e0bfca17 	ldw	r2,-216(fp)
 2007cec:	1885883a 	add	r2,r3,r2
 2007cf0:	10800003 	ldbu	r2,0(r2)
 2007cf4:	10803fcc 	andi	r2,r2,255
 2007cf8:	108010d8 	cmpnei	r2,r2,67
 2007cfc:	10001b1e 	bne	r2,zero,2007d6c <_ZN12CCarProtocol11parsePacketEPhi+0x118>
 2007d00:	e0bfc78b 	ldhu	r2,-226(fp)
 2007d04:	1007883a 	mov	r3,r2
 2007d08:	e0bfca17 	ldw	r2,-216(fp)
 2007d0c:	1885883a 	add	r2,r3,r2
 2007d10:	10800044 	addi	r2,r2,1
 2007d14:	10800003 	ldbu	r2,0(r2)
 2007d18:	10803fcc 	andi	r2,r2,255
 2007d1c:	10801058 	cmpnei	r2,r2,65
 2007d20:	1000121e 	bne	r2,zero,2007d6c <_ZN12CCarProtocol11parsePacketEPhi+0x118>
 2007d24:	e0bfc78b 	ldhu	r2,-226(fp)
 2007d28:	1007883a 	mov	r3,r2
 2007d2c:	e0bfca17 	ldw	r2,-216(fp)
 2007d30:	1885883a 	add	r2,r3,r2
 2007d34:	10800084 	addi	r2,r2,2
 2007d38:	10800003 	ldbu	r2,0(r2)
 2007d3c:	10803fcc 	andi	r2,r2,255
 2007d40:	10801498 	cmpnei	r2,r2,82
 2007d44:	1000091e 	bne	r2,zero,2007d6c <_ZN12CCarProtocol11parsePacketEPhi+0x118>
 2007d48:	e0bfc78b 	ldhu	r2,-226(fp)
 2007d4c:	1007883a 	mov	r3,r2
 2007d50:	e0bfca17 	ldw	r2,-216(fp)
 2007d54:	1885883a 	add	r2,r3,r2
 2007d58:	108000c4 	addi	r2,r2,3
 2007d5c:	10800003 	ldbu	r2,0(r2)
 2007d60:	10803fcc 	andi	r2,r2,255
 2007d64:	10801420 	cmpeqi	r2,r2,80
 2007d68:	1000061e 	bne	r2,zero,2007d84 <_ZN12CCarProtocol11parsePacketEPhi+0x130>
// Check Minimum Length 8 (which is the packet-header)
	if (iLength < 8)
		return;

// Search for 'C' 'A' 'R' 'P'
	for (uiStartIdx = 0; uiStartIdx < iLength; uiStartIdx++) {
 2007d6c:	e0bfc78b 	ldhu	r2,-226(fp)
 2007d70:	10800044 	addi	r2,r2,1
 2007d74:	e0bfc78d 	sth	r2,-226(fp)
 2007d78:	e0ffc78b 	ldhu	r3,-226(fp)
 2007d7c:	e0bfcb17 	ldw	r2,-212(fp)
 2007d80:	18bfd716 	blt	r3,r2,2007ce0 <_ZN12CCarProtocol11parsePacketEPhi+0x8c>
				&& pPacket[uiStartIdx + 3] == 'P')
			break;
	}

// Enough space for the header?
	if (uiStartIdx + 8 > iLength)
 2007d84:	e0bfc78b 	ldhu	r2,-226(fp)
 2007d88:	10c00204 	addi	r3,r2,8
 2007d8c:	e0bfcb17 	ldw	r2,-212(fp)
 2007d90:	10c34e16 	blt	r2,r3,2008acc <_ZN12CCarProtocol11parsePacketEPhi+0xe78>
		return;

// Here starts the parsing:
// Parse the payload-Length
	uiPayloadLength = *((alt_u16*) (pPacket + uiStartIdx + 6));
 2007d94:	e0bfc78b 	ldhu	r2,-226(fp)
 2007d98:	1007883a 	mov	r3,r2
 2007d9c:	e0bfca17 	ldw	r2,-216(fp)
 2007da0:	1885883a 	add	r2,r3,r2
 2007da4:	10800184 	addi	r2,r2,6
 2007da8:	1080000b 	ldhu	r2,0(r2)
 2007dac:	e0bfc80d 	sth	r2,-224(fp)
	swapEndianess((alt_u8*) &uiPayloadLength, 2);
 2007db0:	e13fc804 	addi	r4,fp,-224
 2007db4:	00bfffc4 	movi	r2,-1
 2007db8:	e0bfcd15 	stw	r2,-204(fp)
 2007dbc:	01400084 	movi	r5,2
 2007dc0:	20002480 	call	2000248 <_Z13swapEndianessPhm>

// Parse the PacketNumber
	m_uiPacketNumber = *((alt_u16*) (pPacket + uiStartIdx + 4));
 2007dc4:	e0bfc78b 	ldhu	r2,-226(fp)
 2007dc8:	1007883a 	mov	r3,r2
 2007dcc:	e0bfca17 	ldw	r2,-216(fp)
 2007dd0:	1885883a 	add	r2,r3,r2
 2007dd4:	10800104 	addi	r2,r2,4
 2007dd8:	10c0000b 	ldhu	r3,0(r2)
 2007ddc:	e0bfc917 	ldw	r2,-220(fp)
 2007de0:	10c0018d 	sth	r3,6(r2)
	swapEndianess((alt_u8*) &m_uiPacketNumber, 2);
 2007de4:	e0bfc917 	ldw	r2,-220(fp)
 2007de8:	10800184 	addi	r2,r2,6
 2007dec:	1009883a 	mov	r4,r2
 2007df0:	01400084 	movi	r5,2
 2007df4:	20002480 	call	2000248 <_Z13swapEndianessPhm>

// Set the initial member values
	m_bValid = true;
 2007df8:	e0ffc917 	ldw	r3,-220(fp)
 2007dfc:	00800044 	movi	r2,1
 2007e00:	18800105 	stb	r2,4(r3)
	m_uiMessageCount = 0;
 2007e04:	e0bfc917 	ldw	r2,-220(fp)
 2007e08:	10000a15 	stw	zero,40(r2)

// Is there a payload?
	if (uiPayloadLength > 0) {
 2007e0c:	e0bfc80b 	ldhu	r2,-224(fp)
 2007e10:	10bfffcc 	andi	r2,r2,65535
 2007e14:	1005003a 	cmpeq	r2,r2,zero
 2007e18:	10032c1e 	bne	r2,zero,2008acc <_ZN12CCarProtocol11parsePacketEPhi+0xe78>
// Enough space for the payload?
		if (uiStartIdx + 8 + uiPayloadLength > iLength) {
 2007e1c:	e0ffc78b 	ldhu	r3,-226(fp)
 2007e20:	e0bfc80b 	ldhu	r2,-224(fp)
 2007e24:	10bfffcc 	andi	r2,r2,65535
 2007e28:	1885883a 	add	r2,r3,r2
 2007e2c:	10c00204 	addi	r3,r2,8
 2007e30:	e0bfcb17 	ldw	r2,-212(fp)
 2007e34:	10c0060e 	bge	r2,r3,2007e50 <_ZN12CCarProtocol11parsePacketEPhi+0x1fc>
			m_bThereIsMore = true;
 2007e38:	e0bfc917 	ldw	r2,-220(fp)
 2007e3c:	00c00044 	movi	r3,1
 2007e40:	10c00145 	stb	r3,5(r2)
			m_bValid = false;
 2007e44:	e0bfc917 	ldw	r2,-220(fp)
 2007e48:	10000105 	stb	zero,4(r2)
			return;
 2007e4c:	00031f06 	br	2008acc <_ZN12CCarProtocol11parsePacketEPhi+0xe78>
		}

// Increment uiStartIdx to the working point (the first message position)
		uiStartIdx += 8;
 2007e50:	e0bfc78b 	ldhu	r2,-226(fp)
 2007e54:	10800204 	addi	r2,r2,8
 2007e58:	e0bfc78d 	sth	r2,-226(fp)

// Initialize uiPayloadOffset to 0
		uiPayloadOffset = 0;
 2007e5c:	e03fc70d 	sth	zero,-228(fp)

// Do as long there are messages (payload bytes) left and the count of messages dont exceeds 8.
		while (uiPayloadOffset < uiPayloadLength && m_uiMessageCount < 8) {
 2007e60:	00031206 	br	2008aac <_ZN12CCarProtocol11parsePacketEPhi+0xe58>
// Parse the message type and switch along it
		switch (pPacket[uiStartIdx + uiPayloadOffset]) {
 2007e64:	e0ffc78b 	ldhu	r3,-226(fp)
 2007e68:	e0bfc70b 	ldhu	r2,-228(fp)
 2007e6c:	1885883a 	add	r2,r3,r2
 2007e70:	1007883a 	mov	r3,r2
 2007e74:	e0bfca17 	ldw	r2,-216(fp)
 2007e78:	1885883a 	add	r2,r3,r2
 2007e7c:	10800003 	ldbu	r2,0(r2)
 2007e80:	10803fcc 	andi	r2,r2,255
 2007e84:	e0bffd15 	stw	r2,-12(fp)
 2007e88:	e13ffd17 	ldw	r4,-12(fp)
 2007e8c:	20801868 	cmpgeui	r2,r4,97
 2007e90:	1003031e 	bne	r2,zero,2008aa0 <_ZN12CCarProtocol11parsePacketEPhi+0xe4c>
 2007e94:	e17ffd17 	ldw	r5,-12(fp)
 2007e98:	e17ffd17 	ldw	r5,-12(fp)
 2007e9c:	2945883a 	add	r2,r5,r5
 2007ea0:	1087883a 	add	r3,r2,r2
 2007ea4:	00808034 	movhi	r2,512
 2007ea8:	109fae04 	addi	r2,r2,32440
 2007eac:	1885883a 	add	r2,r3,r2
 2007eb0:	10800017 	ldw	r2,0(r2)
 2007eb4:	1000683a 	jmp	r2
 2007eb8:	02008aa0 	cmpeqi	r8,zero,554
 2007ebc:	0200803c 	xorhi	r8,zero,512
 2007ec0:	02008aa0 	cmpeqi	r8,zero,554
 2007ec4:	02008aa0 	cmpeqi	r8,zero,554
 2007ec8:	02008104 	movi	r8,516
 2007ecc:	020081cc 	andi	r8,zero,519
 2007ed0:	02008aa0 	cmpeqi	r8,zero,554
 2007ed4:	02008aa0 	cmpeqi	r8,zero,554
 2007ed8:	02008294 	movui	r8,522
 2007edc:	0200835c 	xori	r8,zero,525
 2007ee0:	02008424 	muli	r8,zero,528
 2007ee4:	02008aa0 	cmpeqi	r8,zero,554
 2007ee8:	02008aa0 	cmpeqi	r8,zero,554
 2007eec:	02008aa0 	cmpeqi	r8,zero,554
 2007ef0:	02008aa0 	cmpeqi	r8,zero,554
 2007ef4:	02008aa0 	cmpeqi	r8,zero,554
 2007ef8:	02008aa0 	cmpeqi	r8,zero,554
 2007efc:	02008aa0 	cmpeqi	r8,zero,554
 2007f00:	02008aa0 	cmpeqi	r8,zero,554
 2007f04:	02008aa0 	cmpeqi	r8,zero,554
 2007f08:	02008aa0 	cmpeqi	r8,zero,554
 2007f0c:	02008aa0 	cmpeqi	r8,zero,554
 2007f10:	02008aa0 	cmpeqi	r8,zero,554
 2007f14:	02008aa0 	cmpeqi	r8,zero,554
 2007f18:	02008aa0 	cmpeqi	r8,zero,554
 2007f1c:	02008aa0 	cmpeqi	r8,zero,554
 2007f20:	02008aa0 	cmpeqi	r8,zero,554
 2007f24:	02008aa0 	cmpeqi	r8,zero,554
 2007f28:	02008aa0 	cmpeqi	r8,zero,554
 2007f2c:	02008aa0 	cmpeqi	r8,zero,554
 2007f30:	02008aa0 	cmpeqi	r8,zero,554
 2007f34:	02008aa0 	cmpeqi	r8,zero,554
 2007f38:	02008620 	cmpeqi	r8,zero,536
 2007f3c:	02008aa0 	cmpeqi	r8,zero,554
 2007f40:	02008aa0 	cmpeqi	r8,zero,554
 2007f44:	02008aa0 	cmpeqi	r8,zero,554
 2007f48:	02008aa0 	cmpeqi	r8,zero,554
 2007f4c:	02008aa0 	cmpeqi	r8,zero,554
 2007f50:	02008aa0 	cmpeqi	r8,zero,554
 2007f54:	02008aa0 	cmpeqi	r8,zero,554
 2007f58:	02008aa0 	cmpeqi	r8,zero,554
 2007f5c:	02008aa0 	cmpeqi	r8,zero,554
 2007f60:	02008aa0 	cmpeqi	r8,zero,554
 2007f64:	02008aa0 	cmpeqi	r8,zero,554
 2007f68:	02008aa0 	cmpeqi	r8,zero,554
 2007f6c:	02008aa0 	cmpeqi	r8,zero,554
 2007f70:	02008aa0 	cmpeqi	r8,zero,554
 2007f74:	02008aa0 	cmpeqi	r8,zero,554
 2007f78:	020086e8 	cmpgeui	r8,zero,539
 2007f7c:	02008aa0 	cmpeqi	r8,zero,554
 2007f80:	02008aa0 	cmpeqi	r8,zero,554
 2007f84:	02008aa0 	cmpeqi	r8,zero,554
 2007f88:	02008aa0 	cmpeqi	r8,zero,554
 2007f8c:	02008aa0 	cmpeqi	r8,zero,554
 2007f90:	02008aa0 	cmpeqi	r8,zero,554
 2007f94:	02008aa0 	cmpeqi	r8,zero,554
 2007f98:	02008aa0 	cmpeqi	r8,zero,554
 2007f9c:	02008aa0 	cmpeqi	r8,zero,554
 2007fa0:	02008aa0 	cmpeqi	r8,zero,554
 2007fa4:	02008aa0 	cmpeqi	r8,zero,554
 2007fa8:	02008aa0 	cmpeqi	r8,zero,554
 2007fac:	02008aa0 	cmpeqi	r8,zero,554
 2007fb0:	02008aa0 	cmpeqi	r8,zero,554
 2007fb4:	02008aa0 	cmpeqi	r8,zero,554
 2007fb8:	020087b0 	cmpltui	r8,zero,542
 2007fbc:	02008aa0 	cmpeqi	r8,zero,554
 2007fc0:	02008aa0 	cmpeqi	r8,zero,554
 2007fc4:	02008aa0 	cmpeqi	r8,zero,554
 2007fc8:	02008aa0 	cmpeqi	r8,zero,554
 2007fcc:	02008aa0 	cmpeqi	r8,zero,554
 2007fd0:	02008aa0 	cmpeqi	r8,zero,554
 2007fd4:	02008aa0 	cmpeqi	r8,zero,554
 2007fd8:	02008aa0 	cmpeqi	r8,zero,554
 2007fdc:	02008aa0 	cmpeqi	r8,zero,554
 2007fe0:	02008aa0 	cmpeqi	r8,zero,554
 2007fe4:	02008aa0 	cmpeqi	r8,zero,554
 2007fe8:	02008aa0 	cmpeqi	r8,zero,554
 2007fec:	02008aa0 	cmpeqi	r8,zero,554
 2007ff0:	02008aa0 	cmpeqi	r8,zero,554
 2007ff4:	02008aa0 	cmpeqi	r8,zero,554
 2007ff8:	02008878 	rdprs	r8,zero,545
 2007ffc:	02008aa0 	cmpeqi	r8,zero,554
 2008000:	02008aa0 	cmpeqi	r8,zero,554
 2008004:	02008aa0 	cmpeqi	r8,zero,554
 2008008:	02008aa0 	cmpeqi	r8,zero,554
 200800c:	02008aa0 	cmpeqi	r8,zero,554
 2008010:	02008aa0 	cmpeqi	r8,zero,554
 2008014:	02008aa0 	cmpeqi	r8,zero,554
 2008018:	02008aa0 	cmpeqi	r8,zero,554
 200801c:	02008aa0 	cmpeqi	r8,zero,554
 2008020:	02008aa0 	cmpeqi	r8,zero,554
 2008024:	02008aa0 	cmpeqi	r8,zero,554
 2008028:	02008aa0 	cmpeqi	r8,zero,554
 200802c:	02008aa0 	cmpeqi	r8,zero,554
 2008030:	02008aa0 	cmpeqi	r8,zero,554
 2008034:	02008aa0 	cmpeqi	r8,zero,554
 2008038:	02008940 	call	200894 <__alt_mem_sdram-0x1dff76c>

// WelcomeMessage
			case CARP_MSGID_WELCOME:
				m_pMessages[m_uiMessageCount] = new CWelcomeMessage(
						pPacket + uiStartIdx + uiPayloadOffset,
						uiPayloadLength - uiPayloadOffset);
 200803c:	e0bfc917 	ldw	r2,-220(fp)
 2008040:	10800a17 	ldw	r2,40(r2)
 2008044:	e0bffc15 	stw	r2,-16(fp)
 2008048:	00bfffc4 	movi	r2,-1
 200804c:	e0bfcd15 	stw	r2,-204(fp)
 2008050:	01000504 	movi	r4,20
 2008054:	200bea80 	call	200bea8 <_Znwm>
 2008058:	e0bffb15 	stw	r2,-20(fp)
 200805c:	e0bfc78b 	ldhu	r2,-226(fp)
 2008060:	1007883a 	mov	r3,r2
 2008064:	e0bfca17 	ldw	r2,-216(fp)
 2008068:	1887883a 	add	r3,r3,r2
 200806c:	e0bfc70b 	ldhu	r2,-228(fp)
 2008070:	188b883a 	add	r5,r3,r2
 2008074:	e0bfc80b 	ldhu	r2,-224(fp)
 2008078:	10ffffcc 	andi	r3,r2,65535
 200807c:	e0bfc70b 	ldhu	r2,-228(fp)
 2008080:	188dc83a 	sub	r6,r3,r2
 2008084:	00800304 	movi	r2,12
 2008088:	e0bfcd15 	stw	r2,-204(fp)
 200808c:	e13ffb17 	ldw	r4,-20(fp)
 2008090:	200ad640 	call	200ad64 <_ZN15CWelcomeMessageC1EPhi>
 2008094:	e13ffb17 	ldw	r4,-20(fp)
 2008098:	e0ffc917 	ldw	r3,-220(fp)
 200809c:	e1bffc17 	ldw	r6,-16(fp)
 20080a0:	e1bffc17 	ldw	r6,-16(fp)
 20080a4:	3185883a 	add	r2,r6,r6
 20080a8:	1085883a 	add	r2,r2,r2
 20080ac:	10c5883a 	add	r2,r2,r3
 20080b0:	10800204 	addi	r2,r2,8
 20080b4:	11000015 	stw	r4,0(r2)
				uiPayloadOffset += 12;
 20080b8:	e0bfc70b 	ldhu	r2,-228(fp)
 20080bc:	10800304 	addi	r2,r2,12
 20080c0:	e0bfc70d 	sth	r2,-228(fp)
				m_uiMessageCount++;
 20080c4:	e0bfc917 	ldw	r2,-220(fp)
 20080c8:	10800a17 	ldw	r2,40(r2)
 20080cc:	10c00044 	addi	r3,r2,1
 20080d0:	e0bfc917 	ldw	r2,-220(fp)
 20080d4:	10c00a15 	stw	r3,40(r2)
				break;
 20080d8:	00027406 	br	2008aac <_ZN12CCarProtocol11parsePacketEPhi+0xe58>
 20080dc:	e0bffe17 	ldw	r2,-8(fp)
 20080e0:	e0bfe415 	stw	r2,-112(fp)

// WelcomeMessage
			case CARP_MSGID_WELCOME:
				m_pMessages[m_uiMessageCount] = new CWelcomeMessage(
						pPacket + uiStartIdx + uiPayloadOffset,
						uiPayloadLength - uiPayloadOffset);
 20080e4:	e13ffb17 	ldw	r4,-20(fp)
 20080e8:	200bc9c0 	call	200bc9c <_ZdlPv>
 20080ec:	e0ffe417 	ldw	r3,-112(fp)
 20080f0:	e0fffe15 	stw	r3,-8(fp)
 20080f4:	00bfffc4 	movi	r2,-1
 20080f8:	e0bfcd15 	stw	r2,-204(fp)
 20080fc:	e13ffe17 	ldw	r4,-8(fp)
 2008100:	200d34c0 	call	200d34c <_Unwind_SjLj_Resume>

// MotorVelocity
			case CARP_MSGID_MOTORVELOCITY:
				m_pMessages[m_uiMessageCount] = new CMotorVelocityMessage(
						pPacket + uiStartIdx + uiPayloadOffset,
						uiPayloadLength - uiPayloadOffset);
 2008104:	e0bfc917 	ldw	r2,-220(fp)
 2008108:	10800a17 	ldw	r2,40(r2)
 200810c:	e0bffa15 	stw	r2,-24(fp)
 2008110:	00bfffc4 	movi	r2,-1
 2008114:	e0bfcd15 	stw	r2,-204(fp)
 2008118:	01000404 	movi	r4,16
 200811c:	200bea80 	call	200bea8 <_Znwm>
 2008120:	e0bff915 	stw	r2,-28(fp)
 2008124:	e0bfc78b 	ldhu	r2,-226(fp)
 2008128:	1007883a 	mov	r3,r2
 200812c:	e0bfca17 	ldw	r2,-216(fp)
 2008130:	1887883a 	add	r3,r3,r2
 2008134:	e0bfc70b 	ldhu	r2,-228(fp)
 2008138:	188b883a 	add	r5,r3,r2
 200813c:	e0bfc80b 	ldhu	r2,-224(fp)
 2008140:	10ffffcc 	andi	r3,r2,65535
 2008144:	e0bfc70b 	ldhu	r2,-228(fp)
 2008148:	188dc83a 	sub	r6,r3,r2
 200814c:	008002c4 	movi	r2,11
 2008150:	e0bfcd15 	stw	r2,-204(fp)
 2008154:	e13ff917 	ldw	r4,-28(fp)
 2008158:	20098640 	call	2009864 <_ZN21CMotorVelocityMessageC1EPhi>
 200815c:	e13ff917 	ldw	r4,-28(fp)
 2008160:	e0ffc917 	ldw	r3,-220(fp)
 2008164:	e17ffa17 	ldw	r5,-24(fp)
 2008168:	e17ffa17 	ldw	r5,-24(fp)
 200816c:	2945883a 	add	r2,r5,r5
 2008170:	1085883a 	add	r2,r2,r2
 2008174:	10c5883a 	add	r2,r2,r3
 2008178:	10800204 	addi	r2,r2,8
 200817c:	11000015 	stw	r4,0(r2)
				uiPayloadOffset += 8;
 2008180:	e0bfc70b 	ldhu	r2,-228(fp)
 2008184:	10800204 	addi	r2,r2,8
 2008188:	e0bfc70d 	sth	r2,-228(fp)
				m_uiMessageCount++;
 200818c:	e0bfc917 	ldw	r2,-220(fp)
 2008190:	10800a17 	ldw	r2,40(r2)
 2008194:	10c00044 	addi	r3,r2,1
 2008198:	e0bfc917 	ldw	r2,-220(fp)
 200819c:	10c00a15 	stw	r3,40(r2)
				break;
 20081a0:	00024206 	br	2008aac <_ZN12CCarProtocol11parsePacketEPhi+0xe58>
 20081a4:	e1bffe17 	ldw	r6,-8(fp)
 20081a8:	e1bfe315 	stw	r6,-116(fp)

// MotorVelocity
			case CARP_MSGID_MOTORVELOCITY:
				m_pMessages[m_uiMessageCount] = new CMotorVelocityMessage(
						pPacket + uiStartIdx + uiPayloadOffset,
						uiPayloadLength - uiPayloadOffset);
 20081ac:	e13ff917 	ldw	r4,-28(fp)
 20081b0:	200bc9c0 	call	200bc9c <_ZdlPv>
 20081b4:	e0bfe317 	ldw	r2,-116(fp)
 20081b8:	e0bffe15 	stw	r2,-8(fp)
 20081bc:	00bfffc4 	movi	r2,-1
 20081c0:	e0bfcd15 	stw	r2,-204(fp)
 20081c4:	e13ffe17 	ldw	r4,-8(fp)
 20081c8:	200d34c0 	call	200d34c <_Unwind_SjLj_Resume>

// MotorMeasurement
			case CARP_MSGID_MOTORMEASUREMENT:
				m_pMessages[m_uiMessageCount] = new CMotorMeasurementMessage(
						pPacket + uiStartIdx + uiPayloadOffset,
						uiPayloadLength - uiPayloadOffset);
 20081cc:	e0bfc917 	ldw	r2,-220(fp)
 20081d0:	10800a17 	ldw	r2,40(r2)
 20081d4:	e0bff815 	stw	r2,-32(fp)
 20081d8:	00bfffc4 	movi	r2,-1
 20081dc:	e0bfcd15 	stw	r2,-204(fp)
 20081e0:	01000604 	movi	r4,24
 20081e4:	200bea80 	call	200bea8 <_Znwm>
 20081e8:	e0bff715 	stw	r2,-36(fp)
 20081ec:	e0bfc78b 	ldhu	r2,-226(fp)
 20081f0:	1007883a 	mov	r3,r2
 20081f4:	e0bfca17 	ldw	r2,-216(fp)
 20081f8:	1887883a 	add	r3,r3,r2
 20081fc:	e0bfc70b 	ldhu	r2,-228(fp)
 2008200:	188b883a 	add	r5,r3,r2
 2008204:	e0bfc80b 	ldhu	r2,-224(fp)
 2008208:	10ffffcc 	andi	r3,r2,65535
 200820c:	e0bfc70b 	ldhu	r2,-228(fp)
 2008210:	188dc83a 	sub	r6,r3,r2
 2008214:	00800284 	movi	r2,10
 2008218:	e0bfcd15 	stw	r2,-204(fp)
 200821c:	e13ff717 	ldw	r4,-36(fp)
 2008220:	20090100 	call	2009010 <_ZN24CMotorMeasurementMessageC1EPhi>
 2008224:	e13ff717 	ldw	r4,-36(fp)
 2008228:	e0ffc917 	ldw	r3,-220(fp)
 200822c:	e17ff817 	ldw	r5,-32(fp)
 2008230:	e17ff817 	ldw	r5,-32(fp)
 2008234:	2945883a 	add	r2,r5,r5
 2008238:	1085883a 	add	r2,r2,r2
 200823c:	10c5883a 	add	r2,r2,r3
 2008240:	10800204 	addi	r2,r2,8
 2008244:	11000015 	stw	r4,0(r2)
				uiPayloadOffset += 16;
 2008248:	e0bfc70b 	ldhu	r2,-228(fp)
 200824c:	10800404 	addi	r2,r2,16
 2008250:	e0bfc70d 	sth	r2,-228(fp)
				m_uiMessageCount++;
 2008254:	e0bfc917 	ldw	r2,-220(fp)
 2008258:	10800a17 	ldw	r2,40(r2)
 200825c:	10c00044 	addi	r3,r2,1
 2008260:	e0bfc917 	ldw	r2,-220(fp)
 2008264:	10c00a15 	stw	r3,40(r2)
				break;
 2008268:	00021006 	br	2008aac <_ZN12CCarProtocol11parsePacketEPhi+0xe58>
 200826c:	e1bffe17 	ldw	r6,-8(fp)
 2008270:	e1bfe215 	stw	r6,-120(fp)

// MotorMeasurement
			case CARP_MSGID_MOTORMEASUREMENT:
				m_pMessages[m_uiMessageCount] = new CMotorMeasurementMessage(
						pPacket + uiStartIdx + uiPayloadOffset,
						uiPayloadLength - uiPayloadOffset);
 2008274:	e13ff717 	ldw	r4,-36(fp)
 2008278:	200bc9c0 	call	200bc9c <_ZdlPv>
 200827c:	e0bfe217 	ldw	r2,-120(fp)
 2008280:	e0bffe15 	stw	r2,-8(fp)
 2008284:	00bfffc4 	movi	r2,-1
 2008288:	e0bfcd15 	stw	r2,-204(fp)
 200828c:	e13ffe17 	ldw	r4,-8(fp)
 2008290:	200d34c0 	call	200d34c <_Unwind_SjLj_Resume>

// Ultrasound-Sensor
			case CARP_MSGID_ULTRASOUNDSENSOR:
				m_pMessages[m_uiMessageCount] = new CUltrasoundDistanceMessage(
						pPacket + uiStartIdx + uiPayloadOffset,
						uiPayloadLength - uiPayloadOffset);
 2008294:	e0bfc917 	ldw	r2,-220(fp)
 2008298:	10800a17 	ldw	r2,40(r2)
 200829c:	e0bff615 	stw	r2,-40(fp)
 20082a0:	00bfffc4 	movi	r2,-1
 20082a4:	e0bfcd15 	stw	r2,-204(fp)
 20082a8:	01000404 	movi	r4,16
 20082ac:	200bea80 	call	200bea8 <_Znwm>
 20082b0:	e0bff515 	stw	r2,-44(fp)
 20082b4:	e0bfc78b 	ldhu	r2,-226(fp)
 20082b8:	1007883a 	mov	r3,r2
 20082bc:	e0bfca17 	ldw	r2,-216(fp)
 20082c0:	1887883a 	add	r3,r3,r2
 20082c4:	e0bfc70b 	ldhu	r2,-228(fp)
 20082c8:	188b883a 	add	r5,r3,r2
 20082cc:	e0bfc80b 	ldhu	r2,-224(fp)
 20082d0:	10ffffcc 	andi	r3,r2,65535
 20082d4:	e0bfc70b 	ldhu	r2,-228(fp)
 20082d8:	188dc83a 	sub	r6,r3,r2
 20082dc:	00800244 	movi	r2,9
 20082e0:	e0bfcd15 	stw	r2,-204(fp)
 20082e4:	e13ff517 	ldw	r4,-44(fp)
 20082e8:	200a0fc0 	call	200a0fc <_ZN26CUltrasoundDistanceMessageC1EPhi>
 20082ec:	e13ff517 	ldw	r4,-44(fp)
 20082f0:	e0ffc917 	ldw	r3,-220(fp)
 20082f4:	e17ff617 	ldw	r5,-40(fp)
 20082f8:	e17ff617 	ldw	r5,-40(fp)
 20082fc:	2945883a 	add	r2,r5,r5
 2008300:	1085883a 	add	r2,r2,r2
 2008304:	10c5883a 	add	r2,r2,r3
 2008308:	10800204 	addi	r2,r2,8
 200830c:	11000015 	stw	r4,0(r2)
				uiPayloadOffset += 8;
 2008310:	e0bfc70b 	ldhu	r2,-228(fp)
 2008314:	10800204 	addi	r2,r2,8
 2008318:	e0bfc70d 	sth	r2,-228(fp)
				m_uiMessageCount++;
 200831c:	e0bfc917 	ldw	r2,-220(fp)
 2008320:	10800a17 	ldw	r2,40(r2)
 2008324:	10c00044 	addi	r3,r2,1
 2008328:	e0bfc917 	ldw	r2,-220(fp)
 200832c:	10c00a15 	stw	r3,40(r2)
				break;
 2008330:	0001de06 	br	2008aac <_ZN12CCarProtocol11parsePacketEPhi+0xe58>
 2008334:	e1bffe17 	ldw	r6,-8(fp)
 2008338:	e1bfe115 	stw	r6,-124(fp)

// Ultrasound-Sensor
			case CARP_MSGID_ULTRASOUNDSENSOR:
				m_pMessages[m_uiMessageCount] = new CUltrasoundDistanceMessage(
						pPacket + uiStartIdx + uiPayloadOffset,
						uiPayloadLength - uiPayloadOffset);
 200833c:	e13ff517 	ldw	r4,-44(fp)
 2008340:	200bc9c0 	call	200bc9c <_ZdlPv>
 2008344:	e0bfe117 	ldw	r2,-124(fp)
 2008348:	e0bffe15 	stw	r2,-8(fp)
 200834c:	00bfffc4 	movi	r2,-1
 2008350:	e0bfcd15 	stw	r2,-204(fp)
 2008354:	e13ffe17 	ldw	r4,-8(fp)
 2008358:	200d34c0 	call	200d34c <_Unwind_SjLj_Resume>

// Acceleration-Sensor
			case CARP_MSGID_ACCELERATIONSENSOR:
				m_pMessages[m_uiMessageCount] = new CAccelerationValuesMessage(
						pPacket + uiStartIdx + uiPayloadOffset,
						uiPayloadLength - uiPayloadOffset);
 200835c:	e0bfc917 	ldw	r2,-220(fp)
 2008360:	10800a17 	ldw	r2,40(r2)
 2008364:	e0bff415 	stw	r2,-48(fp)
 2008368:	00bfffc4 	movi	r2,-1
 200836c:	e0bfcd15 	stw	r2,-204(fp)
 2008370:	01000504 	movi	r4,20
 2008374:	200bea80 	call	200bea8 <_Znwm>
 2008378:	e0bff315 	stw	r2,-52(fp)
 200837c:	e0bfc78b 	ldhu	r2,-226(fp)
 2008380:	1007883a 	mov	r3,r2
 2008384:	e0bfca17 	ldw	r2,-216(fp)
 2008388:	1887883a 	add	r3,r3,r2
 200838c:	e0bfc70b 	ldhu	r2,-228(fp)
 2008390:	188b883a 	add	r5,r3,r2
 2008394:	e0bfc80b 	ldhu	r2,-224(fp)
 2008398:	10ffffcc 	andi	r3,r2,65535
 200839c:	e0bfc70b 	ldhu	r2,-228(fp)
 20083a0:	188dc83a 	sub	r6,r3,r2
 20083a4:	00800204 	movi	r2,8
 20083a8:	e0bfcd15 	stw	r2,-204(fp)
 20083ac:	e13ff317 	ldw	r4,-52(fp)
 20083b0:	2004fdc0 	call	2004fdc <_ZN26CAccelerationValuesMessageC1EPhi>
 20083b4:	e13ff317 	ldw	r4,-52(fp)
 20083b8:	e0ffc917 	ldw	r3,-220(fp)
 20083bc:	e17ff417 	ldw	r5,-48(fp)
 20083c0:	e17ff417 	ldw	r5,-48(fp)
 20083c4:	2945883a 	add	r2,r5,r5
 20083c8:	1085883a 	add	r2,r2,r2
 20083cc:	10c5883a 	add	r2,r2,r3
 20083d0:	10800204 	addi	r2,r2,8
 20083d4:	11000015 	stw	r4,0(r2)
				uiPayloadOffset += 12;
 20083d8:	e0bfc70b 	ldhu	r2,-228(fp)
 20083dc:	10800304 	addi	r2,r2,12
 20083e0:	e0bfc70d 	sth	r2,-228(fp)
				m_uiMessageCount++;
 20083e4:	e0bfc917 	ldw	r2,-220(fp)
 20083e8:	10800a17 	ldw	r2,40(r2)
 20083ec:	10c00044 	addi	r3,r2,1
 20083f0:	e0bfc917 	ldw	r2,-220(fp)
 20083f4:	10c00a15 	stw	r3,40(r2)
				break;
 20083f8:	0001ac06 	br	2008aac <_ZN12CCarProtocol11parsePacketEPhi+0xe58>
 20083fc:	e1bffe17 	ldw	r6,-8(fp)
 2008400:	e1bfe015 	stw	r6,-128(fp)

// Acceleration-Sensor
			case CARP_MSGID_ACCELERATIONSENSOR:
				m_pMessages[m_uiMessageCount] = new CAccelerationValuesMessage(
						pPacket + uiStartIdx + uiPayloadOffset,
						uiPayloadLength - uiPayloadOffset);
 2008404:	e13ff317 	ldw	r4,-52(fp)
 2008408:	200bc9c0 	call	200bc9c <_ZdlPv>
 200840c:	e0bfe017 	ldw	r2,-128(fp)
 2008410:	e0bffe15 	stw	r2,-8(fp)
 2008414:	00bfffc4 	movi	r2,-1
 2008418:	e0bfcd15 	stw	r2,-204(fp)
 200841c:	e13ffe17 	ldw	r4,-8(fp)
 2008420:	200d34c0 	call	200d34c <_Unwind_SjLj_Resume>

// ADC-Sensor
			case CARP_MSGID_ADCSENSOR:
			{
// If subtype is 0 then it's a InfoMessage otherwise a ValuesMessage
				if (pPacket[uiStartIdx + uiPayloadOffset + 2] == 0)
 2008424:	e0ffc78b 	ldhu	r3,-226(fp)
 2008428:	e0bfc70b 	ldhu	r2,-228(fp)
 200842c:	1885883a 	add	r2,r3,r2
 2008430:	1007883a 	mov	r3,r2
 2008434:	e0bfca17 	ldw	r2,-216(fp)
 2008438:	1885883a 	add	r2,r3,r2
 200843c:	10800084 	addi	r2,r2,2
 2008440:	10800003 	ldbu	r2,0(r2)
 2008444:	10803fcc 	andi	r2,r2,255
 2008448:	1004c03a 	cmpne	r2,r2,zero
 200844c:	10002a1e 	bne	r2,zero,20084f8 <_ZN12CCarProtocol11parsePacketEPhi+0x8a4>
					m_pMessages[m_uiMessageCount] = new CADCInfoMessage(
							pPacket + uiStartIdx + uiPayloadOffset,
							uiPayloadLength - uiPayloadOffset);
 2008450:	e0bfc917 	ldw	r2,-220(fp)
 2008454:	10800a17 	ldw	r2,40(r2)
 2008458:	e0bff215 	stw	r2,-56(fp)
 200845c:	00bfffc4 	movi	r2,-1
 2008460:	e0bfcd15 	stw	r2,-204(fp)
 2008464:	01000704 	movi	r4,28
 2008468:	200bea80 	call	200bea8 <_Znwm>
 200846c:	e0bff115 	stw	r2,-60(fp)
 2008470:	e0bfc78b 	ldhu	r2,-226(fp)
 2008474:	1007883a 	mov	r3,r2
 2008478:	e0bfca17 	ldw	r2,-216(fp)
 200847c:	1887883a 	add	r3,r3,r2
 2008480:	e0bfc70b 	ldhu	r2,-228(fp)
 2008484:	188b883a 	add	r5,r3,r2
 2008488:	e0bfc80b 	ldhu	r2,-224(fp)
 200848c:	10ffffcc 	andi	r3,r2,65535
 2008490:	e0bfc70b 	ldhu	r2,-228(fp)
 2008494:	188dc83a 	sub	r6,r3,r2
 2008498:	008001c4 	movi	r2,7
 200849c:	e0bfcd15 	stw	r2,-204(fp)
 20084a0:	e13ff117 	ldw	r4,-60(fp)
 20084a4:	2003c600 	call	2003c60 <_ZN15CADCInfoMessageC1EPhi>
 20084a8:	e13ff117 	ldw	r4,-60(fp)
 20084ac:	e0ffc917 	ldw	r3,-220(fp)
 20084b0:	e17ff217 	ldw	r5,-56(fp)
 20084b4:	e17ff217 	ldw	r5,-56(fp)
 20084b8:	2945883a 	add	r2,r5,r5
 20084bc:	1085883a 	add	r2,r2,r2
 20084c0:	10c5883a 	add	r2,r2,r3
 20084c4:	10800204 	addi	r2,r2,8
 20084c8:	11000015 	stw	r4,0(r2)
 20084cc:	00003406 	br	20085a0 <_ZN12CCarProtocol11parsePacketEPhi+0x94c>
 20084d0:	e1bffe17 	ldw	r6,-8(fp)
 20084d4:	e1bfdf15 	stw	r6,-132(fp)
 20084d8:	e13ff117 	ldw	r4,-60(fp)
 20084dc:	200bc9c0 	call	200bc9c <_ZdlPv>
 20084e0:	e0bfdf17 	ldw	r2,-132(fp)
 20084e4:	e0bffe15 	stw	r2,-8(fp)
 20084e8:	00bfffc4 	movi	r2,-1
 20084ec:	e0bfcd15 	stw	r2,-204(fp)
 20084f0:	e13ffe17 	ldw	r4,-8(fp)
 20084f4:	200d34c0 	call	200d34c <_Unwind_SjLj_Resume>
				else
					m_pMessages[m_uiMessageCount] = new CADCValuesMessage(
							pPacket + uiStartIdx + uiPayloadOffset,
							uiPayloadLength - uiPayloadOffset);
 20084f8:	e0bfc917 	ldw	r2,-220(fp)
 20084fc:	10800a17 	ldw	r2,40(r2)
 2008500:	e0bff015 	stw	r2,-64(fp)
 2008504:	00bfffc4 	movi	r2,-1
 2008508:	e0bfcd15 	stw	r2,-204(fp)
 200850c:	01000404 	movi	r4,16
 2008510:	200bea80 	call	200bea8 <_Znwm>
 2008514:	e0bfef15 	stw	r2,-68(fp)
 2008518:	e0bfc78b 	ldhu	r2,-226(fp)
 200851c:	1007883a 	mov	r3,r2
 2008520:	e0bfca17 	ldw	r2,-216(fp)
 2008524:	1887883a 	add	r3,r3,r2
 2008528:	e0bfc70b 	ldhu	r2,-228(fp)
 200852c:	188b883a 	add	r5,r3,r2
 2008530:	e0bfc80b 	ldhu	r2,-224(fp)
 2008534:	10ffffcc 	andi	r3,r2,65535
 2008538:	e0bfc70b 	ldhu	r2,-228(fp)
 200853c:	188dc83a 	sub	r6,r3,r2
 2008540:	00800184 	movi	r2,6
 2008544:	e0bfcd15 	stw	r2,-204(fp)
 2008548:	e13fef17 	ldw	r4,-68(fp)
 200854c:	20045840 	call	2004584 <_ZN17CADCValuesMessageC1EPhi>
 2008550:	e13fef17 	ldw	r4,-68(fp)
 2008554:	e0ffc917 	ldw	r3,-220(fp)
 2008558:	e17ff017 	ldw	r5,-64(fp)
 200855c:	e17ff017 	ldw	r5,-64(fp)
 2008560:	2945883a 	add	r2,r5,r5
 2008564:	1085883a 	add	r2,r2,r2
 2008568:	10c5883a 	add	r2,r2,r3
 200856c:	10800204 	addi	r2,r2,8
 2008570:	11000015 	stw	r4,0(r2)
 2008574:	00000a06 	br	20085a0 <_ZN12CCarProtocol11parsePacketEPhi+0x94c>
 2008578:	e1bffe17 	ldw	r6,-8(fp)
 200857c:	e1bfde15 	stw	r6,-136(fp)
 2008580:	e13fef17 	ldw	r4,-68(fp)
 2008584:	200bc9c0 	call	200bc9c <_ZdlPv>
 2008588:	e0bfde17 	ldw	r2,-136(fp)
 200858c:	e0bffe15 	stw	r2,-8(fp)
 2008590:	00bfffc4 	movi	r2,-1
 2008594:	e0bfcd15 	stw	r2,-204(fp)
 2008598:	e13ffe17 	ldw	r4,-8(fp)
 200859c:	200d34c0 	call	200d34c <_Unwind_SjLj_Resume>

// Make sure you add the right length to the offset!
				uiPayloadOffset += m_pMessages[m_uiMessageCount]->getLength();
 20085a0:	e0bfc917 	ldw	r2,-220(fp)
 20085a4:	10800a17 	ldw	r2,40(r2)
 20085a8:	e0ffc917 	ldw	r3,-220(fp)
 20085ac:	1085883a 	add	r2,r2,r2
 20085b0:	1085883a 	add	r2,r2,r2
 20085b4:	10c5883a 	add	r2,r2,r3
 20085b8:	10800204 	addi	r2,r2,8
 20085bc:	10800017 	ldw	r2,0(r2)
 20085c0:	10800017 	ldw	r2,0(r2)
 20085c4:	10800404 	addi	r2,r2,16
 20085c8:	11400017 	ldw	r5,0(r2)
 20085cc:	e0bfc917 	ldw	r2,-220(fp)
 20085d0:	10800a17 	ldw	r2,40(r2)
 20085d4:	e0ffc917 	ldw	r3,-220(fp)
 20085d8:	1085883a 	add	r2,r2,r2
 20085dc:	1085883a 	add	r2,r2,r2
 20085e0:	10c5883a 	add	r2,r2,r3
 20085e4:	10800204 	addi	r2,r2,8
 20085e8:	11000017 	ldw	r4,0(r2)
 20085ec:	00bfffc4 	movi	r2,-1
 20085f0:	e0bfcd15 	stw	r2,-204(fp)
 20085f4:	283ee83a 	callr	r5
 20085f8:	1007883a 	mov	r3,r2
 20085fc:	e0bfc70b 	ldhu	r2,-228(fp)
 2008600:	10c5883a 	add	r2,r2,r3
 2008604:	e0bfc70d 	sth	r2,-228(fp)
				m_uiMessageCount++;
 2008608:	e0bfc917 	ldw	r2,-220(fp)
 200860c:	10800a17 	ldw	r2,40(r2)
 2008610:	10c00044 	addi	r3,r2,1
 2008614:	e0bfc917 	ldw	r2,-220(fp)
 2008618:	10c00a15 	stw	r3,40(r2)
				break;
 200861c:	00012306 	br	2008aac <_ZN12CCarProtocol11parsePacketEPhi+0xe58>
			}

//do emergency braking
			case C2X_MSGID_EMERGENCY_BRAKE: {
				m_pMessages[m_uiMessageCount] = new CEmergencyBrakeMessage(pPacket+uiStartIdx+uiPayloadOffset, uiPayloadLength-uiPayloadOffset);
 2008620:	e0bfc917 	ldw	r2,-220(fp)
 2008624:	10800a17 	ldw	r2,40(r2)
 2008628:	e0bfee15 	stw	r2,-72(fp)
 200862c:	00bfffc4 	movi	r2,-1
 2008630:	e0bfcd15 	stw	r2,-204(fp)
 2008634:	01000304 	movi	r4,12
 2008638:	200bea80 	call	200bea8 <_Znwm>
 200863c:	e0bfed15 	stw	r2,-76(fp)
 2008640:	e0bfc78b 	ldhu	r2,-226(fp)
 2008644:	1007883a 	mov	r3,r2
 2008648:	e0bfca17 	ldw	r2,-216(fp)
 200864c:	1887883a 	add	r3,r3,r2
 2008650:	e0bfc70b 	ldhu	r2,-228(fp)
 2008654:	188b883a 	add	r5,r3,r2
 2008658:	e0bfc80b 	ldhu	r2,-224(fp)
 200865c:	10ffffcc 	andi	r3,r2,65535
 2008660:	e0bfc70b 	ldhu	r2,-228(fp)
 2008664:	188dc83a 	sub	r6,r3,r2
 2008668:	00800144 	movi	r2,5
 200866c:	e0bfcd15 	stw	r2,-204(fp)
 2008670:	e13fed17 	ldw	r4,-76(fp)
 2008674:	2005d300 	call	2005d30 <_ZN22CEmergencyBrakeMessageC1EPhi>
 2008678:	e13fed17 	ldw	r4,-76(fp)
 200867c:	e0ffc917 	ldw	r3,-220(fp)
 2008680:	e17fee17 	ldw	r5,-72(fp)
 2008684:	e17fee17 	ldw	r5,-72(fp)
 2008688:	2945883a 	add	r2,r5,r5
 200868c:	1085883a 	add	r2,r2,r2
 2008690:	10c5883a 	add	r2,r2,r3
 2008694:	10800204 	addi	r2,r2,8
 2008698:	11000015 	stw	r4,0(r2)
				uiPayloadOffset += 4;
 200869c:	e0bfc70b 	ldhu	r2,-228(fp)
 20086a0:	10800104 	addi	r2,r2,4
 20086a4:	e0bfc70d 	sth	r2,-228(fp)
				m_uiMessageCount++;
 20086a8:	e0bfc917 	ldw	r2,-220(fp)
 20086ac:	10800a17 	ldw	r2,40(r2)
 20086b0:	10c00044 	addi	r3,r2,1
 20086b4:	e0bfc917 	ldw	r2,-220(fp)
 20086b8:	10c00a15 	stw	r3,40(r2)
				break;
 20086bc:	0000fb06 	br	2008aac <_ZN12CCarProtocol11parsePacketEPhi+0xe58>
 20086c0:	e1bffe17 	ldw	r6,-8(fp)
 20086c4:	e1bfdd15 	stw	r6,-140(fp)
				break;
			}

//do emergency braking
			case C2X_MSGID_EMERGENCY_BRAKE: {
				m_pMessages[m_uiMessageCount] = new CEmergencyBrakeMessage(pPacket+uiStartIdx+uiPayloadOffset, uiPayloadLength-uiPayloadOffset);
 20086c8:	e13fed17 	ldw	r4,-76(fp)
 20086cc:	200bc9c0 	call	200bc9c <_ZdlPv>
 20086d0:	e0bfdd17 	ldw	r2,-140(fp)
 20086d4:	e0bffe15 	stw	r2,-8(fp)
 20086d8:	00bfffc4 	movi	r2,-1
 20086dc:	e0bfcd15 	stw	r2,-204(fp)
 20086e0:	e13ffe17 	ldw	r4,-8(fp)
 20086e4:	200d34c0 	call	200d34c <_Unwind_SjLj_Resume>
			}

			//set motor speeds from external source
			case C2X_MSGID_CONTROL: // remote control/autonomous driving mode TODO: implement control function somewhere
			{
				m_pMessages[m_uiMessageCount] = new CControlMessage(pPacket+uiStartIdx+uiPayloadOffset, uiPayloadLength-uiPayloadOffset);
 20086e8:	e0bfc917 	ldw	r2,-220(fp)
 20086ec:	10800a17 	ldw	r2,40(r2)
 20086f0:	e0bfec15 	stw	r2,-80(fp)
 20086f4:	00bfffc4 	movi	r2,-1
 20086f8:	e0bfcd15 	stw	r2,-204(fp)
 20086fc:	01000504 	movi	r4,20
 2008700:	200bea80 	call	200bea8 <_Znwm>
 2008704:	e0bfeb15 	stw	r2,-84(fp)
 2008708:	e0bfc78b 	ldhu	r2,-226(fp)
 200870c:	1007883a 	mov	r3,r2
 2008710:	e0bfca17 	ldw	r2,-216(fp)
 2008714:	1887883a 	add	r3,r3,r2
 2008718:	e0bfc70b 	ldhu	r2,-228(fp)
 200871c:	188b883a 	add	r5,r3,r2
 2008720:	e0bfc80b 	ldhu	r2,-224(fp)
 2008724:	10ffffcc 	andi	r3,r2,65535
 2008728:	e0bfc70b 	ldhu	r2,-228(fp)
 200872c:	188dc83a 	sub	r6,r3,r2
 2008730:	00800104 	movi	r2,4
 2008734:	e0bfcd15 	stw	r2,-204(fp)
 2008738:	e13feb17 	ldw	r4,-84(fp)
 200873c:	20058380 	call	2005838 <_ZN15CControlMessageC1EPhi>
 2008740:	e13feb17 	ldw	r4,-84(fp)
 2008744:	e0ffc917 	ldw	r3,-220(fp)
 2008748:	e17fec17 	ldw	r5,-80(fp)
 200874c:	e17fec17 	ldw	r5,-80(fp)
 2008750:	2945883a 	add	r2,r5,r5
 2008754:	1085883a 	add	r2,r2,r2
 2008758:	10c5883a 	add	r2,r2,r3
 200875c:	10800204 	addi	r2,r2,8
 2008760:	11000015 	stw	r4,0(r2)
				uiPayloadOffset += 12;
 2008764:	e0bfc70b 	ldhu	r2,-228(fp)
 2008768:	10800304 	addi	r2,r2,12
 200876c:	e0bfc70d 	sth	r2,-228(fp)
				m_uiMessageCount++;
 2008770:	e0bfc917 	ldw	r2,-220(fp)
 2008774:	10800a17 	ldw	r2,40(r2)
 2008778:	10c00044 	addi	r3,r2,1
 200877c:	e0bfc917 	ldw	r2,-220(fp)
 2008780:	10c00a15 	stw	r3,40(r2)
				break;
 2008784:	0000c906 	br	2008aac <_ZN12CCarProtocol11parsePacketEPhi+0xe58>
 2008788:	e1bffe17 	ldw	r6,-8(fp)
 200878c:	e1bfdc15 	stw	r6,-144(fp)
			}

			//set motor speeds from external source
			case C2X_MSGID_CONTROL: // remote control/autonomous driving mode TODO: implement control function somewhere
			{
				m_pMessages[m_uiMessageCount] = new CControlMessage(pPacket+uiStartIdx+uiPayloadOffset, uiPayloadLength-uiPayloadOffset);
 2008790:	e13feb17 	ldw	r4,-84(fp)
 2008794:	200bc9c0 	call	200bc9c <_ZdlPv>
 2008798:	e0bfdc17 	ldw	r2,-144(fp)
 200879c:	e0bffe15 	stw	r2,-8(fp)
 20087a0:	00bfffc4 	movi	r2,-1
 20087a4:	e0bfcd15 	stw	r2,-204(fp)
 20087a8:	e13ffe17 	ldw	r4,-8(fp)
 20087ac:	200d34c0 	call	200d34c <_Unwind_SjLj_Resume>
				break;
			}

			//tell our state
			case C2X_MSGID_INFO_STATE: {
				m_pMessages[m_uiMessageCount] = new CInfoStateMessage(pPacket+uiStartIdx+uiPayloadOffset, uiPayloadLength-uiPayloadOffset);
 20087b0:	e0bfc917 	ldw	r2,-220(fp)
 20087b4:	10800a17 	ldw	r2,40(r2)
 20087b8:	e0bfea15 	stw	r2,-88(fp)
 20087bc:	00bfffc4 	movi	r2,-1
 20087c0:	e0bfcd15 	stw	r2,-204(fp)
 20087c4:	01000304 	movi	r4,12
 20087c8:	200bea80 	call	200bea8 <_Znwm>
 20087cc:	e0bfe915 	stw	r2,-92(fp)
 20087d0:	e0bfc78b 	ldhu	r2,-226(fp)
 20087d4:	1007883a 	mov	r3,r2
 20087d8:	e0bfca17 	ldw	r2,-216(fp)
 20087dc:	1887883a 	add	r3,r3,r2
 20087e0:	e0bfc70b 	ldhu	r2,-228(fp)
 20087e4:	188b883a 	add	r5,r3,r2
 20087e8:	e0bfc80b 	ldhu	r2,-224(fp)
 20087ec:	10ffffcc 	andi	r3,r2,65535
 20087f0:	e0bfc70b 	ldhu	r2,-228(fp)
 20087f4:	188dc83a 	sub	r6,r3,r2
 20087f8:	008000c4 	movi	r2,3
 20087fc:	e0bfcd15 	stw	r2,-204(fp)
 2008800:	e13fe917 	ldw	r4,-92(fp)
 2008804:	20066500 	call	2006650 <_ZN17CInfoStateMessageC1EPhi>
 2008808:	e13fe917 	ldw	r4,-92(fp)
 200880c:	e0ffc917 	ldw	r3,-220(fp)
 2008810:	e17fea17 	ldw	r5,-88(fp)
 2008814:	e17fea17 	ldw	r5,-88(fp)
 2008818:	2945883a 	add	r2,r5,r5
 200881c:	1085883a 	add	r2,r2,r2
 2008820:	10c5883a 	add	r2,r2,r3
 2008824:	10800204 	addi	r2,r2,8
 2008828:	11000015 	stw	r4,0(r2)
				uiPayloadOffset += 4;
 200882c:	e0bfc70b 	ldhu	r2,-228(fp)
 2008830:	10800104 	addi	r2,r2,4
 2008834:	e0bfc70d 	sth	r2,-228(fp)
				m_uiMessageCount++;
 2008838:	e0bfc917 	ldw	r2,-220(fp)
 200883c:	10800a17 	ldw	r2,40(r2)
 2008840:	10c00044 	addi	r3,r2,1
 2008844:	e0bfc917 	ldw	r2,-220(fp)
 2008848:	10c00a15 	stw	r3,40(r2)
				break;
 200884c:	00009706 	br	2008aac <_ZN12CCarProtocol11parsePacketEPhi+0xe58>
 2008850:	e1bffe17 	ldw	r6,-8(fp)
 2008854:	e1bfdb15 	stw	r6,-148(fp)
				break;
			}

			//tell our state
			case C2X_MSGID_INFO_STATE: {
				m_pMessages[m_uiMessageCount] = new CInfoStateMessage(pPacket+uiStartIdx+uiPayloadOffset, uiPayloadLength-uiPayloadOffset);
 2008858:	e13fe917 	ldw	r4,-92(fp)
 200885c:	200bc9c0 	call	200bc9c <_ZdlPv>
 2008860:	e0bfdb17 	ldw	r2,-148(fp)
 2008864:	e0bffe15 	stw	r2,-8(fp)
 2008868:	00bfffc4 	movi	r2,-1
 200886c:	e0bfcd15 	stw	r2,-204(fp)
 2008870:	e13ffe17 	ldw	r4,-8(fp)
 2008874:	200d34c0 	call	200d34c <_Unwind_SjLj_Resume>
				break;
			}

			//tell our sensor data
			case C2X_MSGID_INFO_SENSORS: {
				m_pMessages[m_uiMessageCount] = new CInfoSensorMessage(pPacket+uiStartIdx+uiPayloadOffset, uiPayloadLength-uiPayloadOffset);
 2008878:	e0bfc917 	ldw	r2,-220(fp)
 200887c:	10800a17 	ldw	r2,40(r2)
 2008880:	e0bfe815 	stw	r2,-96(fp)
 2008884:	00bfffc4 	movi	r2,-1
 2008888:	e0bfcd15 	stw	r2,-204(fp)
 200888c:	01000304 	movi	r4,12
 2008890:	200bea80 	call	200bea8 <_Znwm>
 2008894:	e0bfe715 	stw	r2,-100(fp)
 2008898:	e0bfc78b 	ldhu	r2,-226(fp)
 200889c:	1007883a 	mov	r3,r2
 20088a0:	e0bfca17 	ldw	r2,-216(fp)
 20088a4:	1887883a 	add	r3,r3,r2
 20088a8:	e0bfc70b 	ldhu	r2,-228(fp)
 20088ac:	188b883a 	add	r5,r3,r2
 20088b0:	e0bfc80b 	ldhu	r2,-224(fp)
 20088b4:	10ffffcc 	andi	r3,r2,65535
 20088b8:	e0bfc70b 	ldhu	r2,-228(fp)
 20088bc:	188dc83a 	sub	r6,r3,r2
 20088c0:	00800084 	movi	r2,2
 20088c4:	e0bfcd15 	stw	r2,-204(fp)
 20088c8:	e13fe717 	ldw	r4,-100(fp)
 20088cc:	20061c00 	call	20061c0 <_ZN18CInfoSensorMessageC1EPhi>
 20088d0:	e13fe717 	ldw	r4,-100(fp)
 20088d4:	e0ffc917 	ldw	r3,-220(fp)
 20088d8:	e17fe817 	ldw	r5,-96(fp)
 20088dc:	e17fe817 	ldw	r5,-96(fp)
 20088e0:	2945883a 	add	r2,r5,r5
 20088e4:	1085883a 	add	r2,r2,r2
 20088e8:	10c5883a 	add	r2,r2,r3
 20088ec:	10800204 	addi	r2,r2,8
 20088f0:	11000015 	stw	r4,0(r2)
				uiPayloadOffset += 4;
 20088f4:	e0bfc70b 	ldhu	r2,-228(fp)
 20088f8:	10800104 	addi	r2,r2,4
 20088fc:	e0bfc70d 	sth	r2,-228(fp)
				m_uiMessageCount++;
 2008900:	e0bfc917 	ldw	r2,-220(fp)
 2008904:	10800a17 	ldw	r2,40(r2)
 2008908:	10c00044 	addi	r3,r2,1
 200890c:	e0bfc917 	ldw	r2,-220(fp)
 2008910:	10c00a15 	stw	r3,40(r2)
				break;
 2008914:	00006506 	br	2008aac <_ZN12CCarProtocol11parsePacketEPhi+0xe58>
 2008918:	e1bffe17 	ldw	r6,-8(fp)
 200891c:	e1bfda15 	stw	r6,-152(fp)
				break;
			}

			//tell our sensor data
			case C2X_MSGID_INFO_SENSORS: {
				m_pMessages[m_uiMessageCount] = new CInfoSensorMessage(pPacket+uiStartIdx+uiPayloadOffset, uiPayloadLength-uiPayloadOffset);
 2008920:	e13fe717 	ldw	r4,-100(fp)
 2008924:	200bc9c0 	call	200bc9c <_ZdlPv>
 2008928:	e0bfda17 	ldw	r2,-152(fp)
 200892c:	e0bffe15 	stw	r2,-8(fp)
 2008930:	00bfffc4 	movi	r2,-1
 2008934:	e0bfcd15 	stw	r2,-204(fp)
 2008938:	e13ffe17 	ldw	r4,-8(fp)
 200893c:	200d34c0 	call	200d34c <_Unwind_SjLj_Resume>
				break;
			}

			//set external source as controlling unit
			case C2X_MSGID_REMOTE_CONTROL: {
				m_pMessages[m_uiMessageCount] = new CRemoteControlMessage(pPacket+uiStartIdx+uiPayloadOffset, uiPayloadLength-uiPayloadOffset);
 2008940:	e0bfc917 	ldw	r2,-220(fp)
 2008944:	10800a17 	ldw	r2,40(r2)
 2008948:	e0bfe615 	stw	r2,-104(fp)
 200894c:	00bfffc4 	movi	r2,-1
 2008950:	e0bfcd15 	stw	r2,-204(fp)
 2008954:	01000604 	movi	r4,24
 2008958:	200bea80 	call	200bea8 <_Znwm>
 200895c:	e0bfe515 	stw	r2,-108(fp)
 2008960:	e0bfc78b 	ldhu	r2,-226(fp)
 2008964:	1007883a 	mov	r3,r2
 2008968:	e0bfca17 	ldw	r2,-216(fp)
 200896c:	1887883a 	add	r3,r3,r2
 2008970:	e0bfc70b 	ldhu	r2,-228(fp)
 2008974:	188b883a 	add	r5,r3,r2
 2008978:	e0bfc80b 	ldhu	r2,-224(fp)
 200897c:	10ffffcc 	andi	r3,r2,65535
 2008980:	e0bfc70b 	ldhu	r2,-228(fp)
 2008984:	188dc83a 	sub	r6,r3,r2
 2008988:	00800044 	movi	r2,1
 200898c:	e0bfcd15 	stw	r2,-204(fp)
 2008990:	e13fe517 	ldw	r4,-108(fp)
 2008994:	2006b380 	call	2006b38 <_ZN21CRemoteControlMessageC1EPhi>
 2008998:	e13fe517 	ldw	r4,-108(fp)
 200899c:	e0ffc917 	ldw	r3,-220(fp)
 20089a0:	e17fe617 	ldw	r5,-104(fp)
 20089a4:	e17fe617 	ldw	r5,-104(fp)
 20089a8:	2945883a 	add	r2,r5,r5
 20089ac:	1085883a 	add	r2,r2,r2
 20089b0:	10c5883a 	add	r2,r2,r3
 20089b4:	10800204 	addi	r2,r2,8
 20089b8:	11000015 	stw	r4,0(r2)
				uiPayloadOffset += 8;
 20089bc:	e0bfc70b 	ldhu	r2,-228(fp)
 20089c0:	10800204 	addi	r2,r2,8
 20089c4:	e0bfc70d 	sth	r2,-228(fp)
				m_uiMessageCount++;
 20089c8:	e0bfc917 	ldw	r2,-220(fp)
 20089cc:	10800a17 	ldw	r2,40(r2)
 20089d0:	10c00044 	addi	r3,r2,1
 20089d4:	e0bfc917 	ldw	r2,-220(fp)
 20089d8:	10c00a15 	stw	r3,40(r2)
				break;
 20089dc:	00003306 	br	2008aac <_ZN12CCarProtocol11parsePacketEPhi+0xe58>
 20089e0:	e7003904 	addi	fp,fp,228
 20089e4:	e1bfcd17 	ldw	r6,-204(fp)
 20089e8:	e1bfff15 	stw	r6,-4(fp)
 20089ec:	e0bfce17 	ldw	r2,-200(fp)
 20089f0:	e0bffe15 	stw	r2,-8(fp)
 20089f4:	e0ffff17 	ldw	r3,-4(fp)
 20089f8:	18800060 	cmpeqi	r2,r3,1
 20089fc:	103fc61e 	bne	r2,zero,2008918 <_ZN12CCarProtocol11parsePacketEPhi+0xcc4>
 2008a00:	e13fff17 	ldw	r4,-4(fp)
 2008a04:	208000a0 	cmpeqi	r2,r4,2
 2008a08:	103f911e 	bne	r2,zero,2008850 <_ZN12CCarProtocol11parsePacketEPhi+0xbfc>
 2008a0c:	e17fff17 	ldw	r5,-4(fp)
 2008a10:	288000e0 	cmpeqi	r2,r5,3
 2008a14:	103f5c1e 	bne	r2,zero,2008788 <_ZN12CCarProtocol11parsePacketEPhi+0xb34>
 2008a18:	e1bfff17 	ldw	r6,-4(fp)
 2008a1c:	30800120 	cmpeqi	r2,r6,4
 2008a20:	103f271e 	bne	r2,zero,20086c0 <_ZN12CCarProtocol11parsePacketEPhi+0xa6c>
 2008a24:	e0ffff17 	ldw	r3,-4(fp)
 2008a28:	18800160 	cmpeqi	r2,r3,5
 2008a2c:	103ed21e 	bne	r2,zero,2008578 <_ZN12CCarProtocol11parsePacketEPhi+0x924>
 2008a30:	e13fff17 	ldw	r4,-4(fp)
 2008a34:	208001a0 	cmpeqi	r2,r4,6
 2008a38:	103ea51e 	bne	r2,zero,20084d0 <_ZN12CCarProtocol11parsePacketEPhi+0x87c>
 2008a3c:	e17fff17 	ldw	r5,-4(fp)
 2008a40:	288001e0 	cmpeqi	r2,r5,7
 2008a44:	103e6d1e 	bne	r2,zero,20083fc <_ZN12CCarProtocol11parsePacketEPhi+0x7a8>
 2008a48:	e1bfff17 	ldw	r6,-4(fp)
 2008a4c:	30800220 	cmpeqi	r2,r6,8
 2008a50:	103e381e 	bne	r2,zero,2008334 <_ZN12CCarProtocol11parsePacketEPhi+0x6e0>
 2008a54:	e0ffff17 	ldw	r3,-4(fp)
 2008a58:	18800260 	cmpeqi	r2,r3,9
 2008a5c:	103e031e 	bne	r2,zero,200826c <_ZN12CCarProtocol11parsePacketEPhi+0x618>
 2008a60:	e13fff17 	ldw	r4,-4(fp)
 2008a64:	208002a0 	cmpeqi	r2,r4,10
 2008a68:	103dce1e 	bne	r2,zero,20081a4 <_ZN12CCarProtocol11parsePacketEPhi+0x550>
 2008a6c:	e17fff17 	ldw	r5,-4(fp)
 2008a70:	288002e0 	cmpeqi	r2,r5,11
 2008a74:	103d991e 	bne	r2,zero,20080dc <_ZN12CCarProtocol11parsePacketEPhi+0x488>
 2008a78:	e1bffe17 	ldw	r6,-8(fp)
 2008a7c:	e1bfd915 	stw	r6,-156(fp)
				break;
			}

			//set external source as controlling unit
			case C2X_MSGID_REMOTE_CONTROL: {
				m_pMessages[m_uiMessageCount] = new CRemoteControlMessage(pPacket+uiStartIdx+uiPayloadOffset, uiPayloadLength-uiPayloadOffset);
 2008a80:	e13fe517 	ldw	r4,-108(fp)
 2008a84:	200bc9c0 	call	200bc9c <_ZdlPv>
 2008a88:	e0bfd917 	ldw	r2,-156(fp)
 2008a8c:	e0bffe15 	stw	r2,-8(fp)
 2008a90:	00bfffc4 	movi	r2,-1
 2008a94:	e0bfcd15 	stw	r2,-204(fp)
 2008a98:	e13ffe17 	ldw	r4,-8(fp)
 2008a9c:	200d34c0 	call	200d34c <_Unwind_SjLj_Resume>

// Message ID is not known, so we also don't know the length of this message.
// We can't parse further, as we don't know the starting point of the next message.
// Set m_bValid false and return immediate!
			default:
				m_bValid = false;
 2008aa0:	e0bfc917 	ldw	r2,-220(fp)
 2008aa4:	10000105 	stb	zero,4(r2)
				return;
 2008aa8:	00000806 	br	2008acc <_ZN12CCarProtocol11parsePacketEPhi+0xe78>

// Initialize uiPayloadOffset to 0
		uiPayloadOffset = 0;

// Do as long there are messages (payload bytes) left and the count of messages dont exceeds 8.
		while (uiPayloadOffset < uiPayloadLength && m_uiMessageCount < 8) {
 2008aac:	e0bfc80b 	ldhu	r2,-224(fp)
 2008ab0:	e0ffc70b 	ldhu	r3,-228(fp)
 2008ab4:	10bfffcc 	andi	r2,r2,65535
 2008ab8:	1880042e 	bgeu	r3,r2,2008acc <_ZN12CCarProtocol11parsePacketEPhi+0xe78>
 2008abc:	e0bfc917 	ldw	r2,-220(fp)
 2008ac0:	10800a17 	ldw	r2,40(r2)
 2008ac4:	10800230 	cmpltui	r2,r2,8
 2008ac8:	103ce61e 	bne	r2,zero,2007e64 <_ZN12CCarProtocol11parsePacketEPhi+0x210>
 2008acc:	e13fcc04 	addi	r4,fp,-208
 2008ad0:	200d0900 	call	200d090 <_Unwind_SjLj_Unregister>
				return;
			}
		}
	}

}
 2008ad4:	e037883a 	mov	sp,fp
 2008ad8:	dfc00917 	ldw	ra,36(sp)
 2008adc:	df000817 	ldw	fp,32(sp)
 2008ae0:	ddc00717 	ldw	r23,28(sp)
 2008ae4:	dd800617 	ldw	r22,24(sp)
 2008ae8:	dd400517 	ldw	r21,20(sp)
 2008aec:	dd000417 	ldw	r20,16(sp)
 2008af0:	dcc00317 	ldw	r19,12(sp)
 2008af4:	dc800217 	ldw	r18,8(sp)
 2008af8:	dc400117 	ldw	r17,4(sp)
 2008afc:	dc000017 	ldw	r16,0(sp)
 2008b00:	dec00a04 	addi	sp,sp,40
 2008b04:	f800283a 	ret

02008b08 <_ZN12CCarProtocolC1EPhi>:
#include "CInfoStateMessage.h"
#include "CInfoSensorMessage.h"

//end of includes

CCarProtocol::CCarProtocol(alt_u8 *pPacket, int iLength) {
 2008b08:	defffb04 	addi	sp,sp,-20
 2008b0c:	dfc00415 	stw	ra,16(sp)
 2008b10:	df000315 	stw	fp,12(sp)
 2008b14:	df000304 	addi	fp,sp,12
 2008b18:	e13ffd15 	stw	r4,-12(fp)
 2008b1c:	e17ffe15 	stw	r5,-8(fp)
 2008b20:	e1bfff15 	stw	r6,-4(fp)
 2008b24:	00c08074 	movhi	r3,513
 2008b28:	18c9f804 	addi	r3,r3,10208
 2008b2c:	e0bffd17 	ldw	r2,-12(fp)
 2008b30:	10c00015 	stw	r3,0(r2)
	m_bValid = false;
 2008b34:	e0bffd17 	ldw	r2,-12(fp)
 2008b38:	10000105 	stb	zero,4(r2)
	m_bThereIsMore = false;
 2008b3c:	e0bffd17 	ldw	r2,-12(fp)
 2008b40:	10000145 	stb	zero,5(r2)

	parsePacket(pPacket, iLength);
 2008b44:	e13ffd17 	ldw	r4,-12(fp)
 2008b48:	e17ffe17 	ldw	r5,-8(fp)
 2008b4c:	e1bfff17 	ldw	r6,-4(fp)
 2008b50:	2007c540 	call	2007c54 <_ZN12CCarProtocol11parsePacketEPhi>
}
 2008b54:	e037883a 	mov	sp,fp
 2008b58:	dfc00117 	ldw	ra,4(sp)
 2008b5c:	df000017 	ldw	fp,0(sp)
 2008b60:	dec00204 	addi	sp,sp,8
 2008b64:	f800283a 	ret

02008b68 <_ZN12CCarProtocolC2EPhi>:
#include "CInfoStateMessage.h"
#include "CInfoSensorMessage.h"

//end of includes

CCarProtocol::CCarProtocol(alt_u8 *pPacket, int iLength) {
 2008b68:	defffb04 	addi	sp,sp,-20
 2008b6c:	dfc00415 	stw	ra,16(sp)
 2008b70:	df000315 	stw	fp,12(sp)
 2008b74:	df000304 	addi	fp,sp,12
 2008b78:	e13ffd15 	stw	r4,-12(fp)
 2008b7c:	e17ffe15 	stw	r5,-8(fp)
 2008b80:	e1bfff15 	stw	r6,-4(fp)
 2008b84:	00c08074 	movhi	r3,513
 2008b88:	18c9f804 	addi	r3,r3,10208
 2008b8c:	e0bffd17 	ldw	r2,-12(fp)
 2008b90:	10c00015 	stw	r3,0(r2)
	m_bValid = false;
 2008b94:	e0bffd17 	ldw	r2,-12(fp)
 2008b98:	10000105 	stb	zero,4(r2)
	m_bThereIsMore = false;
 2008b9c:	e0bffd17 	ldw	r2,-12(fp)
 2008ba0:	10000145 	stb	zero,5(r2)

	parsePacket(pPacket, iLength);
 2008ba4:	e13ffd17 	ldw	r4,-12(fp)
 2008ba8:	e17ffe17 	ldw	r5,-8(fp)
 2008bac:	e1bfff17 	ldw	r6,-4(fp)
 2008bb0:	2007c540 	call	2007c54 <_ZN12CCarProtocol11parsePacketEPhi>
}
 2008bb4:	e037883a 	mov	sp,fp
 2008bb8:	dfc00117 	ldw	ra,4(sp)
 2008bbc:	df000017 	ldw	fp,0(sp)
 2008bc0:	dec00204 	addi	sp,sp,8
 2008bc4:	f800283a 	ret

02008bc8 <_ZN24CMotorMeasurementMessage8doActionEv>:

CMotorMeasurementMessage::~CMotorMeasurementMessage()
{
}

void CMotorMeasurementMessage::doAction()
 2008bc8:	defffe04 	addi	sp,sp,-8
 2008bcc:	df000115 	stw	fp,4(sp)
 2008bd0:	df000104 	addi	fp,sp,4
 2008bd4:	e13fff15 	stw	r4,-4(fp)
{

}
 2008bd8:	e037883a 	mov	sp,fp
 2008bdc:	df000017 	ldw	fp,0(sp)
 2008be0:	dec00104 	addi	sp,sp,4
 2008be4:	f800283a 	ret

02008be8 <_ZN24CMotorMeasurementMessage9getLengthEv>:

	return m_bValid;
}


alt_u32 CMotorMeasurementMessage::getLength()
 2008be8:	defffe04 	addi	sp,sp,-8
 2008bec:	df000115 	stw	fp,4(sp)
 2008bf0:	df000104 	addi	fp,sp,4
 2008bf4:	e13fff15 	stw	r4,-4(fp)
{
	return 16;
 2008bf8:	00800404 	movi	r2,16
}
 2008bfc:	e037883a 	mov	sp,fp
 2008c00:	df000017 	ldw	fp,0(sp)
 2008c04:	dec00104 	addi	sp,sp,4
 2008c08:	f800283a 	ret

02008c0c <_ZN24CMotorMeasurementMessage13answerMessageEstsss>:


void CMotorMeasurementMessage::answerMessage(alt_16 iMaxSpeed, alt_u16 uiWheelCircumference, alt_16 iPType, alt_16 iIType, alt_16 iDType)
 2008c0c:	defff904 	addi	sp,sp,-28
 2008c10:	df000615 	stw	fp,24(sp)
 2008c14:	df000604 	addi	fp,sp,24
 2008c18:	e13ffa15 	stw	r4,-24(fp)
 2008c1c:	e0800117 	ldw	r2,4(fp)
 2008c20:	e0c00217 	ldw	r3,8(fp)
 2008c24:	e17ffb0d 	sth	r5,-20(fp)
 2008c28:	e1bffc0d 	sth	r6,-16(fp)
 2008c2c:	e1fffd0d 	sth	r7,-12(fp)
 2008c30:	e0bffe0d 	sth	r2,-8(fp)
 2008c34:	e0ffff0d 	sth	r3,-4(fp)
{
	m_iMaxSpeed = iMaxSpeed;
 2008c38:	e0fffa17 	ldw	r3,-24(fp)
 2008c3c:	e0bffb0b 	ldhu	r2,-20(fp)
 2008c40:	1880028d 	sth	r2,10(r3)

	m_uiWheelCircumference = uiWheelCircumference;
 2008c44:	e0fffa17 	ldw	r3,-24(fp)
 2008c48:	e0bffc0b 	ldhu	r2,-16(fp)
 2008c4c:	1880030d 	sth	r2,12(r3)

	m_iPType = iPType;
 2008c50:	e0fffa17 	ldw	r3,-24(fp)
 2008c54:	e0bffd0b 	ldhu	r2,-12(fp)
 2008c58:	1880038d 	sth	r2,14(r3)

	m_iIType = iIType;
 2008c5c:	e0fffa17 	ldw	r3,-24(fp)
 2008c60:	e0bffe0b 	ldhu	r2,-8(fp)
 2008c64:	1880040d 	sth	r2,16(r3)

	m_iDType = iDType;
 2008c68:	e0fffa17 	ldw	r3,-24(fp)
 2008c6c:	e0bfff0b 	ldhu	r2,-4(fp)
 2008c70:	1880048d 	sth	r2,18(r3)

	m_uiFlags = m_uiFlags | 0x01; // Response-Flag setzen
 2008c74:	e0bffa17 	ldw	r2,-24(fp)
 2008c78:	108001c3 	ldbu	r2,7(r2)
 2008c7c:	10800054 	ori	r2,r2,1
 2008c80:	1007883a 	mov	r3,r2
 2008c84:	e0bffa17 	ldw	r2,-24(fp)
 2008c88:	10c001c5 	stb	r3,7(r2)

}
 2008c8c:	e037883a 	mov	sp,fp
 2008c90:	df000017 	ldw	fp,0(sp)
 2008c94:	dec00104 	addi	sp,sp,4
 2008c98:	f800283a 	ret

02008c9c <_ZN24CMotorMeasurementMessage8getBytesEPh>:

	m_bValid = true;

}

bool CMotorMeasurementMessage::getBytes(alt_u8 *pMessage)
 2008c9c:	defffc04 	addi	sp,sp,-16
 2008ca0:	dfc00315 	stw	ra,12(sp)
 2008ca4:	df000215 	stw	fp,8(sp)
 2008ca8:	df000204 	addi	fp,sp,8
 2008cac:	e13ffe15 	stw	r4,-8(fp)
 2008cb0:	e17fff15 	stw	r5,-4(fp)
{
	CCarMessage::getBytes(pMessage);
 2008cb4:	e13ffe17 	ldw	r4,-8(fp)
 2008cb8:	e17fff17 	ldw	r5,-4(fp)
 2008cbc:	2006e800 	call	2006e80 <_ZN11CCarMessage8getBytesEPh>

	*((alt_16*) (pMessage+4)) = m_iMaxSpeed;
 2008cc0:	e0bfff17 	ldw	r2,-4(fp)
 2008cc4:	10800104 	addi	r2,r2,4
 2008cc8:	1007883a 	mov	r3,r2
 2008ccc:	e0bffe17 	ldw	r2,-8(fp)
 2008cd0:	1080028b 	ldhu	r2,10(r2)
 2008cd4:	1880000d 	sth	r2,0(r3)
	swapEndianess(pMessage+4, 2);
 2008cd8:	e0bfff17 	ldw	r2,-4(fp)
 2008cdc:	11000104 	addi	r4,r2,4
 2008ce0:	01400084 	movi	r5,2
 2008ce4:	20002480 	call	2000248 <_Z13swapEndianessPhm>

	*((alt_16*) (pMessage+6)) = m_uiWheelCircumference;
 2008ce8:	e0bfff17 	ldw	r2,-4(fp)
 2008cec:	10800184 	addi	r2,r2,6
 2008cf0:	1007883a 	mov	r3,r2
 2008cf4:	e0bffe17 	ldw	r2,-8(fp)
 2008cf8:	1080030b 	ldhu	r2,12(r2)
 2008cfc:	1880000d 	sth	r2,0(r3)
	swapEndianess(pMessage+6, 2);
 2008d00:	e0bfff17 	ldw	r2,-4(fp)
 2008d04:	11000184 	addi	r4,r2,6
 2008d08:	01400084 	movi	r5,2
 2008d0c:	20002480 	call	2000248 <_Z13swapEndianessPhm>

	*((alt_16*) (pMessage+8)) = m_iPType;
 2008d10:	e0bfff17 	ldw	r2,-4(fp)
 2008d14:	10800204 	addi	r2,r2,8
 2008d18:	1007883a 	mov	r3,r2
 2008d1c:	e0bffe17 	ldw	r2,-8(fp)
 2008d20:	1080038b 	ldhu	r2,14(r2)
 2008d24:	1880000d 	sth	r2,0(r3)
	swapEndianess(pMessage+8, 2);
 2008d28:	e0bfff17 	ldw	r2,-4(fp)
 2008d2c:	11000204 	addi	r4,r2,8
 2008d30:	01400084 	movi	r5,2
 2008d34:	20002480 	call	2000248 <_Z13swapEndianessPhm>

	*((alt_16*) (pMessage+10)) = m_iIType;
 2008d38:	e0bfff17 	ldw	r2,-4(fp)
 2008d3c:	10800284 	addi	r2,r2,10
 2008d40:	1007883a 	mov	r3,r2
 2008d44:	e0bffe17 	ldw	r2,-8(fp)
 2008d48:	1080040b 	ldhu	r2,16(r2)
 2008d4c:	1880000d 	sth	r2,0(r3)
	swapEndianess(pMessage+10, 2);
 2008d50:	e0bfff17 	ldw	r2,-4(fp)
 2008d54:	11000284 	addi	r4,r2,10
 2008d58:	01400084 	movi	r5,2
 2008d5c:	20002480 	call	2000248 <_Z13swapEndianessPhm>

	*((alt_16*) (pMessage+12)) = m_iDType;
 2008d60:	e0bfff17 	ldw	r2,-4(fp)
 2008d64:	10800304 	addi	r2,r2,12
 2008d68:	1007883a 	mov	r3,r2
 2008d6c:	e0bffe17 	ldw	r2,-8(fp)
 2008d70:	1080048b 	ldhu	r2,18(r2)
 2008d74:	1880000d 	sth	r2,0(r3)
	swapEndianess(pMessage+12, 2);
 2008d78:	e0bfff17 	ldw	r2,-4(fp)
 2008d7c:	11000304 	addi	r4,r2,12
 2008d80:	01400084 	movi	r5,2
 2008d84:	20002480 	call	2000248 <_Z13swapEndianessPhm>

	pMessage[14] = m_uiReserved;
 2008d88:	e0bfff17 	ldw	r2,-4(fp)
 2008d8c:	10c00384 	addi	r3,r2,14
 2008d90:	e0bffe17 	ldw	r2,-8(fp)
 2008d94:	10800503 	ldbu	r2,20(r2)
 2008d98:	18800005 	stb	r2,0(r3)
	pMessage[15] = m_uiCommand;
 2008d9c:	e0bfff17 	ldw	r2,-4(fp)
 2008da0:	10c003c4 	addi	r3,r2,15
 2008da4:	e0bffe17 	ldw	r2,-8(fp)
 2008da8:	10800543 	ldbu	r2,21(r2)
 2008dac:	18800005 	stb	r2,0(r3)

	return m_bValid;
 2008db0:	e0bffe17 	ldw	r2,-8(fp)
 2008db4:	10800203 	ldbu	r2,8(r2)
 2008db8:	10803fcc 	andi	r2,r2,255
}
 2008dbc:	e037883a 	mov	sp,fp
 2008dc0:	dfc00117 	ldw	ra,4(sp)
 2008dc4:	df000017 	ldw	fp,0(sp)
 2008dc8:	dec00204 	addi	sp,sp,8
 2008dcc:	f800283a 	ret

02008dd0 <_ZN24CMotorMeasurementMessage12parseMessageEPhi>:
void CMotorMeasurementMessage::doAction()
{

}

void CMotorMeasurementMessage::parseMessage(alt_u8 *pMessage, int iLength)
 2008dd0:	defffb04 	addi	sp,sp,-20
 2008dd4:	dfc00415 	stw	ra,16(sp)
 2008dd8:	df000315 	stw	fp,12(sp)
 2008ddc:	df000304 	addi	fp,sp,12
 2008de0:	e13ffd15 	stw	r4,-12(fp)
 2008de4:	e17ffe15 	stw	r5,-8(fp)
 2008de8:	e1bfff15 	stw	r6,-4(fp)
{
	if(iLength < 12)
 2008dec:	e0bfff17 	ldw	r2,-4(fp)
 2008df0:	10800310 	cmplti	r2,r2,12
 2008df4:	10003f1e 	bne	r2,zero,2008ef4 <_ZN24CMotorMeasurementMessage12parseMessageEPhi+0x124>
		return;

	m_iMaxSpeed = *((alt_16*) (pMessage));
 2008df8:	e0bffe17 	ldw	r2,-8(fp)
 2008dfc:	10c0000b 	ldhu	r3,0(r2)
 2008e00:	e0bffd17 	ldw	r2,-12(fp)
 2008e04:	10c0028d 	sth	r3,10(r2)
	swapEndianess((alt_u8*) &m_iMaxSpeed, 2);
 2008e08:	e0bffd17 	ldw	r2,-12(fp)
 2008e0c:	10800284 	addi	r2,r2,10
 2008e10:	1009883a 	mov	r4,r2
 2008e14:	01400084 	movi	r5,2
 2008e18:	20002480 	call	2000248 <_Z13swapEndianessPhm>

	m_uiWheelCircumference = *((alt_16*) (pMessage+2));
 2008e1c:	e0bffe17 	ldw	r2,-8(fp)
 2008e20:	10800084 	addi	r2,r2,2
 2008e24:	1080000b 	ldhu	r2,0(r2)
 2008e28:	1007883a 	mov	r3,r2
 2008e2c:	e0bffd17 	ldw	r2,-12(fp)
 2008e30:	10c0030d 	sth	r3,12(r2)
	swapEndianess((alt_u8*) &m_uiWheelCircumference, 2);
 2008e34:	e0bffd17 	ldw	r2,-12(fp)
 2008e38:	10800304 	addi	r2,r2,12
 2008e3c:	1009883a 	mov	r4,r2
 2008e40:	01400084 	movi	r5,2
 2008e44:	20002480 	call	2000248 <_Z13swapEndianessPhm>

	m_iPType = *((alt_16*) (pMessage+4));
 2008e48:	e0bffe17 	ldw	r2,-8(fp)
 2008e4c:	10800104 	addi	r2,r2,4
 2008e50:	10c0000b 	ldhu	r3,0(r2)
 2008e54:	e0bffd17 	ldw	r2,-12(fp)
 2008e58:	10c0038d 	sth	r3,14(r2)
	swapEndianess((alt_u8*) &m_iPType, 2);
 2008e5c:	e0bffd17 	ldw	r2,-12(fp)
 2008e60:	10800384 	addi	r2,r2,14
 2008e64:	1009883a 	mov	r4,r2
 2008e68:	01400084 	movi	r5,2
 2008e6c:	20002480 	call	2000248 <_Z13swapEndianessPhm>

	m_iIType = *((alt_16*) (pMessage+6));
 2008e70:	e0bffe17 	ldw	r2,-8(fp)
 2008e74:	10800184 	addi	r2,r2,6
 2008e78:	10c0000b 	ldhu	r3,0(r2)
 2008e7c:	e0bffd17 	ldw	r2,-12(fp)
 2008e80:	10c0040d 	sth	r3,16(r2)
	swapEndianess((alt_u8*) &m_iIType, 2);
 2008e84:	e0bffd17 	ldw	r2,-12(fp)
 2008e88:	10800404 	addi	r2,r2,16
 2008e8c:	1009883a 	mov	r4,r2
 2008e90:	01400084 	movi	r5,2
 2008e94:	20002480 	call	2000248 <_Z13swapEndianessPhm>

	m_iDType = *((alt_16*) (pMessage+8));
 2008e98:	e0bffe17 	ldw	r2,-8(fp)
 2008e9c:	10800204 	addi	r2,r2,8
 2008ea0:	10c0000b 	ldhu	r3,0(r2)
 2008ea4:	e0bffd17 	ldw	r2,-12(fp)
 2008ea8:	10c0048d 	sth	r3,18(r2)
	swapEndianess((alt_u8*) &m_iDType, 2);
 2008eac:	e0bffd17 	ldw	r2,-12(fp)
 2008eb0:	10800484 	addi	r2,r2,18
 2008eb4:	1009883a 	mov	r4,r2
 2008eb8:	01400084 	movi	r5,2
 2008ebc:	20002480 	call	2000248 <_Z13swapEndianessPhm>

	m_uiReserved = pMessage[10];
 2008ec0:	e0bffe17 	ldw	r2,-8(fp)
 2008ec4:	10800284 	addi	r2,r2,10
 2008ec8:	10c00003 	ldbu	r3,0(r2)
 2008ecc:	e0bffd17 	ldw	r2,-12(fp)
 2008ed0:	10c00505 	stb	r3,20(r2)
	m_uiCommand = pMessage[11];
 2008ed4:	e0bffe17 	ldw	r2,-8(fp)
 2008ed8:	108002c4 	addi	r2,r2,11
 2008edc:	10c00003 	ldbu	r3,0(r2)
 2008ee0:	e0bffd17 	ldw	r2,-12(fp)
 2008ee4:	10c00545 	stb	r3,21(r2)

	m_bValid = true;
 2008ee8:	e0fffd17 	ldw	r3,-12(fp)
 2008eec:	00800044 	movi	r2,1
 2008ef0:	18800205 	stb	r2,8(r3)

}
 2008ef4:	e037883a 	mov	sp,fp
 2008ef8:	dfc00117 	ldw	ra,4(sp)
 2008efc:	df000017 	ldw	fp,0(sp)
 2008f00:	dec00204 	addi	sp,sp,8
 2008f04:	f800283a 	ret

02008f08 <_ZN24CMotorMeasurementMessageD0Ev>:
		m_bValid = false;
		parseMessage(pMessage+4, iLength-4);
	}
}

CMotorMeasurementMessage::~CMotorMeasurementMessage()
 2008f08:	defffd04 	addi	sp,sp,-12
 2008f0c:	dfc00215 	stw	ra,8(sp)
 2008f10:	df000115 	stw	fp,4(sp)
 2008f14:	df000104 	addi	fp,sp,4
 2008f18:	e13fff15 	stw	r4,-4(fp)
 2008f1c:	00c08074 	movhi	r3,513
 2008f20:	18ca0004 	addi	r3,r3,10240
 2008f24:	e0bfff17 	ldw	r2,-4(fp)
 2008f28:	10c00015 	stw	r3,0(r2)
{
}
 2008f2c:	e13fff17 	ldw	r4,-4(fp)
 2008f30:	20073b40 	call	20073b4 <_ZN11CCarMessageD2Ev>
 2008f34:	00800044 	movi	r2,1
 2008f38:	10803fcc 	andi	r2,r2,255
 2008f3c:	1005003a 	cmpeq	r2,r2,zero
 2008f40:	1000021e 	bne	r2,zero,2008f4c <_ZN24CMotorMeasurementMessageD0Ev+0x44>
 2008f44:	e13fff17 	ldw	r4,-4(fp)
 2008f48:	200bc9c0 	call	200bc9c <_ZdlPv>
 2008f4c:	e037883a 	mov	sp,fp
 2008f50:	dfc00117 	ldw	ra,4(sp)
 2008f54:	df000017 	ldw	fp,0(sp)
 2008f58:	dec00204 	addi	sp,sp,8
 2008f5c:	f800283a 	ret

02008f60 <_ZN24CMotorMeasurementMessageD1Ev>:
		m_bValid = false;
		parseMessage(pMessage+4, iLength-4);
	}
}

CMotorMeasurementMessage::~CMotorMeasurementMessage()
 2008f60:	defffd04 	addi	sp,sp,-12
 2008f64:	dfc00215 	stw	ra,8(sp)
 2008f68:	df000115 	stw	fp,4(sp)
 2008f6c:	df000104 	addi	fp,sp,4
 2008f70:	e13fff15 	stw	r4,-4(fp)
 2008f74:	00c08074 	movhi	r3,513
 2008f78:	18ca0004 	addi	r3,r3,10240
 2008f7c:	e0bfff17 	ldw	r2,-4(fp)
 2008f80:	10c00015 	stw	r3,0(r2)
{
}
 2008f84:	e13fff17 	ldw	r4,-4(fp)
 2008f88:	20073b40 	call	20073b4 <_ZN11CCarMessageD2Ev>
 2008f8c:	0005883a 	mov	r2,zero
 2008f90:	10803fcc 	andi	r2,r2,255
 2008f94:	1005003a 	cmpeq	r2,r2,zero
 2008f98:	1000021e 	bne	r2,zero,2008fa4 <_ZN24CMotorMeasurementMessageD1Ev+0x44>
 2008f9c:	e13fff17 	ldw	r4,-4(fp)
 2008fa0:	200bc9c0 	call	200bc9c <_ZdlPv>
 2008fa4:	e037883a 	mov	sp,fp
 2008fa8:	dfc00117 	ldw	ra,4(sp)
 2008fac:	df000017 	ldw	fp,0(sp)
 2008fb0:	dec00204 	addi	sp,sp,8
 2008fb4:	f800283a 	ret

02008fb8 <_ZN24CMotorMeasurementMessageD2Ev>:
		m_bValid = false;
		parseMessage(pMessage+4, iLength-4);
	}
}

CMotorMeasurementMessage::~CMotorMeasurementMessage()
 2008fb8:	defffd04 	addi	sp,sp,-12
 2008fbc:	dfc00215 	stw	ra,8(sp)
 2008fc0:	df000115 	stw	fp,4(sp)
 2008fc4:	df000104 	addi	fp,sp,4
 2008fc8:	e13fff15 	stw	r4,-4(fp)
 2008fcc:	00c08074 	movhi	r3,513
 2008fd0:	18ca0004 	addi	r3,r3,10240
 2008fd4:	e0bfff17 	ldw	r2,-4(fp)
 2008fd8:	10c00015 	stw	r3,0(r2)
{
}
 2008fdc:	e13fff17 	ldw	r4,-4(fp)
 2008fe0:	20073b40 	call	20073b4 <_ZN11CCarMessageD2Ev>
 2008fe4:	0005883a 	mov	r2,zero
 2008fe8:	10803fcc 	andi	r2,r2,255
 2008fec:	1005003a 	cmpeq	r2,r2,zero
 2008ff0:	1000021e 	bne	r2,zero,2008ffc <_ZN24CMotorMeasurementMessageD2Ev+0x44>
 2008ff4:	e13fff17 	ldw	r4,-4(fp)
 2008ff8:	200bc9c0 	call	200bc9c <_ZdlPv>
 2008ffc:	e037883a 	mov	sp,fp
 2009000:	dfc00117 	ldw	ra,4(sp)
 2009004:	df000017 	ldw	fp,0(sp)
 2009008:	dec00204 	addi	sp,sp,8
 200900c:	f800283a 	ret

02009010 <_ZN24CMotorMeasurementMessageC1EPhi>:
	m_uiCommand = 0;

	m_bValid = true;
}

CMotorMeasurementMessage::CMotorMeasurementMessage(alt_u8 *pMessage, int iLength)
 2009010:	deffe404 	addi	sp,sp,-112
 2009014:	dfc01b15 	stw	ra,108(sp)
 2009018:	df001a15 	stw	fp,104(sp)
 200901c:	ddc01915 	stw	r23,100(sp)
 2009020:	dd801815 	stw	r22,96(sp)
 2009024:	dd401715 	stw	r21,92(sp)
 2009028:	dd001615 	stw	r20,88(sp)
 200902c:	dcc01515 	stw	r19,84(sp)
 2009030:	dc801415 	stw	r18,80(sp)
 2009034:	dc401315 	stw	r17,76(sp)
 2009038:	dc001215 	stw	r16,72(sp)
 200903c:	df001204 	addi	fp,sp,72
 2009040:	e13fee15 	stw	r4,-72(fp)
 2009044:	e17fef15 	stw	r5,-68(fp)
 2009048:	e1bff015 	stw	r6,-64(fp)
 200904c:	00808074 	movhi	r2,513
 2009050:	10adca04 	addi	r2,r2,-18648
 2009054:	e0bff715 	stw	r2,-36(fp)
 2009058:	00808074 	movhi	r2,513
 200905c:	10893684 	addi	r2,r2,9434
 2009060:	e0bff815 	stw	r2,-32(fp)
 2009064:	e0bff904 	addi	r2,fp,-28
 2009068:	e0ffee04 	addi	r3,fp,-72
 200906c:	10c00015 	stw	r3,0(r2)
 2009070:	00c08074 	movhi	r3,513
 2009074:	18e43e04 	addi	r3,r3,-28424
 2009078:	10c00115 	stw	r3,4(r2)
 200907c:	16c00215 	stw	sp,8(r2)
 2009080:	e13ff104 	addi	r4,fp,-60
 2009084:	200d0800 	call	200d080 <_Unwind_SjLj_Register>
 2009088:	e13fee17 	ldw	r4,-72(fp)
 200908c:	00bfffc4 	movi	r2,-1
 2009090:	e0bff215 	stw	r2,-56(fp)
 2009094:	2006df00 	call	2006df0 <_ZN11CCarMessageC2Ev>
 2009098:	00c08074 	movhi	r3,513
 200909c:	18ca0004 	addi	r3,r3,10240
 20090a0:	e0bfee17 	ldw	r2,-72(fp)
 20090a4:	10c00015 	stw	r3,0(r2)
{
	parseHeader(pMessage, iLength);
 20090a8:	e13fee17 	ldw	r4,-72(fp)
 20090ac:	00800044 	movi	r2,1
 20090b0:	e0bff215 	stw	r2,-56(fp)
 20090b4:	e17fef17 	ldw	r5,-68(fp)
 20090b8:	e1bff017 	ldw	r6,-64(fp)
 20090bc:	20071480 	call	2007148 <_ZN11CCarMessage11parseHeaderEPhi>
	if(m_bValid)
 20090c0:	e0bfee17 	ldw	r2,-72(fp)
 20090c4:	10800203 	ldbu	r2,8(r2)
 20090c8:	10803fcc 	andi	r2,r2,255
 20090cc:	1005003a 	cmpeq	r2,r2,zero
 20090d0:	1000171e 	bne	r2,zero,2009130 <_ZN24CMotorMeasurementMessageC1EPhi+0x120>
	{
		m_bValid = false;
 20090d4:	e0bfee17 	ldw	r2,-72(fp)
 20090d8:	10000205 	stb	zero,8(r2)
		parseMessage(pMessage+4, iLength-4);
 20090dc:	e0bfef17 	ldw	r2,-68(fp)
 20090e0:	11400104 	addi	r5,r2,4
 20090e4:	e0bff017 	ldw	r2,-64(fp)
 20090e8:	11bfff04 	addi	r6,r2,-4
 20090ec:	e13fee17 	ldw	r4,-72(fp)
 20090f0:	2008dd00 	call	2008dd0 <_ZN24CMotorMeasurementMessage12parseMessageEPhi>
	}
}
 20090f4:	00000e06 	br	2009130 <_ZN24CMotorMeasurementMessageC1EPhi+0x120>
 20090f8:	e7001204 	addi	fp,fp,72
 20090fc:	e0bff317 	ldw	r2,-52(fp)
 2009100:	e0bfff15 	stw	r2,-4(fp)
 2009104:	e0ffff17 	ldw	r3,-4(fp)
 2009108:	e0fffe15 	stw	r3,-8(fp)
 200910c:	e13fee17 	ldw	r4,-72(fp)
 2009110:	e03ff215 	stw	zero,-56(fp)
 2009114:	20073b40 	call	20073b4 <_ZN11CCarMessageD2Ev>
 2009118:	e0bffe17 	ldw	r2,-8(fp)
 200911c:	e0bfff15 	stw	r2,-4(fp)
 2009120:	00bfffc4 	movi	r2,-1
 2009124:	e0bff215 	stw	r2,-56(fp)
 2009128:	e13fff17 	ldw	r4,-4(fp)
 200912c:	200d34c0 	call	200d34c <_Unwind_SjLj_Resume>
 2009130:	e13ff104 	addi	r4,fp,-60
 2009134:	200d0900 	call	200d090 <_Unwind_SjLj_Unregister>
 2009138:	e037883a 	mov	sp,fp
 200913c:	dfc00917 	ldw	ra,36(sp)
 2009140:	df000817 	ldw	fp,32(sp)
 2009144:	ddc00717 	ldw	r23,28(sp)
 2009148:	dd800617 	ldw	r22,24(sp)
 200914c:	dd400517 	ldw	r21,20(sp)
 2009150:	dd000417 	ldw	r20,16(sp)
 2009154:	dcc00317 	ldw	r19,12(sp)
 2009158:	dc800217 	ldw	r18,8(sp)
 200915c:	dc400117 	ldw	r17,4(sp)
 2009160:	dc000017 	ldw	r16,0(sp)
 2009164:	dec00a04 	addi	sp,sp,40
 2009168:	f800283a 	ret

0200916c <_ZN24CMotorMeasurementMessageC2EPhi>:
	m_uiCommand = 0;

	m_bValid = true;
}

CMotorMeasurementMessage::CMotorMeasurementMessage(alt_u8 *pMessage, int iLength)
 200916c:	deffe404 	addi	sp,sp,-112
 2009170:	dfc01b15 	stw	ra,108(sp)
 2009174:	df001a15 	stw	fp,104(sp)
 2009178:	ddc01915 	stw	r23,100(sp)
 200917c:	dd801815 	stw	r22,96(sp)
 2009180:	dd401715 	stw	r21,92(sp)
 2009184:	dd001615 	stw	r20,88(sp)
 2009188:	dcc01515 	stw	r19,84(sp)
 200918c:	dc801415 	stw	r18,80(sp)
 2009190:	dc401315 	stw	r17,76(sp)
 2009194:	dc001215 	stw	r16,72(sp)
 2009198:	df001204 	addi	fp,sp,72
 200919c:	e13fee15 	stw	r4,-72(fp)
 20091a0:	e17fef15 	stw	r5,-68(fp)
 20091a4:	e1bff015 	stw	r6,-64(fp)
 20091a8:	00808074 	movhi	r2,513
 20091ac:	10adca04 	addi	r2,r2,-18648
 20091b0:	e0bff715 	stw	r2,-36(fp)
 20091b4:	00808074 	movhi	r2,513
 20091b8:	10893804 	addi	r2,r2,9440
 20091bc:	e0bff815 	stw	r2,-32(fp)
 20091c0:	e0bff904 	addi	r2,fp,-28
 20091c4:	e0ffee04 	addi	r3,fp,-72
 20091c8:	10c00015 	stw	r3,0(r2)
 20091cc:	00c08074 	movhi	r3,513
 20091d0:	18e49504 	addi	r3,r3,-28076
 20091d4:	10c00115 	stw	r3,4(r2)
 20091d8:	16c00215 	stw	sp,8(r2)
 20091dc:	e13ff104 	addi	r4,fp,-60
 20091e0:	200d0800 	call	200d080 <_Unwind_SjLj_Register>
 20091e4:	e13fee17 	ldw	r4,-72(fp)
 20091e8:	00bfffc4 	movi	r2,-1
 20091ec:	e0bff215 	stw	r2,-56(fp)
 20091f0:	2006df00 	call	2006df0 <_ZN11CCarMessageC2Ev>
 20091f4:	00c08074 	movhi	r3,513
 20091f8:	18ca0004 	addi	r3,r3,10240
 20091fc:	e0bfee17 	ldw	r2,-72(fp)
 2009200:	10c00015 	stw	r3,0(r2)
{
	parseHeader(pMessage, iLength);
 2009204:	e13fee17 	ldw	r4,-72(fp)
 2009208:	00800044 	movi	r2,1
 200920c:	e0bff215 	stw	r2,-56(fp)
 2009210:	e17fef17 	ldw	r5,-68(fp)
 2009214:	e1bff017 	ldw	r6,-64(fp)
 2009218:	20071480 	call	2007148 <_ZN11CCarMessage11parseHeaderEPhi>
	if(m_bValid)
 200921c:	e0bfee17 	ldw	r2,-72(fp)
 2009220:	10800203 	ldbu	r2,8(r2)
 2009224:	10803fcc 	andi	r2,r2,255
 2009228:	1005003a 	cmpeq	r2,r2,zero
 200922c:	1000171e 	bne	r2,zero,200928c <_ZN24CMotorMeasurementMessageC2EPhi+0x120>
	{
		m_bValid = false;
 2009230:	e0bfee17 	ldw	r2,-72(fp)
 2009234:	10000205 	stb	zero,8(r2)
		parseMessage(pMessage+4, iLength-4);
 2009238:	e0bfef17 	ldw	r2,-68(fp)
 200923c:	11400104 	addi	r5,r2,4
 2009240:	e0bff017 	ldw	r2,-64(fp)
 2009244:	11bfff04 	addi	r6,r2,-4
 2009248:	e13fee17 	ldw	r4,-72(fp)
 200924c:	2008dd00 	call	2008dd0 <_ZN24CMotorMeasurementMessage12parseMessageEPhi>
	}
}
 2009250:	00000e06 	br	200928c <_ZN24CMotorMeasurementMessageC2EPhi+0x120>
 2009254:	e7001204 	addi	fp,fp,72
 2009258:	e0bff317 	ldw	r2,-52(fp)
 200925c:	e0bfff15 	stw	r2,-4(fp)
 2009260:	e0ffff17 	ldw	r3,-4(fp)
 2009264:	e0fffe15 	stw	r3,-8(fp)
 2009268:	e13fee17 	ldw	r4,-72(fp)
 200926c:	e03ff215 	stw	zero,-56(fp)
 2009270:	20073b40 	call	20073b4 <_ZN11CCarMessageD2Ev>
 2009274:	e0bffe17 	ldw	r2,-8(fp)
 2009278:	e0bfff15 	stw	r2,-4(fp)
 200927c:	00bfffc4 	movi	r2,-1
 2009280:	e0bff215 	stw	r2,-56(fp)
 2009284:	e13fff17 	ldw	r4,-4(fp)
 2009288:	200d34c0 	call	200d34c <_Unwind_SjLj_Resume>
 200928c:	e13ff104 	addi	r4,fp,-60
 2009290:	200d0900 	call	200d090 <_Unwind_SjLj_Unregister>
 2009294:	e037883a 	mov	sp,fp
 2009298:	dfc00917 	ldw	ra,36(sp)
 200929c:	df000817 	ldw	fp,32(sp)
 20092a0:	ddc00717 	ldw	r23,28(sp)
 20092a4:	dd800617 	ldw	r22,24(sp)
 20092a8:	dd400517 	ldw	r21,20(sp)
 20092ac:	dd000417 	ldw	r20,16(sp)
 20092b0:	dcc00317 	ldw	r19,12(sp)
 20092b4:	dc800217 	ldw	r18,8(sp)
 20092b8:	dc400117 	ldw	r17,4(sp)
 20092bc:	dc000017 	ldw	r16,0(sp)
 20092c0:	dec00a04 	addi	sp,sp,40
 20092c4:	f800283a 	ret

020092c8 <_ZN24CMotorMeasurementMessageC1Ev>:
 *      Author: Florian
 */

#include "MotorMeasurementMessage.h"

CMotorMeasurementMessage::CMotorMeasurementMessage()
 20092c8:	deffe504 	addi	sp,sp,-108
 20092cc:	dfc01a15 	stw	ra,104(sp)
 20092d0:	df001915 	stw	fp,100(sp)
 20092d4:	ddc01815 	stw	r23,96(sp)
 20092d8:	dd801715 	stw	r22,92(sp)
 20092dc:	dd401615 	stw	r21,88(sp)
 20092e0:	dd001515 	stw	r20,84(sp)
 20092e4:	dcc01415 	stw	r19,80(sp)
 20092e8:	dc801315 	stw	r18,76(sp)
 20092ec:	dc401215 	stw	r17,72(sp)
 20092f0:	dc001115 	stw	r16,68(sp)
 20092f4:	df001104 	addi	fp,sp,68
 20092f8:	e13fef15 	stw	r4,-68(fp)
 20092fc:	00808074 	movhi	r2,513
 2009300:	10adca04 	addi	r2,r2,-18648
 2009304:	e0bff615 	stw	r2,-40(fp)
 2009308:	00808074 	movhi	r2,513
 200930c:	10893984 	addi	r2,r2,9446
 2009310:	e0bff715 	stw	r2,-36(fp)
 2009314:	e0bff804 	addi	r2,fp,-32
 2009318:	e0ffef04 	addi	r3,fp,-68
 200931c:	10c00015 	stw	r3,0(r2)
 2009320:	00c08074 	movhi	r3,513
 2009324:	18e4f104 	addi	r3,r3,-27708
 2009328:	10c00115 	stw	r3,4(r2)
 200932c:	16c00215 	stw	sp,8(r2)
 2009330:	e13ff004 	addi	r4,fp,-64
 2009334:	200d0800 	call	200d080 <_Unwind_SjLj_Register>
 2009338:	e13fef17 	ldw	r4,-68(fp)
 200933c:	00bfffc4 	movi	r2,-1
 2009340:	e0bff115 	stw	r2,-60(fp)
 2009344:	2006df00 	call	2006df0 <_ZN11CCarMessageC2Ev>
 2009348:	00c08074 	movhi	r3,513
 200934c:	18ca0004 	addi	r3,r3,10240
 2009350:	e0bfef17 	ldw	r2,-68(fp)
 2009354:	10c00015 	stw	r3,0(r2)
{
	setHeader(5, getLength(), 0);
 2009358:	e0bfef17 	ldw	r2,-68(fp)
 200935c:	e0bffe15 	stw	r2,-8(fp)
 2009360:	e13fef17 	ldw	r4,-68(fp)
 2009364:	2008be80 	call	2008be8 <_ZN24CMotorMeasurementMessage9getLengthEv>
 2009368:	11803fcc 	andi	r6,r2,255
 200936c:	00800044 	movi	r2,1
 2009370:	e0bff115 	stw	r2,-60(fp)
 2009374:	e13ffe17 	ldw	r4,-8(fp)
 2009378:	01400144 	movi	r5,5
 200937c:	000f883a 	mov	r7,zero
 2009380:	2006fc40 	call	2006fc4 <_ZN11CCarMessage9setHeaderEhhb>

 	m_iMaxSpeed = 0;
 2009384:	e0bfef17 	ldw	r2,-68(fp)
 2009388:	1000028d 	sth	zero,10(r2)
	m_uiWheelCircumference = 0;
 200938c:	e0bfef17 	ldw	r2,-68(fp)
 2009390:	1000030d 	sth	zero,12(r2)
	m_iPType = 0;
 2009394:	e0bfef17 	ldw	r2,-68(fp)
 2009398:	1000038d 	sth	zero,14(r2)
	m_iIType = 0;
 200939c:	e0bfef17 	ldw	r2,-68(fp)
 20093a0:	1000040d 	sth	zero,16(r2)
	m_iDType = 0;
 20093a4:	e0bfef17 	ldw	r2,-68(fp)
 20093a8:	1000048d 	sth	zero,18(r2)
	m_uiCommand = 0;
 20093ac:	e0bfef17 	ldw	r2,-68(fp)
 20093b0:	10000545 	stb	zero,21(r2)

	m_bValid = true;
 20093b4:	e0ffef17 	ldw	r3,-68(fp)
 20093b8:	00800044 	movi	r2,1
 20093bc:	18800205 	stb	r2,8(r3)
}
 20093c0:	00000e06 	br	20093fc <_ZN24CMotorMeasurementMessageC1Ev+0x134>
 20093c4:	e7001104 	addi	fp,fp,68
 20093c8:	e0fff217 	ldw	r3,-56(fp)
 20093cc:	e0ffff15 	stw	r3,-4(fp)
 20093d0:	e0bfff17 	ldw	r2,-4(fp)
 20093d4:	e0bffd15 	stw	r2,-12(fp)
 20093d8:	e13fef17 	ldw	r4,-68(fp)
 20093dc:	e03ff115 	stw	zero,-60(fp)
 20093e0:	20073b40 	call	20073b4 <_ZN11CCarMessageD2Ev>
 20093e4:	e0fffd17 	ldw	r3,-12(fp)
 20093e8:	e0ffff15 	stw	r3,-4(fp)
 20093ec:	00bfffc4 	movi	r2,-1
 20093f0:	e0bff115 	stw	r2,-60(fp)
 20093f4:	e13fff17 	ldw	r4,-4(fp)
 20093f8:	200d34c0 	call	200d34c <_Unwind_SjLj_Resume>
 20093fc:	e13ff004 	addi	r4,fp,-64
 2009400:	200d0900 	call	200d090 <_Unwind_SjLj_Unregister>
 2009404:	e037883a 	mov	sp,fp
 2009408:	dfc00917 	ldw	ra,36(sp)
 200940c:	df000817 	ldw	fp,32(sp)
 2009410:	ddc00717 	ldw	r23,28(sp)
 2009414:	dd800617 	ldw	r22,24(sp)
 2009418:	dd400517 	ldw	r21,20(sp)
 200941c:	dd000417 	ldw	r20,16(sp)
 2009420:	dcc00317 	ldw	r19,12(sp)
 2009424:	dc800217 	ldw	r18,8(sp)
 2009428:	dc400117 	ldw	r17,4(sp)
 200942c:	dc000017 	ldw	r16,0(sp)
 2009430:	dec00a04 	addi	sp,sp,40
 2009434:	f800283a 	ret

02009438 <_ZN24CMotorMeasurementMessageC2Ev>:
 *      Author: Florian
 */

#include "MotorMeasurementMessage.h"

CMotorMeasurementMessage::CMotorMeasurementMessage()
 2009438:	deffe504 	addi	sp,sp,-108
 200943c:	dfc01a15 	stw	ra,104(sp)
 2009440:	df001915 	stw	fp,100(sp)
 2009444:	ddc01815 	stw	r23,96(sp)
 2009448:	dd801715 	stw	r22,92(sp)
 200944c:	dd401615 	stw	r21,88(sp)
 2009450:	dd001515 	stw	r20,84(sp)
 2009454:	dcc01415 	stw	r19,80(sp)
 2009458:	dc801315 	stw	r18,76(sp)
 200945c:	dc401215 	stw	r17,72(sp)
 2009460:	dc001115 	stw	r16,68(sp)
 2009464:	df001104 	addi	fp,sp,68
 2009468:	e13fef15 	stw	r4,-68(fp)
 200946c:	00808074 	movhi	r2,513
 2009470:	10adca04 	addi	r2,r2,-18648
 2009474:	e0bff615 	stw	r2,-40(fp)
 2009478:	00808074 	movhi	r2,513
 200947c:	10893b04 	addi	r2,r2,9452
 2009480:	e0bff715 	stw	r2,-36(fp)
 2009484:	e0bff804 	addi	r2,fp,-32
 2009488:	e0ffef04 	addi	r3,fp,-68
 200948c:	10c00015 	stw	r3,0(r2)
 2009490:	00c08074 	movhi	r3,513
 2009494:	18e54d04 	addi	r3,r3,-27340
 2009498:	10c00115 	stw	r3,4(r2)
 200949c:	16c00215 	stw	sp,8(r2)
 20094a0:	e13ff004 	addi	r4,fp,-64
 20094a4:	200d0800 	call	200d080 <_Unwind_SjLj_Register>
 20094a8:	e13fef17 	ldw	r4,-68(fp)
 20094ac:	00bfffc4 	movi	r2,-1
 20094b0:	e0bff115 	stw	r2,-60(fp)
 20094b4:	2006df00 	call	2006df0 <_ZN11CCarMessageC2Ev>
 20094b8:	00c08074 	movhi	r3,513
 20094bc:	18ca0004 	addi	r3,r3,10240
 20094c0:	e0bfef17 	ldw	r2,-68(fp)
 20094c4:	10c00015 	stw	r3,0(r2)
{
	setHeader(5, getLength(), 0);
 20094c8:	e0bfef17 	ldw	r2,-68(fp)
 20094cc:	e0bffe15 	stw	r2,-8(fp)
 20094d0:	e13fef17 	ldw	r4,-68(fp)
 20094d4:	2008be80 	call	2008be8 <_ZN24CMotorMeasurementMessage9getLengthEv>
 20094d8:	11803fcc 	andi	r6,r2,255
 20094dc:	00800044 	movi	r2,1
 20094e0:	e0bff115 	stw	r2,-60(fp)
 20094e4:	e13ffe17 	ldw	r4,-8(fp)
 20094e8:	01400144 	movi	r5,5
 20094ec:	000f883a 	mov	r7,zero
 20094f0:	2006fc40 	call	2006fc4 <_ZN11CCarMessage9setHeaderEhhb>

 	m_iMaxSpeed = 0;
 20094f4:	e0bfef17 	ldw	r2,-68(fp)
 20094f8:	1000028d 	sth	zero,10(r2)
	m_uiWheelCircumference = 0;
 20094fc:	e0bfef17 	ldw	r2,-68(fp)
 2009500:	1000030d 	sth	zero,12(r2)
	m_iPType = 0;
 2009504:	e0bfef17 	ldw	r2,-68(fp)
 2009508:	1000038d 	sth	zero,14(r2)
	m_iIType = 0;
 200950c:	e0bfef17 	ldw	r2,-68(fp)
 2009510:	1000040d 	sth	zero,16(r2)
	m_iDType = 0;
 2009514:	e0bfef17 	ldw	r2,-68(fp)
 2009518:	1000048d 	sth	zero,18(r2)
	m_uiCommand = 0;
 200951c:	e0bfef17 	ldw	r2,-68(fp)
 2009520:	10000545 	stb	zero,21(r2)

	m_bValid = true;
 2009524:	e0ffef17 	ldw	r3,-68(fp)
 2009528:	00800044 	movi	r2,1
 200952c:	18800205 	stb	r2,8(r3)
}
 2009530:	00000e06 	br	200956c <_ZN24CMotorMeasurementMessageC2Ev+0x134>
 2009534:	e7001104 	addi	fp,fp,68
 2009538:	e0fff217 	ldw	r3,-56(fp)
 200953c:	e0ffff15 	stw	r3,-4(fp)
 2009540:	e0bfff17 	ldw	r2,-4(fp)
 2009544:	e0bffd15 	stw	r2,-12(fp)
 2009548:	e13fef17 	ldw	r4,-68(fp)
 200954c:	e03ff115 	stw	zero,-60(fp)
 2009550:	20073b40 	call	20073b4 <_ZN11CCarMessageD2Ev>
 2009554:	e0fffd17 	ldw	r3,-12(fp)
 2009558:	e0ffff15 	stw	r3,-4(fp)
 200955c:	00bfffc4 	movi	r2,-1
 2009560:	e0bff115 	stw	r2,-60(fp)
 2009564:	e13fff17 	ldw	r4,-4(fp)
 2009568:	200d34c0 	call	200d34c <_Unwind_SjLj_Resume>
 200956c:	e13ff004 	addi	r4,fp,-64
 2009570:	200d0900 	call	200d090 <_Unwind_SjLj_Unregister>
 2009574:	e037883a 	mov	sp,fp
 2009578:	dfc00917 	ldw	ra,36(sp)
 200957c:	df000817 	ldw	fp,32(sp)
 2009580:	ddc00717 	ldw	r23,28(sp)
 2009584:	dd800617 	ldw	r22,24(sp)
 2009588:	dd400517 	ldw	r21,20(sp)
 200958c:	dd000417 	ldw	r20,16(sp)
 2009590:	dcc00317 	ldw	r19,12(sp)
 2009594:	dc800217 	ldw	r18,8(sp)
 2009598:	dc400117 	ldw	r17,4(sp)
 200959c:	dc000017 	ldw	r16,0(sp)
 20095a0:	dec00a04 	addi	sp,sp,40
 20095a4:	f800283a 	ret

020095a8 <_ZN21CMotorVelocityMessage8doActionEv>:

CMotorVelocityMessage::~CMotorVelocityMessage()
{
}

void CMotorVelocityMessage::doAction()
 20095a8:	defffe04 	addi	sp,sp,-8
 20095ac:	df000115 	stw	fp,4(sp)
 20095b0:	df000104 	addi	fp,sp,4
 20095b4:	e13fff15 	stw	r4,-4(fp)
{

}
 20095b8:	e037883a 	mov	sp,fp
 20095bc:	df000017 	ldw	fp,0(sp)
 20095c0:	dec00104 	addi	sp,sp,4
 20095c4:	f800283a 	ret

020095c8 <_ZN21CMotorVelocityMessage9getLengthEv>:

	return m_bValid;
}


alt_u32 CMotorVelocityMessage::getLength()
 20095c8:	defffe04 	addi	sp,sp,-8
 20095cc:	df000115 	stw	fp,4(sp)
 20095d0:	df000104 	addi	fp,sp,4
 20095d4:	e13fff15 	stw	r4,-4(fp)
{
	return 8;
 20095d8:	00800204 	movi	r2,8
}
 20095dc:	e037883a 	mov	sp,fp
 20095e0:	df000017 	ldw	fp,0(sp)
 20095e4:	dec00104 	addi	sp,sp,4
 20095e8:	f800283a 	ret

020095ec <_ZN21CMotorVelocityMessage13answerMessageEs>:
	swapEndianess((alt_u8*) &m_iCurrentSpeed, 2);

	m_bValid = true;
}

void CMotorVelocityMessage::answerMessage(alt_16 iCurrentSpeed)
 20095ec:	defffd04 	addi	sp,sp,-12
 20095f0:	df000215 	stw	fp,8(sp)
 20095f4:	df000204 	addi	fp,sp,8
 20095f8:	e13ffe15 	stw	r4,-8(fp)
 20095fc:	e17fff0d 	sth	r5,-4(fp)
{
	m_iCurrentSpeed = iCurrentSpeed;
 2009600:	e0fffe17 	ldw	r3,-8(fp)
 2009604:	e0bfff0b 	ldhu	r2,-4(fp)
 2009608:	1880030d 	sth	r2,12(r3)

	m_uiFlags = m_uiFlags | 0x01; // Response-Flag setzen
 200960c:	e0bffe17 	ldw	r2,-8(fp)
 2009610:	108001c3 	ldbu	r2,7(r2)
 2009614:	10800054 	ori	r2,r2,1
 2009618:	1007883a 	mov	r3,r2
 200961c:	e0bffe17 	ldw	r2,-8(fp)
 2009620:	10c001c5 	stb	r3,7(r2)
}
 2009624:	e037883a 	mov	sp,fp
 2009628:	df000017 	ldw	fp,0(sp)
 200962c:	dec00104 	addi	sp,sp,4
 2009630:	f800283a 	ret

02009634 <_ZN21CMotorVelocityMessage12parseMessageEPhi>:
alt_u32 CMotorVelocityMessage::getLength()
{
	return 8;
}

void CMotorVelocityMessage::parseMessage(alt_u8 *pMessage, int iLength)
 2009634:	defffb04 	addi	sp,sp,-20
 2009638:	dfc00415 	stw	ra,16(sp)
 200963c:	df000315 	stw	fp,12(sp)
 2009640:	df000304 	addi	fp,sp,12
 2009644:	e13ffd15 	stw	r4,-12(fp)
 2009648:	e17ffe15 	stw	r5,-8(fp)
 200964c:	e1bfff15 	stw	r6,-4(fp)
{
	if(iLength < 4)
 2009650:	e0bfff17 	ldw	r2,-4(fp)
 2009654:	10800110 	cmplti	r2,r2,4
 2009658:	1000161e 	bne	r2,zero,20096b4 <_ZN21CMotorVelocityMessage12parseMessageEPhi+0x80>
		return;

	m_iDesiredSpeed = *((alt_16*) (pMessage));
 200965c:	e0bffe17 	ldw	r2,-8(fp)
 2009660:	10c0000b 	ldhu	r3,0(r2)
 2009664:	e0bffd17 	ldw	r2,-12(fp)
 2009668:	10c0028d 	sth	r3,10(r2)
	swapEndianess((alt_u8*) &m_iDesiredSpeed, 2);
 200966c:	e0bffd17 	ldw	r2,-12(fp)
 2009670:	10800284 	addi	r2,r2,10
 2009674:	1009883a 	mov	r4,r2
 2009678:	01400084 	movi	r5,2
 200967c:	20002480 	call	2000248 <_Z13swapEndianessPhm>

	m_iCurrentSpeed = *((alt_16*) (pMessage+2));
 2009680:	e0bffe17 	ldw	r2,-8(fp)
 2009684:	10800084 	addi	r2,r2,2
 2009688:	10c0000b 	ldhu	r3,0(r2)
 200968c:	e0bffd17 	ldw	r2,-12(fp)
 2009690:	10c0030d 	sth	r3,12(r2)
	swapEndianess((alt_u8*) &m_iCurrentSpeed, 2);
 2009694:	e0bffd17 	ldw	r2,-12(fp)
 2009698:	10800304 	addi	r2,r2,12
 200969c:	1009883a 	mov	r4,r2
 20096a0:	01400084 	movi	r5,2
 20096a4:	20002480 	call	2000248 <_Z13swapEndianessPhm>

	m_bValid = true;
 20096a8:	e0fffd17 	ldw	r3,-12(fp)
 20096ac:	00800044 	movi	r2,1
 20096b0:	18800205 	stb	r2,8(r3)
}
 20096b4:	e037883a 	mov	sp,fp
 20096b8:	dfc00117 	ldw	ra,4(sp)
 20096bc:	df000017 	ldw	fp,0(sp)
 20096c0:	dec00204 	addi	sp,sp,8
 20096c4:	f800283a 	ret

020096c8 <_ZN21CMotorVelocityMessage8getBytesEPh>:
void CMotorVelocityMessage::doAction()
{

}

bool CMotorVelocityMessage::getBytes(alt_u8 *pMessage)
 20096c8:	defffc04 	addi	sp,sp,-16
 20096cc:	dfc00315 	stw	ra,12(sp)
 20096d0:	df000215 	stw	fp,8(sp)
 20096d4:	df000204 	addi	fp,sp,8
 20096d8:	e13ffe15 	stw	r4,-8(fp)
 20096dc:	e17fff15 	stw	r5,-4(fp)
{
	CCarMessage::getBytes(pMessage);
 20096e0:	e13ffe17 	ldw	r4,-8(fp)
 20096e4:	e17fff17 	ldw	r5,-4(fp)
 20096e8:	2006e800 	call	2006e80 <_ZN11CCarMessage8getBytesEPh>

	*((alt_16*) (pMessage+4)) = m_iDesiredSpeed;
 20096ec:	e0bfff17 	ldw	r2,-4(fp)
 20096f0:	10800104 	addi	r2,r2,4
 20096f4:	1007883a 	mov	r3,r2
 20096f8:	e0bffe17 	ldw	r2,-8(fp)
 20096fc:	1080028b 	ldhu	r2,10(r2)
 2009700:	1880000d 	sth	r2,0(r3)
	swapEndianess(pMessage+4, 2);
 2009704:	e0bfff17 	ldw	r2,-4(fp)
 2009708:	11000104 	addi	r4,r2,4
 200970c:	01400084 	movi	r5,2
 2009710:	20002480 	call	2000248 <_Z13swapEndianessPhm>

	*((alt_16*) (pMessage+6)) = m_iCurrentSpeed;
 2009714:	e0bfff17 	ldw	r2,-4(fp)
 2009718:	10800184 	addi	r2,r2,6
 200971c:	1007883a 	mov	r3,r2
 2009720:	e0bffe17 	ldw	r2,-8(fp)
 2009724:	1080030b 	ldhu	r2,12(r2)
 2009728:	1880000d 	sth	r2,0(r3)
	swapEndianess(pMessage+6, 2);
 200972c:	e0bfff17 	ldw	r2,-4(fp)
 2009730:	11000184 	addi	r4,r2,6
 2009734:	01400084 	movi	r5,2
 2009738:	20002480 	call	2000248 <_Z13swapEndianessPhm>

	return m_bValid;
 200973c:	e0bffe17 	ldw	r2,-8(fp)
 2009740:	10800203 	ldbu	r2,8(r2)
 2009744:	10803fcc 	andi	r2,r2,255
}
 2009748:	e037883a 	mov	sp,fp
 200974c:	dfc00117 	ldw	ra,4(sp)
 2009750:	df000017 	ldw	fp,0(sp)
 2009754:	dec00204 	addi	sp,sp,8
 2009758:	f800283a 	ret

0200975c <_ZN21CMotorVelocityMessageD0Ev>:
		m_bValid = false;
		parseMessage(pMessage+4, iLength-4);
	}
}

CMotorVelocityMessage::~CMotorVelocityMessage()
 200975c:	defffd04 	addi	sp,sp,-12
 2009760:	dfc00215 	stw	ra,8(sp)
 2009764:	df000115 	stw	fp,4(sp)
 2009768:	df000104 	addi	fp,sp,4
 200976c:	e13fff15 	stw	r4,-4(fp)
 2009770:	00c08074 	movhi	r3,513
 2009774:	18ca1104 	addi	r3,r3,10308
 2009778:	e0bfff17 	ldw	r2,-4(fp)
 200977c:	10c00015 	stw	r3,0(r2)
{
}
 2009780:	e13fff17 	ldw	r4,-4(fp)
 2009784:	20073b40 	call	20073b4 <_ZN11CCarMessageD2Ev>
 2009788:	00800044 	movi	r2,1
 200978c:	10803fcc 	andi	r2,r2,255
 2009790:	1005003a 	cmpeq	r2,r2,zero
 2009794:	1000021e 	bne	r2,zero,20097a0 <_ZN21CMotorVelocityMessageD0Ev+0x44>
 2009798:	e13fff17 	ldw	r4,-4(fp)
 200979c:	200bc9c0 	call	200bc9c <_ZdlPv>
 20097a0:	e037883a 	mov	sp,fp
 20097a4:	dfc00117 	ldw	ra,4(sp)
 20097a8:	df000017 	ldw	fp,0(sp)
 20097ac:	dec00204 	addi	sp,sp,8
 20097b0:	f800283a 	ret

020097b4 <_ZN21CMotorVelocityMessageD1Ev>:
		m_bValid = false;
		parseMessage(pMessage+4, iLength-4);
	}
}

CMotorVelocityMessage::~CMotorVelocityMessage()
 20097b4:	defffd04 	addi	sp,sp,-12
 20097b8:	dfc00215 	stw	ra,8(sp)
 20097bc:	df000115 	stw	fp,4(sp)
 20097c0:	df000104 	addi	fp,sp,4
 20097c4:	e13fff15 	stw	r4,-4(fp)
 20097c8:	00c08074 	movhi	r3,513
 20097cc:	18ca1104 	addi	r3,r3,10308
 20097d0:	e0bfff17 	ldw	r2,-4(fp)
 20097d4:	10c00015 	stw	r3,0(r2)
{
}
 20097d8:	e13fff17 	ldw	r4,-4(fp)
 20097dc:	20073b40 	call	20073b4 <_ZN11CCarMessageD2Ev>
 20097e0:	0005883a 	mov	r2,zero
 20097e4:	10803fcc 	andi	r2,r2,255
 20097e8:	1005003a 	cmpeq	r2,r2,zero
 20097ec:	1000021e 	bne	r2,zero,20097f8 <_ZN21CMotorVelocityMessageD1Ev+0x44>
 20097f0:	e13fff17 	ldw	r4,-4(fp)
 20097f4:	200bc9c0 	call	200bc9c <_ZdlPv>
 20097f8:	e037883a 	mov	sp,fp
 20097fc:	dfc00117 	ldw	ra,4(sp)
 2009800:	df000017 	ldw	fp,0(sp)
 2009804:	dec00204 	addi	sp,sp,8
 2009808:	f800283a 	ret

0200980c <_ZN21CMotorVelocityMessageD2Ev>:
		m_bValid = false;
		parseMessage(pMessage+4, iLength-4);
	}
}

CMotorVelocityMessage::~CMotorVelocityMessage()
 200980c:	defffd04 	addi	sp,sp,-12
 2009810:	dfc00215 	stw	ra,8(sp)
 2009814:	df000115 	stw	fp,4(sp)
 2009818:	df000104 	addi	fp,sp,4
 200981c:	e13fff15 	stw	r4,-4(fp)
 2009820:	00c08074 	movhi	r3,513
 2009824:	18ca1104 	addi	r3,r3,10308
 2009828:	e0bfff17 	ldw	r2,-4(fp)
 200982c:	10c00015 	stw	r3,0(r2)
{
}
 2009830:	e13fff17 	ldw	r4,-4(fp)
 2009834:	20073b40 	call	20073b4 <_ZN11CCarMessageD2Ev>
 2009838:	0005883a 	mov	r2,zero
 200983c:	10803fcc 	andi	r2,r2,255
 2009840:	1005003a 	cmpeq	r2,r2,zero
 2009844:	1000021e 	bne	r2,zero,2009850 <_ZN21CMotorVelocityMessageD2Ev+0x44>
 2009848:	e13fff17 	ldw	r4,-4(fp)
 200984c:	200bc9c0 	call	200bc9c <_ZdlPv>
 2009850:	e037883a 	mov	sp,fp
 2009854:	dfc00117 	ldw	ra,4(sp)
 2009858:	df000017 	ldw	fp,0(sp)
 200985c:	dec00204 	addi	sp,sp,8
 2009860:	f800283a 	ret

02009864 <_ZN21CMotorVelocityMessageC1EPhi>:
	m_bValid = true;

}


CMotorVelocityMessage::CMotorVelocityMessage(alt_u8 *pMessage, int iLength)
 2009864:	deffe404 	addi	sp,sp,-112
 2009868:	dfc01b15 	stw	ra,108(sp)
 200986c:	df001a15 	stw	fp,104(sp)
 2009870:	ddc01915 	stw	r23,100(sp)
 2009874:	dd801815 	stw	r22,96(sp)
 2009878:	dd401715 	stw	r21,92(sp)
 200987c:	dd001615 	stw	r20,88(sp)
 2009880:	dcc01515 	stw	r19,84(sp)
 2009884:	dc801415 	stw	r18,80(sp)
 2009888:	dc401315 	stw	r17,76(sp)
 200988c:	dc001215 	stw	r16,72(sp)
 2009890:	df001204 	addi	fp,sp,72
 2009894:	e13fee15 	stw	r4,-72(fp)
 2009898:	e17fef15 	stw	r5,-68(fp)
 200989c:	e1bff015 	stw	r6,-64(fp)
 20098a0:	00808074 	movhi	r2,513
 20098a4:	10adca04 	addi	r2,r2,-18648
 20098a8:	e0bff715 	stw	r2,-36(fp)
 20098ac:	00808074 	movhi	r2,513
 20098b0:	10893c84 	addi	r2,r2,9458
 20098b4:	e0bff815 	stw	r2,-32(fp)
 20098b8:	e0bff904 	addi	r2,fp,-28
 20098bc:	e0ffee04 	addi	r3,fp,-72
 20098c0:	10c00015 	stw	r3,0(r2)
 20098c4:	00c08074 	movhi	r3,513
 20098c8:	18e65304 	addi	r3,r3,-26292
 20098cc:	10c00115 	stw	r3,4(r2)
 20098d0:	16c00215 	stw	sp,8(r2)
 20098d4:	e13ff104 	addi	r4,fp,-60
 20098d8:	200d0800 	call	200d080 <_Unwind_SjLj_Register>
 20098dc:	e13fee17 	ldw	r4,-72(fp)
 20098e0:	00bfffc4 	movi	r2,-1
 20098e4:	e0bff215 	stw	r2,-56(fp)
 20098e8:	2006df00 	call	2006df0 <_ZN11CCarMessageC2Ev>
 20098ec:	00c08074 	movhi	r3,513
 20098f0:	18ca1104 	addi	r3,r3,10308
 20098f4:	e0bfee17 	ldw	r2,-72(fp)
 20098f8:	10c00015 	stw	r3,0(r2)
{
	parseHeader(pMessage, iLength);
 20098fc:	e13fee17 	ldw	r4,-72(fp)
 2009900:	00800044 	movi	r2,1
 2009904:	e0bff215 	stw	r2,-56(fp)
 2009908:	e17fef17 	ldw	r5,-68(fp)
 200990c:	e1bff017 	ldw	r6,-64(fp)
 2009910:	20071480 	call	2007148 <_ZN11CCarMessage11parseHeaderEPhi>
	if(m_bValid)
 2009914:	e0bfee17 	ldw	r2,-72(fp)
 2009918:	10800203 	ldbu	r2,8(r2)
 200991c:	10803fcc 	andi	r2,r2,255
 2009920:	1005003a 	cmpeq	r2,r2,zero
 2009924:	1000171e 	bne	r2,zero,2009984 <_ZN21CMotorVelocityMessageC1EPhi+0x120>
	{
		m_bValid = false;
 2009928:	e0bfee17 	ldw	r2,-72(fp)
 200992c:	10000205 	stb	zero,8(r2)
		parseMessage(pMessage+4, iLength-4);
 2009930:	e0bfef17 	ldw	r2,-68(fp)
 2009934:	11400104 	addi	r5,r2,4
 2009938:	e0bff017 	ldw	r2,-64(fp)
 200993c:	11bfff04 	addi	r6,r2,-4
 2009940:	e13fee17 	ldw	r4,-72(fp)
 2009944:	20096340 	call	2009634 <_ZN21CMotorVelocityMessage12parseMessageEPhi>
	}
}
 2009948:	00000e06 	br	2009984 <_ZN21CMotorVelocityMessageC1EPhi+0x120>
 200994c:	e7001204 	addi	fp,fp,72
 2009950:	e0bff317 	ldw	r2,-52(fp)
 2009954:	e0bfff15 	stw	r2,-4(fp)
 2009958:	e0ffff17 	ldw	r3,-4(fp)
 200995c:	e0fffe15 	stw	r3,-8(fp)
 2009960:	e13fee17 	ldw	r4,-72(fp)
 2009964:	e03ff215 	stw	zero,-56(fp)
 2009968:	20073b40 	call	20073b4 <_ZN11CCarMessageD2Ev>
 200996c:	e0bffe17 	ldw	r2,-8(fp)
 2009970:	e0bfff15 	stw	r2,-4(fp)
 2009974:	00bfffc4 	movi	r2,-1
 2009978:	e0bff215 	stw	r2,-56(fp)
 200997c:	e13fff17 	ldw	r4,-4(fp)
 2009980:	200d34c0 	call	200d34c <_Unwind_SjLj_Resume>
 2009984:	e13ff104 	addi	r4,fp,-60
 2009988:	200d0900 	call	200d090 <_Unwind_SjLj_Unregister>
 200998c:	e037883a 	mov	sp,fp
 2009990:	dfc00917 	ldw	ra,36(sp)
 2009994:	df000817 	ldw	fp,32(sp)
 2009998:	ddc00717 	ldw	r23,28(sp)
 200999c:	dd800617 	ldw	r22,24(sp)
 20099a0:	dd400517 	ldw	r21,20(sp)
 20099a4:	dd000417 	ldw	r20,16(sp)
 20099a8:	dcc00317 	ldw	r19,12(sp)
 20099ac:	dc800217 	ldw	r18,8(sp)
 20099b0:	dc400117 	ldw	r17,4(sp)
 20099b4:	dc000017 	ldw	r16,0(sp)
 20099b8:	dec00a04 	addi	sp,sp,40
 20099bc:	f800283a 	ret

020099c0 <_ZN21CMotorVelocityMessageC2EPhi>:
	m_bValid = true;

}


CMotorVelocityMessage::CMotorVelocityMessage(alt_u8 *pMessage, int iLength)
 20099c0:	deffe404 	addi	sp,sp,-112
 20099c4:	dfc01b15 	stw	ra,108(sp)
 20099c8:	df001a15 	stw	fp,104(sp)
 20099cc:	ddc01915 	stw	r23,100(sp)
 20099d0:	dd801815 	stw	r22,96(sp)
 20099d4:	dd401715 	stw	r21,92(sp)
 20099d8:	dd001615 	stw	r20,88(sp)
 20099dc:	dcc01515 	stw	r19,84(sp)
 20099e0:	dc801415 	stw	r18,80(sp)
 20099e4:	dc401315 	stw	r17,76(sp)
 20099e8:	dc001215 	stw	r16,72(sp)
 20099ec:	df001204 	addi	fp,sp,72
 20099f0:	e13fee15 	stw	r4,-72(fp)
 20099f4:	e17fef15 	stw	r5,-68(fp)
 20099f8:	e1bff015 	stw	r6,-64(fp)
 20099fc:	00808074 	movhi	r2,513
 2009a00:	10adca04 	addi	r2,r2,-18648
 2009a04:	e0bff715 	stw	r2,-36(fp)
 2009a08:	00808074 	movhi	r2,513
 2009a0c:	10893e04 	addi	r2,r2,9464
 2009a10:	e0bff815 	stw	r2,-32(fp)
 2009a14:	e0bff904 	addi	r2,fp,-28
 2009a18:	e0ffee04 	addi	r3,fp,-72
 2009a1c:	10c00015 	stw	r3,0(r2)
 2009a20:	00c08074 	movhi	r3,513
 2009a24:	18e6aa04 	addi	r3,r3,-25944
 2009a28:	10c00115 	stw	r3,4(r2)
 2009a2c:	16c00215 	stw	sp,8(r2)
 2009a30:	e13ff104 	addi	r4,fp,-60
 2009a34:	200d0800 	call	200d080 <_Unwind_SjLj_Register>
 2009a38:	e13fee17 	ldw	r4,-72(fp)
 2009a3c:	00bfffc4 	movi	r2,-1
 2009a40:	e0bff215 	stw	r2,-56(fp)
 2009a44:	2006df00 	call	2006df0 <_ZN11CCarMessageC2Ev>
 2009a48:	00c08074 	movhi	r3,513
 2009a4c:	18ca1104 	addi	r3,r3,10308
 2009a50:	e0bfee17 	ldw	r2,-72(fp)
 2009a54:	10c00015 	stw	r3,0(r2)
{
	parseHeader(pMessage, iLength);
 2009a58:	e13fee17 	ldw	r4,-72(fp)
 2009a5c:	00800044 	movi	r2,1
 2009a60:	e0bff215 	stw	r2,-56(fp)
 2009a64:	e17fef17 	ldw	r5,-68(fp)
 2009a68:	e1bff017 	ldw	r6,-64(fp)
 2009a6c:	20071480 	call	2007148 <_ZN11CCarMessage11parseHeaderEPhi>
	if(m_bValid)
 2009a70:	e0bfee17 	ldw	r2,-72(fp)
 2009a74:	10800203 	ldbu	r2,8(r2)
 2009a78:	10803fcc 	andi	r2,r2,255
 2009a7c:	1005003a 	cmpeq	r2,r2,zero
 2009a80:	1000171e 	bne	r2,zero,2009ae0 <_ZN21CMotorVelocityMessageC2EPhi+0x120>
	{
		m_bValid = false;
 2009a84:	e0bfee17 	ldw	r2,-72(fp)
 2009a88:	10000205 	stb	zero,8(r2)
		parseMessage(pMessage+4, iLength-4);
 2009a8c:	e0bfef17 	ldw	r2,-68(fp)
 2009a90:	11400104 	addi	r5,r2,4
 2009a94:	e0bff017 	ldw	r2,-64(fp)
 2009a98:	11bfff04 	addi	r6,r2,-4
 2009a9c:	e13fee17 	ldw	r4,-72(fp)
 2009aa0:	20096340 	call	2009634 <_ZN21CMotorVelocityMessage12parseMessageEPhi>
	}
}
 2009aa4:	00000e06 	br	2009ae0 <_ZN21CMotorVelocityMessageC2EPhi+0x120>
 2009aa8:	e7001204 	addi	fp,fp,72
 2009aac:	e0bff317 	ldw	r2,-52(fp)
 2009ab0:	e0bfff15 	stw	r2,-4(fp)
 2009ab4:	e0ffff17 	ldw	r3,-4(fp)
 2009ab8:	e0fffe15 	stw	r3,-8(fp)
 2009abc:	e13fee17 	ldw	r4,-72(fp)
 2009ac0:	e03ff215 	stw	zero,-56(fp)
 2009ac4:	20073b40 	call	20073b4 <_ZN11CCarMessageD2Ev>
 2009ac8:	e0bffe17 	ldw	r2,-8(fp)
 2009acc:	e0bfff15 	stw	r2,-4(fp)
 2009ad0:	00bfffc4 	movi	r2,-1
 2009ad4:	e0bff215 	stw	r2,-56(fp)
 2009ad8:	e13fff17 	ldw	r4,-4(fp)
 2009adc:	200d34c0 	call	200d34c <_Unwind_SjLj_Resume>
 2009ae0:	e13ff104 	addi	r4,fp,-60
 2009ae4:	200d0900 	call	200d090 <_Unwind_SjLj_Unregister>
 2009ae8:	e037883a 	mov	sp,fp
 2009aec:	dfc00917 	ldw	ra,36(sp)
 2009af0:	df000817 	ldw	fp,32(sp)
 2009af4:	ddc00717 	ldw	r23,28(sp)
 2009af8:	dd800617 	ldw	r22,24(sp)
 2009afc:	dd400517 	ldw	r21,20(sp)
 2009b00:	dd000417 	ldw	r20,16(sp)
 2009b04:	dcc00317 	ldw	r19,12(sp)
 2009b08:	dc800217 	ldw	r18,8(sp)
 2009b0c:	dc400117 	ldw	r17,4(sp)
 2009b10:	dc000017 	ldw	r16,0(sp)
 2009b14:	dec00a04 	addi	sp,sp,40
 2009b18:	f800283a 	ret

02009b1c <_ZN21CMotorVelocityMessageC1Es>:
 *      Author: Florian
 */

#include "MotorVelocityMessage.h"

CMotorVelocityMessage::CMotorVelocityMessage(alt_16 iDesiredSpeed)
 2009b1c:	deffe404 	addi	sp,sp,-112
 2009b20:	dfc01b15 	stw	ra,108(sp)
 2009b24:	df001a15 	stw	fp,104(sp)
 2009b28:	ddc01915 	stw	r23,100(sp)
 2009b2c:	dd801815 	stw	r22,96(sp)
 2009b30:	dd401715 	stw	r21,92(sp)
 2009b34:	dd001615 	stw	r20,88(sp)
 2009b38:	dcc01515 	stw	r19,84(sp)
 2009b3c:	dc801415 	stw	r18,80(sp)
 2009b40:	dc401315 	stw	r17,76(sp)
 2009b44:	dc001215 	stw	r16,72(sp)
 2009b48:	df001204 	addi	fp,sp,72
 2009b4c:	e13fee15 	stw	r4,-72(fp)
 2009b50:	e17fef0d 	sth	r5,-68(fp)
 2009b54:	00808074 	movhi	r2,513
 2009b58:	10adca04 	addi	r2,r2,-18648
 2009b5c:	e0bff615 	stw	r2,-40(fp)
 2009b60:	00808074 	movhi	r2,513
 2009b64:	10893f84 	addi	r2,r2,9470
 2009b68:	e0bff715 	stw	r2,-36(fp)
 2009b6c:	e0bff804 	addi	r2,fp,-32
 2009b70:	e0ffee04 	addi	r3,fp,-72
 2009b74:	10c00015 	stw	r3,0(r2)
 2009b78:	00c08074 	movhi	r3,513
 2009b7c:	18e70004 	addi	r3,r3,-25600
 2009b80:	10c00115 	stw	r3,4(r2)
 2009b84:	16c00215 	stw	sp,8(r2)
 2009b88:	e13ff004 	addi	r4,fp,-64
 2009b8c:	200d0800 	call	200d080 <_Unwind_SjLj_Register>
 2009b90:	e13fee17 	ldw	r4,-72(fp)
 2009b94:	00bfffc4 	movi	r2,-1
 2009b98:	e0bff115 	stw	r2,-60(fp)
 2009b9c:	2006df00 	call	2006df0 <_ZN11CCarMessageC2Ev>
 2009ba0:	00c08074 	movhi	r3,513
 2009ba4:	18ca1104 	addi	r3,r3,10308
 2009ba8:	e0bfee17 	ldw	r2,-72(fp)
 2009bac:	10c00015 	stw	r3,0(r2)
{
	setHeader(4, getLength(), 0);
 2009bb0:	e0bfee17 	ldw	r2,-72(fp)
 2009bb4:	e0bffe15 	stw	r2,-8(fp)
 2009bb8:	e13fee17 	ldw	r4,-72(fp)
 2009bbc:	20095c80 	call	20095c8 <_ZN21CMotorVelocityMessage9getLengthEv>
 2009bc0:	11803fcc 	andi	r6,r2,255
 2009bc4:	00800044 	movi	r2,1
 2009bc8:	e0bff115 	stw	r2,-60(fp)
 2009bcc:	e13ffe17 	ldw	r4,-8(fp)
 2009bd0:	01400104 	movi	r5,4
 2009bd4:	000f883a 	mov	r7,zero
 2009bd8:	2006fc40 	call	2006fc4 <_ZN11CCarMessage9setHeaderEhhb>

 	m_iDesiredSpeed = iDesiredSpeed;
 2009bdc:	e0ffee17 	ldw	r3,-72(fp)
 2009be0:	e0bfef0b 	ldhu	r2,-68(fp)
 2009be4:	1880028d 	sth	r2,10(r3)
	m_iCurrentSpeed = 0;
 2009be8:	e0bfee17 	ldw	r2,-72(fp)
 2009bec:	1000030d 	sth	zero,12(r2)

	m_bValid = true;
 2009bf0:	e0ffee17 	ldw	r3,-72(fp)
 2009bf4:	00800044 	movi	r2,1
 2009bf8:	18800205 	stb	r2,8(r3)

}
 2009bfc:	00000e06 	br	2009c38 <_ZN21CMotorVelocityMessageC1Es+0x11c>
 2009c00:	e7001204 	addi	fp,fp,72
 2009c04:	e0fff217 	ldw	r3,-56(fp)
 2009c08:	e0ffff15 	stw	r3,-4(fp)
 2009c0c:	e0bfff17 	ldw	r2,-4(fp)
 2009c10:	e0bffd15 	stw	r2,-12(fp)
 2009c14:	e13fee17 	ldw	r4,-72(fp)
 2009c18:	e03ff115 	stw	zero,-60(fp)
 2009c1c:	20073b40 	call	20073b4 <_ZN11CCarMessageD2Ev>
 2009c20:	e0fffd17 	ldw	r3,-12(fp)
 2009c24:	e0ffff15 	stw	r3,-4(fp)
 2009c28:	00bfffc4 	movi	r2,-1
 2009c2c:	e0bff115 	stw	r2,-60(fp)
 2009c30:	e13fff17 	ldw	r4,-4(fp)
 2009c34:	200d34c0 	call	200d34c <_Unwind_SjLj_Resume>
 2009c38:	e13ff004 	addi	r4,fp,-64
 2009c3c:	200d0900 	call	200d090 <_Unwind_SjLj_Unregister>
 2009c40:	e037883a 	mov	sp,fp
 2009c44:	dfc00917 	ldw	ra,36(sp)
 2009c48:	df000817 	ldw	fp,32(sp)
 2009c4c:	ddc00717 	ldw	r23,28(sp)
 2009c50:	dd800617 	ldw	r22,24(sp)
 2009c54:	dd400517 	ldw	r21,20(sp)
 2009c58:	dd000417 	ldw	r20,16(sp)
 2009c5c:	dcc00317 	ldw	r19,12(sp)
 2009c60:	dc800217 	ldw	r18,8(sp)
 2009c64:	dc400117 	ldw	r17,4(sp)
 2009c68:	dc000017 	ldw	r16,0(sp)
 2009c6c:	dec00a04 	addi	sp,sp,40
 2009c70:	f800283a 	ret

02009c74 <_ZN21CMotorVelocityMessageC2Es>:
 *      Author: Florian
 */

#include "MotorVelocityMessage.h"

CMotorVelocityMessage::CMotorVelocityMessage(alt_16 iDesiredSpeed)
 2009c74:	deffe404 	addi	sp,sp,-112
 2009c78:	dfc01b15 	stw	ra,108(sp)
 2009c7c:	df001a15 	stw	fp,104(sp)
 2009c80:	ddc01915 	stw	r23,100(sp)
 2009c84:	dd801815 	stw	r22,96(sp)
 2009c88:	dd401715 	stw	r21,92(sp)
 2009c8c:	dd001615 	stw	r20,88(sp)
 2009c90:	dcc01515 	stw	r19,84(sp)
 2009c94:	dc801415 	stw	r18,80(sp)
 2009c98:	dc401315 	stw	r17,76(sp)
 2009c9c:	dc001215 	stw	r16,72(sp)
 2009ca0:	df001204 	addi	fp,sp,72
 2009ca4:	e13fee15 	stw	r4,-72(fp)
 2009ca8:	e17fef0d 	sth	r5,-68(fp)
 2009cac:	00808074 	movhi	r2,513
 2009cb0:	10adca04 	addi	r2,r2,-18648
 2009cb4:	e0bff615 	stw	r2,-40(fp)
 2009cb8:	00808074 	movhi	r2,513
 2009cbc:	10894104 	addi	r2,r2,9476
 2009cc0:	e0bff715 	stw	r2,-36(fp)
 2009cc4:	e0bff804 	addi	r2,fp,-32
 2009cc8:	e0ffee04 	addi	r3,fp,-72
 2009ccc:	10c00015 	stw	r3,0(r2)
 2009cd0:	00c08074 	movhi	r3,513
 2009cd4:	18e75604 	addi	r3,r3,-25256
 2009cd8:	10c00115 	stw	r3,4(r2)
 2009cdc:	16c00215 	stw	sp,8(r2)
 2009ce0:	e13ff004 	addi	r4,fp,-64
 2009ce4:	200d0800 	call	200d080 <_Unwind_SjLj_Register>
 2009ce8:	e13fee17 	ldw	r4,-72(fp)
 2009cec:	00bfffc4 	movi	r2,-1
 2009cf0:	e0bff115 	stw	r2,-60(fp)
 2009cf4:	2006df00 	call	2006df0 <_ZN11CCarMessageC2Ev>
 2009cf8:	00c08074 	movhi	r3,513
 2009cfc:	18ca1104 	addi	r3,r3,10308
 2009d00:	e0bfee17 	ldw	r2,-72(fp)
 2009d04:	10c00015 	stw	r3,0(r2)
{
	setHeader(4, getLength(), 0);
 2009d08:	e0bfee17 	ldw	r2,-72(fp)
 2009d0c:	e0bffe15 	stw	r2,-8(fp)
 2009d10:	e13fee17 	ldw	r4,-72(fp)
 2009d14:	20095c80 	call	20095c8 <_ZN21CMotorVelocityMessage9getLengthEv>
 2009d18:	11803fcc 	andi	r6,r2,255
 2009d1c:	00800044 	movi	r2,1
 2009d20:	e0bff115 	stw	r2,-60(fp)
 2009d24:	e13ffe17 	ldw	r4,-8(fp)
 2009d28:	01400104 	movi	r5,4
 2009d2c:	000f883a 	mov	r7,zero
 2009d30:	2006fc40 	call	2006fc4 <_ZN11CCarMessage9setHeaderEhhb>

 	m_iDesiredSpeed = iDesiredSpeed;
 2009d34:	e0ffee17 	ldw	r3,-72(fp)
 2009d38:	e0bfef0b 	ldhu	r2,-68(fp)
 2009d3c:	1880028d 	sth	r2,10(r3)
	m_iCurrentSpeed = 0;
 2009d40:	e0bfee17 	ldw	r2,-72(fp)
 2009d44:	1000030d 	sth	zero,12(r2)

	m_bValid = true;
 2009d48:	e0ffee17 	ldw	r3,-72(fp)
 2009d4c:	00800044 	movi	r2,1
 2009d50:	18800205 	stb	r2,8(r3)

}
 2009d54:	00000e06 	br	2009d90 <_ZN21CMotorVelocityMessageC2Es+0x11c>
 2009d58:	e7001204 	addi	fp,fp,72
 2009d5c:	e0fff217 	ldw	r3,-56(fp)
 2009d60:	e0ffff15 	stw	r3,-4(fp)
 2009d64:	e0bfff17 	ldw	r2,-4(fp)
 2009d68:	e0bffd15 	stw	r2,-12(fp)
 2009d6c:	e13fee17 	ldw	r4,-72(fp)
 2009d70:	e03ff115 	stw	zero,-60(fp)
 2009d74:	20073b40 	call	20073b4 <_ZN11CCarMessageD2Ev>
 2009d78:	e0fffd17 	ldw	r3,-12(fp)
 2009d7c:	e0ffff15 	stw	r3,-4(fp)
 2009d80:	00bfffc4 	movi	r2,-1
 2009d84:	e0bff115 	stw	r2,-60(fp)
 2009d88:	e13fff17 	ldw	r4,-4(fp)
 2009d8c:	200d34c0 	call	200d34c <_Unwind_SjLj_Resume>
 2009d90:	e13ff004 	addi	r4,fp,-64
 2009d94:	200d0900 	call	200d090 <_Unwind_SjLj_Unregister>
 2009d98:	e037883a 	mov	sp,fp
 2009d9c:	dfc00917 	ldw	ra,36(sp)
 2009da0:	df000817 	ldw	fp,32(sp)
 2009da4:	ddc00717 	ldw	r23,28(sp)
 2009da8:	dd800617 	ldw	r22,24(sp)
 2009dac:	dd400517 	ldw	r21,20(sp)
 2009db0:	dd000417 	ldw	r20,16(sp)
 2009db4:	dcc00317 	ldw	r19,12(sp)
 2009db8:	dc800217 	ldw	r18,8(sp)
 2009dbc:	dc400117 	ldw	r17,4(sp)
 2009dc0:	dc000017 	ldw	r16,0(sp)
 2009dc4:	dec00a04 	addi	sp,sp,40
 2009dc8:	f800283a 	ret

02009dcc <_ZN26CUltrasoundDistanceMessage13answerMessageEl>:
}

/*
 * Overrided from CCarMessage.
 */
void CUltrasoundDistanceMessage::answerMessage(alt_32 iDistance)
 2009dcc:	defffd04 	addi	sp,sp,-12
 2009dd0:	df000215 	stw	fp,8(sp)
 2009dd4:	df000204 	addi	fp,sp,8
 2009dd8:	e13ffe15 	stw	r4,-8(fp)
 2009ddc:	e17fff15 	stw	r5,-4(fp)
{
    m_uiDistance = iDistance;
 2009de0:	e0bfff17 	ldw	r2,-4(fp)
 2009de4:	1007883a 	mov	r3,r2
 2009de8:	e0bffe17 	ldw	r2,-8(fp)
 2009dec:	10c0028d 	sth	r3,10(r2)
    if(iDistance >= 0)
 2009df0:	e0bfff17 	ldw	r2,-4(fp)
 2009df4:	1004803a 	cmplt	r2,r2,zero
 2009df8:	1000041e 	bne	r2,zero,2009e0c <_ZN26CUltrasoundDistanceMessage13answerMessageEl+0x40>
		m_uiDistanceValid = 1;
 2009dfc:	e0fffe17 	ldw	r3,-8(fp)
 2009e00:	00800044 	movi	r2,1
 2009e04:	18800305 	stb	r2,12(r3)
 2009e08:	00000206 	br	2009e14 <_ZN26CUltrasoundDistanceMessage13answerMessageEl+0x48>
	else
		m_uiDistanceValid = 0;
 2009e0c:	e0bffe17 	ldw	r2,-8(fp)
 2009e10:	10000305 	stb	zero,12(r2)
    m_uiFlags = m_uiFlags | 0x01; // Set response flag
 2009e14:	e0bffe17 	ldw	r2,-8(fp)
 2009e18:	108001c3 	ldbu	r2,7(r2)
 2009e1c:	10800054 	ori	r2,r2,1
 2009e20:	1007883a 	mov	r3,r2
 2009e24:	e0bffe17 	ldw	r2,-8(fp)
 2009e28:	10c001c5 	stb	r3,7(r2)
}
 2009e2c:	e037883a 	mov	sp,fp
 2009e30:	df000017 	ldw	fp,0(sp)
 2009e34:	dec00104 	addi	sp,sp,4
 2009e38:	f800283a 	ret

02009e3c <_ZN26CUltrasoundDistanceMessage9getLengthEv>:
}

/*
 * Overrided from CCarMessage.
 */
alt_u32 CUltrasoundDistanceMessage::getLength()
 2009e3c:	defffe04 	addi	sp,sp,-8
 2009e40:	df000115 	stw	fp,4(sp)
 2009e44:	df000104 	addi	fp,sp,4
 2009e48:	e13fff15 	stw	r4,-4(fp)
{
    return 8;
 2009e4c:	00800204 	movi	r2,8
}
 2009e50:	e037883a 	mov	sp,fp
 2009e54:	df000017 	ldw	fp,0(sp)
 2009e58:	dec00104 	addi	sp,sp,4
 2009e5c:	f800283a 	ret

02009e60 <_ZN26CUltrasoundDistanceMessage12parseMessageEPhi>:

/*
 * Overrided from CCarMessage.
 */
void CUltrasoundDistanceMessage::parseMessage(alt_u8 *pMessage, int iLength)
 2009e60:	defffc04 	addi	sp,sp,-16
 2009e64:	df000315 	stw	fp,12(sp)
 2009e68:	df000304 	addi	fp,sp,12
 2009e6c:	e13ffd15 	stw	r4,-12(fp)
 2009e70:	e17ffe15 	stw	r5,-8(fp)
 2009e74:	e1bfff15 	stw	r6,-4(fp)
{
    if(iLength < 4)
 2009e78:	e0bfff17 	ldw	r2,-4(fp)
 2009e7c:	10800110 	cmplti	r2,r2,4
 2009e80:	1000181e 	bne	r2,zero,2009ee4 <_ZN26CUltrasoundDistanceMessage12parseMessageEPhi+0x84>
        return;

    m_uiDistance = ((alt_u32) pMessage[0]) << 0;
 2009e84:	e0bffe17 	ldw	r2,-8(fp)
 2009e88:	10800003 	ldbu	r2,0(r2)
 2009e8c:	10c03fcc 	andi	r3,r2,255
 2009e90:	e0bffd17 	ldw	r2,-12(fp)
 2009e94:	10c0028d 	sth	r3,10(r2)
    m_uiDistance |= ((alt_u32) pMessage[1]) << 8;
 2009e98:	e0bffd17 	ldw	r2,-12(fp)
 2009e9c:	10c0028b 	ldhu	r3,10(r2)
 2009ea0:	e0bffe17 	ldw	r2,-8(fp)
 2009ea4:	10800044 	addi	r2,r2,1
 2009ea8:	10800003 	ldbu	r2,0(r2)
 2009eac:	10803fcc 	andi	r2,r2,255
 2009eb0:	1004923a 	slli	r2,r2,8
 2009eb4:	1884b03a 	or	r2,r3,r2
 2009eb8:	1007883a 	mov	r3,r2
 2009ebc:	e0bffd17 	ldw	r2,-12(fp)
 2009ec0:	10c0028d 	sth	r3,10(r2)
    m_uiDistanceValid = pMessage[3];
 2009ec4:	e0bffe17 	ldw	r2,-8(fp)
 2009ec8:	108000c4 	addi	r2,r2,3
 2009ecc:	10c00003 	ldbu	r3,0(r2)
 2009ed0:	e0bffd17 	ldw	r2,-12(fp)
 2009ed4:	10c00305 	stb	r3,12(r2)

    m_bValid = true;
 2009ed8:	e0fffd17 	ldw	r3,-12(fp)
 2009edc:	00800044 	movi	r2,1
 2009ee0:	18800205 	stb	r2,8(r3)
}
 2009ee4:	e037883a 	mov	sp,fp
 2009ee8:	df000017 	ldw	fp,0(sp)
 2009eec:	dec00104 	addi	sp,sp,4
 2009ef0:	f800283a 	ret

02009ef4 <_ZN26CUltrasoundDistanceMessage8getBytesEPh>:
}

/*
 * Overrided from CCarMessage.
 */
bool CUltrasoundDistanceMessage::getBytes(alt_u8 *pMessage)
 2009ef4:	defffc04 	addi	sp,sp,-16
 2009ef8:	dfc00315 	stw	ra,12(sp)
 2009efc:	df000215 	stw	fp,8(sp)
 2009f00:	df000204 	addi	fp,sp,8
 2009f04:	e13ffe15 	stw	r4,-8(fp)
 2009f08:	e17fff15 	stw	r5,-4(fp)
{
    CCarMessage::getBytes(pMessage);
 2009f0c:	e13ffe17 	ldw	r4,-8(fp)
 2009f10:	e17fff17 	ldw	r5,-4(fp)
 2009f14:	2006e800 	call	2006e80 <_ZN11CCarMessage8getBytesEPh>

    pMessage[4] = (m_uiDistance >> 0) & 0xFF;
 2009f18:	e0bfff17 	ldw	r2,-4(fp)
 2009f1c:	11000104 	addi	r4,r2,4
 2009f20:	e0bffe17 	ldw	r2,-8(fp)
 2009f24:	1080028b 	ldhu	r2,10(r2)
 2009f28:	1007883a 	mov	r3,r2
 2009f2c:	00bfffc4 	movi	r2,-1
 2009f30:	1884703a 	and	r2,r3,r2
 2009f34:	20800005 	stb	r2,0(r4)
    pMessage[5] += (m_uiDistance >> 8) & 0xFF;
 2009f38:	e0bfff17 	ldw	r2,-4(fp)
 2009f3c:	11000144 	addi	r4,r2,5
 2009f40:	e0bfff17 	ldw	r2,-4(fp)
 2009f44:	10800144 	addi	r2,r2,5
 2009f48:	11400003 	ldbu	r5,0(r2)
 2009f4c:	e0bffe17 	ldw	r2,-8(fp)
 2009f50:	1080028b 	ldhu	r2,10(r2)
 2009f54:	10bfffcc 	andi	r2,r2,65535
 2009f58:	1004d23a 	srli	r2,r2,8
 2009f5c:	1007883a 	mov	r3,r2
 2009f60:	00bfffc4 	movi	r2,-1
 2009f64:	1884703a 	and	r2,r3,r2
 2009f68:	2885883a 	add	r2,r5,r2
 2009f6c:	20800005 	stb	r2,0(r4)
    pMessage[6] = 0;
 2009f70:	e0bfff17 	ldw	r2,-4(fp)
 2009f74:	10800184 	addi	r2,r2,6
 2009f78:	10000005 	stb	zero,0(r2)
    pMessage[7] = m_uiDistanceValid;
 2009f7c:	e0bfff17 	ldw	r2,-4(fp)
 2009f80:	10c001c4 	addi	r3,r2,7
 2009f84:	e0bffe17 	ldw	r2,-8(fp)
 2009f88:	10800303 	ldbu	r2,12(r2)
 2009f8c:	18800005 	stb	r2,0(r3)
    return m_bValid;
 2009f90:	e0bffe17 	ldw	r2,-8(fp)
 2009f94:	10800203 	ldbu	r2,8(r2)
 2009f98:	10803fcc 	andi	r2,r2,255
}
 2009f9c:	e037883a 	mov	sp,fp
 2009fa0:	dfc00117 	ldw	ra,4(sp)
 2009fa4:	df000017 	ldw	fp,0(sp)
 2009fa8:	dec00204 	addi	sp,sp,8
 2009fac:	f800283a 	ret

02009fb0 <_ZN26CUltrasoundDistanceMessage8doActionEv>:
}

/*
 * Overrided from CCarMessage.
 */
void CUltrasoundDistanceMessage::doAction()
 2009fb0:	defffc04 	addi	sp,sp,-16
 2009fb4:	dfc00315 	stw	ra,12(sp)
 2009fb8:	df000215 	stw	fp,8(sp)
 2009fbc:	df000204 	addi	fp,sp,8
 2009fc0:	e13fff15 	stw	r4,-4(fp)
{
#ifndef CENTRAL_ECU_BUILD
	alt_32 distance = measuredistance(0x6001120);
 2009fc4:	01018034 	movhi	r4,1536
 2009fc8:	21044804 	addi	r4,r4,4384
 2009fcc:	2000d180 	call	2000d18 <_Z15measuredistancem>
 2009fd0:	e0bffe15 	stw	r2,-8(fp)
	answerMessage(distance);
 2009fd4:	e13fff17 	ldw	r4,-4(fp)
 2009fd8:	e17ffe17 	ldw	r5,-8(fp)
 2009fdc:	2009dcc0 	call	2009dcc <_ZN26CUltrasoundDistanceMessage13answerMessageEl>
#endif /* CENTRAL_ECU_BUILD */

}
 2009fe0:	e037883a 	mov	sp,fp
 2009fe4:	dfc00117 	ldw	ra,4(sp)
 2009fe8:	df000017 	ldw	fp,0(sp)
 2009fec:	dec00204 	addi	sp,sp,8
 2009ff0:	f800283a 	ret

02009ff4 <_ZN26CUltrasoundDistanceMessageD0Ev>:
}

/*
 * Basic Destructor.
 */
CUltrasoundDistanceMessage::~CUltrasoundDistanceMessage()
 2009ff4:	defffd04 	addi	sp,sp,-12
 2009ff8:	dfc00215 	stw	ra,8(sp)
 2009ffc:	df000115 	stw	fp,4(sp)
 200a000:	df000104 	addi	fp,sp,4
 200a004:	e13fff15 	stw	r4,-4(fp)
 200a008:	00c08074 	movhi	r3,513
 200a00c:	18ca2104 	addi	r3,r3,10372
 200a010:	e0bfff17 	ldw	r2,-4(fp)
 200a014:	10c00015 	stw	r3,0(r2)
{
}
 200a018:	e13fff17 	ldw	r4,-4(fp)
 200a01c:	20073b40 	call	20073b4 <_ZN11CCarMessageD2Ev>
 200a020:	00800044 	movi	r2,1
 200a024:	10803fcc 	andi	r2,r2,255
 200a028:	1005003a 	cmpeq	r2,r2,zero
 200a02c:	1000021e 	bne	r2,zero,200a038 <_ZN26CUltrasoundDistanceMessageD0Ev+0x44>
 200a030:	e13fff17 	ldw	r4,-4(fp)
 200a034:	200bc9c0 	call	200bc9c <_ZdlPv>
 200a038:	e037883a 	mov	sp,fp
 200a03c:	dfc00117 	ldw	ra,4(sp)
 200a040:	df000017 	ldw	fp,0(sp)
 200a044:	dec00204 	addi	sp,sp,8
 200a048:	f800283a 	ret

0200a04c <_ZN26CUltrasoundDistanceMessageD1Ev>:
}

/*
 * Basic Destructor.
 */
CUltrasoundDistanceMessage::~CUltrasoundDistanceMessage()
 200a04c:	defffd04 	addi	sp,sp,-12
 200a050:	dfc00215 	stw	ra,8(sp)
 200a054:	df000115 	stw	fp,4(sp)
 200a058:	df000104 	addi	fp,sp,4
 200a05c:	e13fff15 	stw	r4,-4(fp)
 200a060:	00c08074 	movhi	r3,513
 200a064:	18ca2104 	addi	r3,r3,10372
 200a068:	e0bfff17 	ldw	r2,-4(fp)
 200a06c:	10c00015 	stw	r3,0(r2)
{
}
 200a070:	e13fff17 	ldw	r4,-4(fp)
 200a074:	20073b40 	call	20073b4 <_ZN11CCarMessageD2Ev>
 200a078:	0005883a 	mov	r2,zero
 200a07c:	10803fcc 	andi	r2,r2,255
 200a080:	1005003a 	cmpeq	r2,r2,zero
 200a084:	1000021e 	bne	r2,zero,200a090 <_ZN26CUltrasoundDistanceMessageD1Ev+0x44>
 200a088:	e13fff17 	ldw	r4,-4(fp)
 200a08c:	200bc9c0 	call	200bc9c <_ZdlPv>
 200a090:	e037883a 	mov	sp,fp
 200a094:	dfc00117 	ldw	ra,4(sp)
 200a098:	df000017 	ldw	fp,0(sp)
 200a09c:	dec00204 	addi	sp,sp,8
 200a0a0:	f800283a 	ret

0200a0a4 <_ZN26CUltrasoundDistanceMessageD2Ev>:
}

/*
 * Basic Destructor.
 */
CUltrasoundDistanceMessage::~CUltrasoundDistanceMessage()
 200a0a4:	defffd04 	addi	sp,sp,-12
 200a0a8:	dfc00215 	stw	ra,8(sp)
 200a0ac:	df000115 	stw	fp,4(sp)
 200a0b0:	df000104 	addi	fp,sp,4
 200a0b4:	e13fff15 	stw	r4,-4(fp)
 200a0b8:	00c08074 	movhi	r3,513
 200a0bc:	18ca2104 	addi	r3,r3,10372
 200a0c0:	e0bfff17 	ldw	r2,-4(fp)
 200a0c4:	10c00015 	stw	r3,0(r2)
{
}
 200a0c8:	e13fff17 	ldw	r4,-4(fp)
 200a0cc:	20073b40 	call	20073b4 <_ZN11CCarMessageD2Ev>
 200a0d0:	0005883a 	mov	r2,zero
 200a0d4:	10803fcc 	andi	r2,r2,255
 200a0d8:	1005003a 	cmpeq	r2,r2,zero
 200a0dc:	1000021e 	bne	r2,zero,200a0e8 <_ZN26CUltrasoundDistanceMessageD2Ev+0x44>
 200a0e0:	e13fff17 	ldw	r4,-4(fp)
 200a0e4:	200bc9c0 	call	200bc9c <_ZdlPv>
 200a0e8:	e037883a 	mov	sp,fp
 200a0ec:	dfc00117 	ldw	ra,4(sp)
 200a0f0:	df000017 	ldw	fp,0(sp)
 200a0f4:	dec00204 	addi	sp,sp,8
 200a0f8:	f800283a 	ret

0200a0fc <_ZN26CUltrasoundDistanceMessageC1EPhi>:
/*
 * Constructor. Used to reassemble object from Byte stream.
 * pMessage : Byte-Array containing the fields of the subMessage
 * iLength  : Length of the said array
 */
CUltrasoundDistanceMessage::CUltrasoundDistanceMessage(alt_u8 *pMessage, int iLength)
 200a0fc:	deffe404 	addi	sp,sp,-112
 200a100:	dfc01b15 	stw	ra,108(sp)
 200a104:	df001a15 	stw	fp,104(sp)
 200a108:	ddc01915 	stw	r23,100(sp)
 200a10c:	dd801815 	stw	r22,96(sp)
 200a110:	dd401715 	stw	r21,92(sp)
 200a114:	dd001615 	stw	r20,88(sp)
 200a118:	dcc01515 	stw	r19,84(sp)
 200a11c:	dc801415 	stw	r18,80(sp)
 200a120:	dc401315 	stw	r17,76(sp)
 200a124:	dc001215 	stw	r16,72(sp)
 200a128:	df001204 	addi	fp,sp,72
 200a12c:	e13fee15 	stw	r4,-72(fp)
 200a130:	e17fef15 	stw	r5,-68(fp)
 200a134:	e1bff015 	stw	r6,-64(fp)
 200a138:	00808074 	movhi	r2,513
 200a13c:	10adca04 	addi	r2,r2,-18648
 200a140:	e0bff715 	stw	r2,-36(fp)
 200a144:	00808074 	movhi	r2,513
 200a148:	10894284 	addi	r2,r2,9482
 200a14c:	e0bff815 	stw	r2,-32(fp)
 200a150:	e0bff904 	addi	r2,fp,-28
 200a154:	e0ffee04 	addi	r3,fp,-72
 200a158:	10c00015 	stw	r3,0(r2)
 200a15c:	00c08074 	movhi	r3,513
 200a160:	18e87904 	addi	r3,r3,-24092
 200a164:	10c00115 	stw	r3,4(r2)
 200a168:	16c00215 	stw	sp,8(r2)
 200a16c:	e13ff104 	addi	r4,fp,-60
 200a170:	200d0800 	call	200d080 <_Unwind_SjLj_Register>
 200a174:	e13fee17 	ldw	r4,-72(fp)
 200a178:	00bfffc4 	movi	r2,-1
 200a17c:	e0bff215 	stw	r2,-56(fp)
 200a180:	2006df00 	call	2006df0 <_ZN11CCarMessageC2Ev>
 200a184:	00c08074 	movhi	r3,513
 200a188:	18ca2104 	addi	r3,r3,10372
 200a18c:	e0bfee17 	ldw	r2,-72(fp)
 200a190:	10c00015 	stw	r3,0(r2)
{
    parseHeader(pMessage, iLength);
 200a194:	e13fee17 	ldw	r4,-72(fp)
 200a198:	00800044 	movi	r2,1
 200a19c:	e0bff215 	stw	r2,-56(fp)
 200a1a0:	e17fef17 	ldw	r5,-68(fp)
 200a1a4:	e1bff017 	ldw	r6,-64(fp)
 200a1a8:	20071480 	call	2007148 <_ZN11CCarMessage11parseHeaderEPhi>
    if(m_bValid)
 200a1ac:	e0bfee17 	ldw	r2,-72(fp)
 200a1b0:	10800203 	ldbu	r2,8(r2)
 200a1b4:	10803fcc 	andi	r2,r2,255
 200a1b8:	1005003a 	cmpeq	r2,r2,zero
 200a1bc:	1000171e 	bne	r2,zero,200a21c <_ZN26CUltrasoundDistanceMessageC1EPhi+0x120>
    {
        m_bValid = false;
 200a1c0:	e0bfee17 	ldw	r2,-72(fp)
 200a1c4:	10000205 	stb	zero,8(r2)
        parseMessage(pMessage+4, iLength-4);
 200a1c8:	e0bfef17 	ldw	r2,-68(fp)
 200a1cc:	11400104 	addi	r5,r2,4
 200a1d0:	e0bff017 	ldw	r2,-64(fp)
 200a1d4:	11bfff04 	addi	r6,r2,-4
 200a1d8:	e13fee17 	ldw	r4,-72(fp)
 200a1dc:	2009e600 	call	2009e60 <_ZN26CUltrasoundDistanceMessage12parseMessageEPhi>
    }

}
 200a1e0:	00000e06 	br	200a21c <_ZN26CUltrasoundDistanceMessageC1EPhi+0x120>
 200a1e4:	e7001204 	addi	fp,fp,72
 200a1e8:	e0bff317 	ldw	r2,-52(fp)
 200a1ec:	e0bfff15 	stw	r2,-4(fp)
 200a1f0:	e0ffff17 	ldw	r3,-4(fp)
 200a1f4:	e0fffe15 	stw	r3,-8(fp)
 200a1f8:	e13fee17 	ldw	r4,-72(fp)
 200a1fc:	e03ff215 	stw	zero,-56(fp)
 200a200:	20073b40 	call	20073b4 <_ZN11CCarMessageD2Ev>
 200a204:	e0bffe17 	ldw	r2,-8(fp)
 200a208:	e0bfff15 	stw	r2,-4(fp)
 200a20c:	00bfffc4 	movi	r2,-1
 200a210:	e0bff215 	stw	r2,-56(fp)
 200a214:	e13fff17 	ldw	r4,-4(fp)
 200a218:	200d34c0 	call	200d34c <_Unwind_SjLj_Resume>
 200a21c:	e13ff104 	addi	r4,fp,-60
 200a220:	200d0900 	call	200d090 <_Unwind_SjLj_Unregister>
 200a224:	e037883a 	mov	sp,fp
 200a228:	dfc00917 	ldw	ra,36(sp)
 200a22c:	df000817 	ldw	fp,32(sp)
 200a230:	ddc00717 	ldw	r23,28(sp)
 200a234:	dd800617 	ldw	r22,24(sp)
 200a238:	dd400517 	ldw	r21,20(sp)
 200a23c:	dd000417 	ldw	r20,16(sp)
 200a240:	dcc00317 	ldw	r19,12(sp)
 200a244:	dc800217 	ldw	r18,8(sp)
 200a248:	dc400117 	ldw	r17,4(sp)
 200a24c:	dc000017 	ldw	r16,0(sp)
 200a250:	dec00a04 	addi	sp,sp,40
 200a254:	f800283a 	ret

0200a258 <_ZN26CUltrasoundDistanceMessageC2EPhi>:
/*
 * Constructor. Used to reassemble object from Byte stream.
 * pMessage : Byte-Array containing the fields of the subMessage
 * iLength  : Length of the said array
 */
CUltrasoundDistanceMessage::CUltrasoundDistanceMessage(alt_u8 *pMessage, int iLength)
 200a258:	deffe404 	addi	sp,sp,-112
 200a25c:	dfc01b15 	stw	ra,108(sp)
 200a260:	df001a15 	stw	fp,104(sp)
 200a264:	ddc01915 	stw	r23,100(sp)
 200a268:	dd801815 	stw	r22,96(sp)
 200a26c:	dd401715 	stw	r21,92(sp)
 200a270:	dd001615 	stw	r20,88(sp)
 200a274:	dcc01515 	stw	r19,84(sp)
 200a278:	dc801415 	stw	r18,80(sp)
 200a27c:	dc401315 	stw	r17,76(sp)
 200a280:	dc001215 	stw	r16,72(sp)
 200a284:	df001204 	addi	fp,sp,72
 200a288:	e13fee15 	stw	r4,-72(fp)
 200a28c:	e17fef15 	stw	r5,-68(fp)
 200a290:	e1bff015 	stw	r6,-64(fp)
 200a294:	00808074 	movhi	r2,513
 200a298:	10adca04 	addi	r2,r2,-18648
 200a29c:	e0bff715 	stw	r2,-36(fp)
 200a2a0:	00808074 	movhi	r2,513
 200a2a4:	10894404 	addi	r2,r2,9488
 200a2a8:	e0bff815 	stw	r2,-32(fp)
 200a2ac:	e0bff904 	addi	r2,fp,-28
 200a2b0:	e0ffee04 	addi	r3,fp,-72
 200a2b4:	10c00015 	stw	r3,0(r2)
 200a2b8:	00c08074 	movhi	r3,513
 200a2bc:	18e8d004 	addi	r3,r3,-23744
 200a2c0:	10c00115 	stw	r3,4(r2)
 200a2c4:	16c00215 	stw	sp,8(r2)
 200a2c8:	e13ff104 	addi	r4,fp,-60
 200a2cc:	200d0800 	call	200d080 <_Unwind_SjLj_Register>
 200a2d0:	e13fee17 	ldw	r4,-72(fp)
 200a2d4:	00bfffc4 	movi	r2,-1
 200a2d8:	e0bff215 	stw	r2,-56(fp)
 200a2dc:	2006df00 	call	2006df0 <_ZN11CCarMessageC2Ev>
 200a2e0:	00c08074 	movhi	r3,513
 200a2e4:	18ca2104 	addi	r3,r3,10372
 200a2e8:	e0bfee17 	ldw	r2,-72(fp)
 200a2ec:	10c00015 	stw	r3,0(r2)
{
    parseHeader(pMessage, iLength);
 200a2f0:	e13fee17 	ldw	r4,-72(fp)
 200a2f4:	00800044 	movi	r2,1
 200a2f8:	e0bff215 	stw	r2,-56(fp)
 200a2fc:	e17fef17 	ldw	r5,-68(fp)
 200a300:	e1bff017 	ldw	r6,-64(fp)
 200a304:	20071480 	call	2007148 <_ZN11CCarMessage11parseHeaderEPhi>
    if(m_bValid)
 200a308:	e0bfee17 	ldw	r2,-72(fp)
 200a30c:	10800203 	ldbu	r2,8(r2)
 200a310:	10803fcc 	andi	r2,r2,255
 200a314:	1005003a 	cmpeq	r2,r2,zero
 200a318:	1000171e 	bne	r2,zero,200a378 <_ZN26CUltrasoundDistanceMessageC2EPhi+0x120>
    {
        m_bValid = false;
 200a31c:	e0bfee17 	ldw	r2,-72(fp)
 200a320:	10000205 	stb	zero,8(r2)
        parseMessage(pMessage+4, iLength-4);
 200a324:	e0bfef17 	ldw	r2,-68(fp)
 200a328:	11400104 	addi	r5,r2,4
 200a32c:	e0bff017 	ldw	r2,-64(fp)
 200a330:	11bfff04 	addi	r6,r2,-4
 200a334:	e13fee17 	ldw	r4,-72(fp)
 200a338:	2009e600 	call	2009e60 <_ZN26CUltrasoundDistanceMessage12parseMessageEPhi>
    }

}
 200a33c:	00000e06 	br	200a378 <_ZN26CUltrasoundDistanceMessageC2EPhi+0x120>
 200a340:	e7001204 	addi	fp,fp,72
 200a344:	e0bff317 	ldw	r2,-52(fp)
 200a348:	e0bfff15 	stw	r2,-4(fp)
 200a34c:	e0ffff17 	ldw	r3,-4(fp)
 200a350:	e0fffe15 	stw	r3,-8(fp)
 200a354:	e13fee17 	ldw	r4,-72(fp)
 200a358:	e03ff215 	stw	zero,-56(fp)
 200a35c:	20073b40 	call	20073b4 <_ZN11CCarMessageD2Ev>
 200a360:	e0bffe17 	ldw	r2,-8(fp)
 200a364:	e0bfff15 	stw	r2,-4(fp)
 200a368:	00bfffc4 	movi	r2,-1
 200a36c:	e0bff215 	stw	r2,-56(fp)
 200a370:	e13fff17 	ldw	r4,-4(fp)
 200a374:	200d34c0 	call	200d34c <_Unwind_SjLj_Resume>
 200a378:	e13ff104 	addi	r4,fp,-60
 200a37c:	200d0900 	call	200d090 <_Unwind_SjLj_Unregister>
 200a380:	e037883a 	mov	sp,fp
 200a384:	dfc00917 	ldw	ra,36(sp)
 200a388:	df000817 	ldw	fp,32(sp)
 200a38c:	ddc00717 	ldw	r23,28(sp)
 200a390:	dd800617 	ldw	r22,24(sp)
 200a394:	dd400517 	ldw	r21,20(sp)
 200a398:	dd000417 	ldw	r20,16(sp)
 200a39c:	dcc00317 	ldw	r19,12(sp)
 200a3a0:	dc800217 	ldw	r18,8(sp)
 200a3a4:	dc400117 	ldw	r17,4(sp)
 200a3a8:	dc000017 	ldw	r16,0(sp)
 200a3ac:	dec00a04 	addi	sp,sp,40
 200a3b0:	f800283a 	ret

0200a3b4 <_ZN26CUltrasoundDistanceMessageC1Ev>:
// Import Interfaces

/*
 * Basic Constructor. Used to initialise new message-objects.
 */
CUltrasoundDistanceMessage::CUltrasoundDistanceMessage()
 200a3b4:	deffe504 	addi	sp,sp,-108
 200a3b8:	dfc01a15 	stw	ra,104(sp)
 200a3bc:	df001915 	stw	fp,100(sp)
 200a3c0:	ddc01815 	stw	r23,96(sp)
 200a3c4:	dd801715 	stw	r22,92(sp)
 200a3c8:	dd401615 	stw	r21,88(sp)
 200a3cc:	dd001515 	stw	r20,84(sp)
 200a3d0:	dcc01415 	stw	r19,80(sp)
 200a3d4:	dc801315 	stw	r18,76(sp)
 200a3d8:	dc401215 	stw	r17,72(sp)
 200a3dc:	dc001115 	stw	r16,68(sp)
 200a3e0:	df001104 	addi	fp,sp,68
 200a3e4:	e13fef15 	stw	r4,-68(fp)
 200a3e8:	00808074 	movhi	r2,513
 200a3ec:	10adca04 	addi	r2,r2,-18648
 200a3f0:	e0bff615 	stw	r2,-40(fp)
 200a3f4:	00808074 	movhi	r2,513
 200a3f8:	10894584 	addi	r2,r2,9494
 200a3fc:	e0bff715 	stw	r2,-36(fp)
 200a400:	e0bff804 	addi	r2,fp,-32
 200a404:	e0ffef04 	addi	r3,fp,-68
 200a408:	10c00015 	stw	r3,0(r2)
 200a40c:	00c08074 	movhi	r3,513
 200a410:	18e92404 	addi	r3,r3,-23408
 200a414:	10c00115 	stw	r3,4(r2)
 200a418:	16c00215 	stw	sp,8(r2)
 200a41c:	e13ff004 	addi	r4,fp,-64
 200a420:	200d0800 	call	200d080 <_Unwind_SjLj_Register>
 200a424:	e13fef17 	ldw	r4,-68(fp)
 200a428:	00bfffc4 	movi	r2,-1
 200a42c:	e0bff115 	stw	r2,-60(fp)
 200a430:	2006df00 	call	2006df0 <_ZN11CCarMessageC2Ev>
 200a434:	00c08074 	movhi	r3,513
 200a438:	18ca2104 	addi	r3,r3,10372
 200a43c:	e0bfef17 	ldw	r2,-68(fp)
 200a440:	10c00015 	stw	r3,0(r2)
{
    setHeader(8, getLength(), 0);
 200a444:	e0bfef17 	ldw	r2,-68(fp)
 200a448:	e0bffe15 	stw	r2,-8(fp)
 200a44c:	e13fef17 	ldw	r4,-68(fp)
 200a450:	2009e3c0 	call	2009e3c <_ZN26CUltrasoundDistanceMessage9getLengthEv>
 200a454:	11803fcc 	andi	r6,r2,255
 200a458:	00800044 	movi	r2,1
 200a45c:	e0bff115 	stw	r2,-60(fp)
 200a460:	e13ffe17 	ldw	r4,-8(fp)
 200a464:	01400204 	movi	r5,8
 200a468:	000f883a 	mov	r7,zero
 200a46c:	2006fc40 	call	2006fc4 <_ZN11CCarMessage9setHeaderEhhb>

    m_uiDistanceValid = 0;
 200a470:	e0bfef17 	ldw	r2,-68(fp)
 200a474:	10000305 	stb	zero,12(r2)
	m_uiDistance = 0;
 200a478:	e0bfef17 	ldw	r2,-68(fp)
 200a47c:	1000028d 	sth	zero,10(r2)

    m_bValid = true;
 200a480:	e0ffef17 	ldw	r3,-68(fp)
 200a484:	00800044 	movi	r2,1
 200a488:	18800205 	stb	r2,8(r3)
}
 200a48c:	00000e06 	br	200a4c8 <_ZN26CUltrasoundDistanceMessageC1Ev+0x114>
 200a490:	e7001104 	addi	fp,fp,68
 200a494:	e0fff217 	ldw	r3,-56(fp)
 200a498:	e0ffff15 	stw	r3,-4(fp)
 200a49c:	e0bfff17 	ldw	r2,-4(fp)
 200a4a0:	e0bffd15 	stw	r2,-12(fp)
 200a4a4:	e13fef17 	ldw	r4,-68(fp)
 200a4a8:	e03ff115 	stw	zero,-60(fp)
 200a4ac:	20073b40 	call	20073b4 <_ZN11CCarMessageD2Ev>
 200a4b0:	e0fffd17 	ldw	r3,-12(fp)
 200a4b4:	e0ffff15 	stw	r3,-4(fp)
 200a4b8:	00bfffc4 	movi	r2,-1
 200a4bc:	e0bff115 	stw	r2,-60(fp)
 200a4c0:	e13fff17 	ldw	r4,-4(fp)
 200a4c4:	200d34c0 	call	200d34c <_Unwind_SjLj_Resume>
 200a4c8:	e13ff004 	addi	r4,fp,-64
 200a4cc:	200d0900 	call	200d090 <_Unwind_SjLj_Unregister>
 200a4d0:	e037883a 	mov	sp,fp
 200a4d4:	dfc00917 	ldw	ra,36(sp)
 200a4d8:	df000817 	ldw	fp,32(sp)
 200a4dc:	ddc00717 	ldw	r23,28(sp)
 200a4e0:	dd800617 	ldw	r22,24(sp)
 200a4e4:	dd400517 	ldw	r21,20(sp)
 200a4e8:	dd000417 	ldw	r20,16(sp)
 200a4ec:	dcc00317 	ldw	r19,12(sp)
 200a4f0:	dc800217 	ldw	r18,8(sp)
 200a4f4:	dc400117 	ldw	r17,4(sp)
 200a4f8:	dc000017 	ldw	r16,0(sp)
 200a4fc:	dec00a04 	addi	sp,sp,40
 200a500:	f800283a 	ret

0200a504 <_ZN26CUltrasoundDistanceMessageC2Ev>:
// Import Interfaces

/*
 * Basic Constructor. Used to initialise new message-objects.
 */
CUltrasoundDistanceMessage::CUltrasoundDistanceMessage()
 200a504:	deffe504 	addi	sp,sp,-108
 200a508:	dfc01a15 	stw	ra,104(sp)
 200a50c:	df001915 	stw	fp,100(sp)
 200a510:	ddc01815 	stw	r23,96(sp)
 200a514:	dd801715 	stw	r22,92(sp)
 200a518:	dd401615 	stw	r21,88(sp)
 200a51c:	dd001515 	stw	r20,84(sp)
 200a520:	dcc01415 	stw	r19,80(sp)
 200a524:	dc801315 	stw	r18,76(sp)
 200a528:	dc401215 	stw	r17,72(sp)
 200a52c:	dc001115 	stw	r16,68(sp)
 200a530:	df001104 	addi	fp,sp,68
 200a534:	e13fef15 	stw	r4,-68(fp)
 200a538:	00808074 	movhi	r2,513
 200a53c:	10adca04 	addi	r2,r2,-18648
 200a540:	e0bff615 	stw	r2,-40(fp)
 200a544:	00808074 	movhi	r2,513
 200a548:	10894704 	addi	r2,r2,9500
 200a54c:	e0bff715 	stw	r2,-36(fp)
 200a550:	e0bff804 	addi	r2,fp,-32
 200a554:	e0ffef04 	addi	r3,fp,-68
 200a558:	10c00015 	stw	r3,0(r2)
 200a55c:	00c08074 	movhi	r3,513
 200a560:	18e97804 	addi	r3,r3,-23072
 200a564:	10c00115 	stw	r3,4(r2)
 200a568:	16c00215 	stw	sp,8(r2)
 200a56c:	e13ff004 	addi	r4,fp,-64
 200a570:	200d0800 	call	200d080 <_Unwind_SjLj_Register>
 200a574:	e13fef17 	ldw	r4,-68(fp)
 200a578:	00bfffc4 	movi	r2,-1
 200a57c:	e0bff115 	stw	r2,-60(fp)
 200a580:	2006df00 	call	2006df0 <_ZN11CCarMessageC2Ev>
 200a584:	00c08074 	movhi	r3,513
 200a588:	18ca2104 	addi	r3,r3,10372
 200a58c:	e0bfef17 	ldw	r2,-68(fp)
 200a590:	10c00015 	stw	r3,0(r2)
{
    setHeader(8, getLength(), 0);
 200a594:	e0bfef17 	ldw	r2,-68(fp)
 200a598:	e0bffe15 	stw	r2,-8(fp)
 200a59c:	e13fef17 	ldw	r4,-68(fp)
 200a5a0:	2009e3c0 	call	2009e3c <_ZN26CUltrasoundDistanceMessage9getLengthEv>
 200a5a4:	11803fcc 	andi	r6,r2,255
 200a5a8:	00800044 	movi	r2,1
 200a5ac:	e0bff115 	stw	r2,-60(fp)
 200a5b0:	e13ffe17 	ldw	r4,-8(fp)
 200a5b4:	01400204 	movi	r5,8
 200a5b8:	000f883a 	mov	r7,zero
 200a5bc:	2006fc40 	call	2006fc4 <_ZN11CCarMessage9setHeaderEhhb>

    m_uiDistanceValid = 0;
 200a5c0:	e0bfef17 	ldw	r2,-68(fp)
 200a5c4:	10000305 	stb	zero,12(r2)
	m_uiDistance = 0;
 200a5c8:	e0bfef17 	ldw	r2,-68(fp)
 200a5cc:	1000028d 	sth	zero,10(r2)

    m_bValid = true;
 200a5d0:	e0ffef17 	ldw	r3,-68(fp)
 200a5d4:	00800044 	movi	r2,1
 200a5d8:	18800205 	stb	r2,8(r3)
}
 200a5dc:	00000e06 	br	200a618 <_ZN26CUltrasoundDistanceMessageC2Ev+0x114>
 200a5e0:	e7001104 	addi	fp,fp,68
 200a5e4:	e0fff217 	ldw	r3,-56(fp)
 200a5e8:	e0ffff15 	stw	r3,-4(fp)
 200a5ec:	e0bfff17 	ldw	r2,-4(fp)
 200a5f0:	e0bffd15 	stw	r2,-12(fp)
 200a5f4:	e13fef17 	ldw	r4,-68(fp)
 200a5f8:	e03ff115 	stw	zero,-60(fp)
 200a5fc:	20073b40 	call	20073b4 <_ZN11CCarMessageD2Ev>
 200a600:	e0fffd17 	ldw	r3,-12(fp)
 200a604:	e0ffff15 	stw	r3,-4(fp)
 200a608:	00bfffc4 	movi	r2,-1
 200a60c:	e0bff115 	stw	r2,-60(fp)
 200a610:	e13fff17 	ldw	r4,-4(fp)
 200a614:	200d34c0 	call	200d34c <_Unwind_SjLj_Resume>
 200a618:	e13ff004 	addi	r4,fp,-64
 200a61c:	200d0900 	call	200d090 <_Unwind_SjLj_Unregister>
 200a620:	e037883a 	mov	sp,fp
 200a624:	dfc00917 	ldw	ra,36(sp)
 200a628:	df000817 	ldw	fp,32(sp)
 200a62c:	ddc00717 	ldw	r23,28(sp)
 200a630:	dd800617 	ldw	r22,24(sp)
 200a634:	dd400517 	ldw	r21,20(sp)
 200a638:	dd000417 	ldw	r20,16(sp)
 200a63c:	dcc00317 	ldw	r19,12(sp)
 200a640:	dc800217 	ldw	r18,8(sp)
 200a644:	dc400117 	ldw	r17,4(sp)
 200a648:	dc000017 	ldw	r16,0(sp)
 200a64c:	dec00a04 	addi	sp,sp,40
 200a650:	f800283a 	ret

0200a654 <_ZN15CWelcomeMessage8doActionEv>:
CWelcomeMessage::~CWelcomeMessage()
{

}

void CWelcomeMessage::doAction()
 200a654:	defffe04 	addi	sp,sp,-8
 200a658:	df000115 	stw	fp,4(sp)
 200a65c:	df000104 	addi	fp,sp,4
 200a660:	e13fff15 	stw	r4,-4(fp)
{
	// Do nothing!
}
 200a664:	e037883a 	mov	sp,fp
 200a668:	df000017 	ldw	fp,0(sp)
 200a66c:	dec00104 	addi	sp,sp,4
 200a670:	f800283a 	ret

0200a674 <_ZN15CWelcomeMessage9getLengthEv>:

	return m_bValid;
}


alt_u32 CWelcomeMessage::getLength()
 200a674:	defffe04 	addi	sp,sp,-8
 200a678:	df000115 	stw	fp,4(sp)
 200a67c:	df000104 	addi	fp,sp,4
 200a680:	e13fff15 	stw	r4,-4(fp)
{
	return 12;
 200a684:	00800304 	movi	r2,12
}
 200a688:	e037883a 	mov	sp,fp
 200a68c:	df000017 	ldw	fp,0(sp)
 200a690:	dec00104 	addi	sp,sp,4
 200a694:	f800283a 	ret

0200a698 <_ZN15CWelcomeMessage12parseMessageEPhi>:

void CWelcomeMessage::parseMessage(alt_u8 *pMessage, int iLength)
 200a698:	defffb04 	addi	sp,sp,-20
 200a69c:	df000415 	stw	fp,16(sp)
 200a6a0:	df000404 	addi	fp,sp,16
 200a6a4:	e13ffd15 	stw	r4,-12(fp)
 200a6a8:	e17ffe15 	stw	r5,-8(fp)
 200a6ac:	e1bfff15 	stw	r6,-4(fp)
{
	if(iLength < 8)
 200a6b0:	e0bfff17 	ldw	r2,-4(fp)
 200a6b4:	10800210 	cmplti	r2,r2,8
 200a6b8:	1000281e 	bne	r2,zero,200a75c <_ZN15CWelcomeMessage12parseMessageEPhi+0xc4>
		return;

	m_uiVersionCentral = pMessage[0];
 200a6bc:	e0bffe17 	ldw	r2,-8(fp)
 200a6c0:	10c00003 	ldbu	r3,0(r2)
 200a6c4:	e0bffd17 	ldw	r2,-12(fp)
 200a6c8:	10c00245 	stb	r3,9(r2)
	m_uiVersionComponent = pMessage[1];
 200a6cc:	e0bffe17 	ldw	r2,-8(fp)
 200a6d0:	10800044 	addi	r2,r2,1
 200a6d4:	10c00003 	ldbu	r3,0(r2)
 200a6d8:	e0bffd17 	ldw	r2,-12(fp)
 200a6dc:	10c00285 	stb	r3,10(r2)
	m_uiComponentType = pMessage[2];
 200a6e0:	e0bffe17 	ldw	r2,-8(fp)
 200a6e4:	10800084 	addi	r2,r2,2
 200a6e8:	10c00003 	ldbu	r3,0(r2)
 200a6ec:	e0bffd17 	ldw	r2,-12(fp)
 200a6f0:	10c002c5 	stb	r3,11(r2)
	m_uiComponentID = pMessage[3];
 200a6f4:	e0bffe17 	ldw	r2,-8(fp)
 200a6f8:	108000c4 	addi	r2,r2,3
 200a6fc:	10c00003 	ldbu	r3,0(r2)
 200a700:	e0bffd17 	ldw	r2,-12(fp)
 200a704:	10c00305 	stb	r3,12(r2)

	for(alt_u32 i = 0; i < 4; i++)
 200a708:	e03ffc15 	stw	zero,-16(fp)
 200a70c:	00000d06 	br	200a744 <_ZN15CWelcomeMessage12parseMessageEPhi+0xac>
		m_uiOperations[i] = pMessage[i+4];
 200a710:	e13ffc17 	ldw	r4,-16(fp)
 200a714:	e0fffc17 	ldw	r3,-16(fp)
 200a718:	e0bffe17 	ldw	r2,-8(fp)
 200a71c:	1885883a 	add	r2,r3,r2
 200a720:	10800104 	addi	r2,r2,4
 200a724:	10c00003 	ldbu	r3,0(r2)
 200a728:	e0bffd17 	ldw	r2,-12(fp)
 200a72c:	2085883a 	add	r2,r4,r2
 200a730:	10800304 	addi	r2,r2,12
 200a734:	10c00045 	stb	r3,1(r2)
	m_uiVersionCentral = pMessage[0];
	m_uiVersionComponent = pMessage[1];
	m_uiComponentType = pMessage[2];
	m_uiComponentID = pMessage[3];

	for(alt_u32 i = 0; i < 4; i++)
 200a738:	e0bffc17 	ldw	r2,-16(fp)
 200a73c:	10800044 	addi	r2,r2,1
 200a740:	e0bffc15 	stw	r2,-16(fp)
 200a744:	e0bffc17 	ldw	r2,-16(fp)
 200a748:	10800130 	cmpltui	r2,r2,4
 200a74c:	103ff01e 	bne	r2,zero,200a710 <_ZN15CWelcomeMessage12parseMessageEPhi+0x78>
		m_uiOperations[i] = pMessage[i+4];

	m_bValid = true;
 200a750:	e0fffd17 	ldw	r3,-12(fp)
 200a754:	00800044 	movi	r2,1
 200a758:	18800205 	stb	r2,8(r3)
}
 200a75c:	e037883a 	mov	sp,fp
 200a760:	df000017 	ldw	fp,0(sp)
 200a764:	dec00104 	addi	sp,sp,4
 200a768:	f800283a 	ret

0200a76c <_ZN15CWelcomeMessage13answerMessageEh>:

void CWelcomeMessage::answerMessage(alt_u8 uiVersionCentral)
 200a76c:	defffc04 	addi	sp,sp,-16
 200a770:	df000315 	stw	fp,12(sp)
 200a774:	df000304 	addi	fp,sp,12
 200a778:	e13ffe15 	stw	r4,-8(fp)
 200a77c:	e17fff05 	stb	r5,-4(fp)
{
	if(!m_bValid)
 200a780:	e0bffe17 	ldw	r2,-8(fp)
 200a784:	10800203 	ldbu	r2,8(r2)
 200a788:	1080005c 	xori	r2,r2,1
 200a78c:	10803fcc 	andi	r2,r2,255
 200a790:	1004c03a 	cmpne	r2,r2,zero
 200a794:	10001c1e 	bne	r2,zero,200a808 <_ZN15CWelcomeMessage13answerMessageEh+0x9c>
		return;

	m_uiVersionCentral = uiVersionCentral;
 200a798:	e0fffe17 	ldw	r3,-8(fp)
 200a79c:	e0bfff03 	ldbu	r2,-4(fp)
 200a7a0:	18800245 	stb	r2,9(r3)
	m_uiVersionComponent = 0;
 200a7a4:	e0bffe17 	ldw	r2,-8(fp)
 200a7a8:	10000285 	stb	zero,10(r2)
	m_uiComponentType = 0;
 200a7ac:	e0bffe17 	ldw	r2,-8(fp)
 200a7b0:	100002c5 	stb	zero,11(r2)
	m_uiComponentID = 0;
 200a7b4:	e0bffe17 	ldw	r2,-8(fp)
 200a7b8:	10000305 	stb	zero,12(r2)

	for(alt_u32 i = 0; i < 4; i++)
 200a7bc:	e03ffd15 	stw	zero,-12(fp)
 200a7c0:	00000806 	br	200a7e4 <_ZN15CWelcomeMessage13answerMessageEh+0x78>
		m_uiOperations[i] = 0;
 200a7c4:	e0fffd17 	ldw	r3,-12(fp)
 200a7c8:	e0bffe17 	ldw	r2,-8(fp)
 200a7cc:	1885883a 	add	r2,r3,r2
 200a7d0:	10800304 	addi	r2,r2,12
 200a7d4:	10000045 	stb	zero,1(r2)
	m_uiVersionCentral = uiVersionCentral;
	m_uiVersionComponent = 0;
	m_uiComponentType = 0;
	m_uiComponentID = 0;

	for(alt_u32 i = 0; i < 4; i++)
 200a7d8:	e0bffd17 	ldw	r2,-12(fp)
 200a7dc:	10800044 	addi	r2,r2,1
 200a7e0:	e0bffd15 	stw	r2,-12(fp)
 200a7e4:	e0bffd17 	ldw	r2,-12(fp)
 200a7e8:	10800130 	cmpltui	r2,r2,4
 200a7ec:	103ff51e 	bne	r2,zero,200a7c4 <_ZN15CWelcomeMessage13answerMessageEh+0x58>
		m_uiOperations[i] = 0;

	m_uiFlags = m_uiFlags | 0x01; // Set Response-Flag
 200a7f0:	e0bffe17 	ldw	r2,-8(fp)
 200a7f4:	108001c3 	ldbu	r2,7(r2)
 200a7f8:	10800054 	ori	r2,r2,1
 200a7fc:	1007883a 	mov	r3,r2
 200a800:	e0bffe17 	ldw	r2,-8(fp)
 200a804:	10c001c5 	stb	r3,7(r2)
}
 200a808:	e037883a 	mov	sp,fp
 200a80c:	df000017 	ldw	fp,0(sp)
 200a810:	dec00104 	addi	sp,sp,4
 200a814:	f800283a 	ret

0200a818 <_ZN15CWelcomeMessage8getBytesEPh>:
void CWelcomeMessage::doAction()
{
	// Do nothing!
}

bool CWelcomeMessage::getBytes(alt_u8 *pMessage)
 200a818:	defffb04 	addi	sp,sp,-20
 200a81c:	dfc00415 	stw	ra,16(sp)
 200a820:	df000315 	stw	fp,12(sp)
 200a824:	df000304 	addi	fp,sp,12
 200a828:	e13ffe15 	stw	r4,-8(fp)
 200a82c:	e17fff15 	stw	r5,-4(fp)
{
	CCarMessage::getBytes(pMessage);
 200a830:	e13ffe17 	ldw	r4,-8(fp)
 200a834:	e17fff17 	ldw	r5,-4(fp)
 200a838:	2006e800 	call	2006e80 <_ZN11CCarMessage8getBytesEPh>

	pMessage[4] = m_uiVersionCentral;
 200a83c:	e0bfff17 	ldw	r2,-4(fp)
 200a840:	10c00104 	addi	r3,r2,4
 200a844:	e0bffe17 	ldw	r2,-8(fp)
 200a848:	10800243 	ldbu	r2,9(r2)
 200a84c:	18800005 	stb	r2,0(r3)
	pMessage[5] = m_uiVersionComponent;
 200a850:	e0bfff17 	ldw	r2,-4(fp)
 200a854:	10c00144 	addi	r3,r2,5
 200a858:	e0bffe17 	ldw	r2,-8(fp)
 200a85c:	10800283 	ldbu	r2,10(r2)
 200a860:	18800005 	stb	r2,0(r3)
	pMessage[6] = m_uiComponentType;
 200a864:	e0bfff17 	ldw	r2,-4(fp)
 200a868:	10c00184 	addi	r3,r2,6
 200a86c:	e0bffe17 	ldw	r2,-8(fp)
 200a870:	108002c3 	ldbu	r2,11(r2)
 200a874:	18800005 	stb	r2,0(r3)
	pMessage[7] = m_uiComponentID;
 200a878:	e0bfff17 	ldw	r2,-4(fp)
 200a87c:	10c001c4 	addi	r3,r2,7
 200a880:	e0bffe17 	ldw	r2,-8(fp)
 200a884:	10800303 	ldbu	r2,12(r2)
 200a888:	18800005 	stb	r2,0(r3)

	for(alt_u32 i = 0; i < 4; i++)
 200a88c:	e03ffd15 	stw	zero,-12(fp)
 200a890:	00000d06 	br	200a8c8 <_ZN15CWelcomeMessage8getBytesEPh+0xb0>
		pMessage[i+8] = m_uiOperations[i];
 200a894:	e0fffd17 	ldw	r3,-12(fp)
 200a898:	e0bfff17 	ldw	r2,-4(fp)
 200a89c:	1885883a 	add	r2,r3,r2
 200a8a0:	11000204 	addi	r4,r2,8
 200a8a4:	e0fffd17 	ldw	r3,-12(fp)
 200a8a8:	e0bffe17 	ldw	r2,-8(fp)
 200a8ac:	1885883a 	add	r2,r3,r2
 200a8b0:	10800304 	addi	r2,r2,12
 200a8b4:	10800043 	ldbu	r2,1(r2)
 200a8b8:	20800005 	stb	r2,0(r4)
	pMessage[4] = m_uiVersionCentral;
	pMessage[5] = m_uiVersionComponent;
	pMessage[6] = m_uiComponentType;
	pMessage[7] = m_uiComponentID;

	for(alt_u32 i = 0; i < 4; i++)
 200a8bc:	e0bffd17 	ldw	r2,-12(fp)
 200a8c0:	10800044 	addi	r2,r2,1
 200a8c4:	e0bffd15 	stw	r2,-12(fp)
 200a8c8:	e0bffd17 	ldw	r2,-12(fp)
 200a8cc:	10800130 	cmpltui	r2,r2,4
 200a8d0:	103ff01e 	bne	r2,zero,200a894 <_ZN15CWelcomeMessage8getBytesEPh+0x7c>
		pMessage[i+8] = m_uiOperations[i];

	return m_bValid;
 200a8d4:	e0bffe17 	ldw	r2,-8(fp)
 200a8d8:	10800203 	ldbu	r2,8(r2)
 200a8dc:	10803fcc 	andi	r2,r2,255
}
 200a8e0:	e037883a 	mov	sp,fp
 200a8e4:	dfc00117 	ldw	ra,4(sp)
 200a8e8:	df000017 	ldw	fp,0(sp)
 200a8ec:	dec00204 	addi	sp,sp,8
 200a8f0:	f800283a 	ret

0200a8f4 <_ZN15CWelcomeMessageD0Ev>:
		m_uiOperations[i] = uiOperations[i];

	m_bValid = true;
}

CWelcomeMessage::~CWelcomeMessage()
 200a8f4:	defffd04 	addi	sp,sp,-12
 200a8f8:	dfc00215 	stw	ra,8(sp)
 200a8fc:	df000115 	stw	fp,4(sp)
 200a900:	df000104 	addi	fp,sp,4
 200a904:	e13fff15 	stw	r4,-4(fp)
 200a908:	00c08074 	movhi	r3,513
 200a90c:	18ca3304 	addi	r3,r3,10444
 200a910:	e0bfff17 	ldw	r2,-4(fp)
 200a914:	10c00015 	stw	r3,0(r2)
{

}
 200a918:	e13fff17 	ldw	r4,-4(fp)
 200a91c:	20073b40 	call	20073b4 <_ZN11CCarMessageD2Ev>
 200a920:	00800044 	movi	r2,1
 200a924:	10803fcc 	andi	r2,r2,255
 200a928:	1005003a 	cmpeq	r2,r2,zero
 200a92c:	1000021e 	bne	r2,zero,200a938 <_ZN15CWelcomeMessageD0Ev+0x44>
 200a930:	e13fff17 	ldw	r4,-4(fp)
 200a934:	200bc9c0 	call	200bc9c <_ZdlPv>
 200a938:	e037883a 	mov	sp,fp
 200a93c:	dfc00117 	ldw	ra,4(sp)
 200a940:	df000017 	ldw	fp,0(sp)
 200a944:	dec00204 	addi	sp,sp,8
 200a948:	f800283a 	ret

0200a94c <_ZN15CWelcomeMessageD1Ev>:
		m_uiOperations[i] = uiOperations[i];

	m_bValid = true;
}

CWelcomeMessage::~CWelcomeMessage()
 200a94c:	defffd04 	addi	sp,sp,-12
 200a950:	dfc00215 	stw	ra,8(sp)
 200a954:	df000115 	stw	fp,4(sp)
 200a958:	df000104 	addi	fp,sp,4
 200a95c:	e13fff15 	stw	r4,-4(fp)
 200a960:	00c08074 	movhi	r3,513
 200a964:	18ca3304 	addi	r3,r3,10444
 200a968:	e0bfff17 	ldw	r2,-4(fp)
 200a96c:	10c00015 	stw	r3,0(r2)
{

}
 200a970:	e13fff17 	ldw	r4,-4(fp)
 200a974:	20073b40 	call	20073b4 <_ZN11CCarMessageD2Ev>
 200a978:	0005883a 	mov	r2,zero
 200a97c:	10803fcc 	andi	r2,r2,255
 200a980:	1005003a 	cmpeq	r2,r2,zero
 200a984:	1000021e 	bne	r2,zero,200a990 <_ZN15CWelcomeMessageD1Ev+0x44>
 200a988:	e13fff17 	ldw	r4,-4(fp)
 200a98c:	200bc9c0 	call	200bc9c <_ZdlPv>
 200a990:	e037883a 	mov	sp,fp
 200a994:	dfc00117 	ldw	ra,4(sp)
 200a998:	df000017 	ldw	fp,0(sp)
 200a99c:	dec00204 	addi	sp,sp,8
 200a9a0:	f800283a 	ret

0200a9a4 <_ZN15CWelcomeMessageD2Ev>:
		m_uiOperations[i] = uiOperations[i];

	m_bValid = true;
}

CWelcomeMessage::~CWelcomeMessage()
 200a9a4:	defffd04 	addi	sp,sp,-12
 200a9a8:	dfc00215 	stw	ra,8(sp)
 200a9ac:	df000115 	stw	fp,4(sp)
 200a9b0:	df000104 	addi	fp,sp,4
 200a9b4:	e13fff15 	stw	r4,-4(fp)
 200a9b8:	00c08074 	movhi	r3,513
 200a9bc:	18ca3304 	addi	r3,r3,10444
 200a9c0:	e0bfff17 	ldw	r2,-4(fp)
 200a9c4:	10c00015 	stw	r3,0(r2)
{

}
 200a9c8:	e13fff17 	ldw	r4,-4(fp)
 200a9cc:	20073b40 	call	20073b4 <_ZN11CCarMessageD2Ev>
 200a9d0:	0005883a 	mov	r2,zero
 200a9d4:	10803fcc 	andi	r2,r2,255
 200a9d8:	1005003a 	cmpeq	r2,r2,zero
 200a9dc:	1000021e 	bne	r2,zero,200a9e8 <_ZN15CWelcomeMessageD2Ev+0x44>
 200a9e0:	e13fff17 	ldw	r4,-4(fp)
 200a9e4:	200bc9c0 	call	200bc9c <_ZdlPv>
 200a9e8:	e037883a 	mov	sp,fp
 200a9ec:	dfc00117 	ldw	ra,4(sp)
 200a9f0:	df000017 	ldw	fp,0(sp)
 200a9f4:	dec00204 	addi	sp,sp,8
 200a9f8:	f800283a 	ret

0200a9fc <_ZN15CWelcomeMessageC1EhhhPh>:
		m_bValid = false;
		parseMessage(pMessage+4, iLength-4);
	}
}

CWelcomeMessage::CWelcomeMessage(alt_u8 uiVersionComponent, alt_u8 uiComponentType, alt_u8 uiComponentID, alt_u8 *uiOperations)
 200a9fc:	deffe104 	addi	sp,sp,-124
 200aa00:	dfc01e15 	stw	ra,120(sp)
 200aa04:	df001d15 	stw	fp,116(sp)
 200aa08:	ddc01c15 	stw	r23,112(sp)
 200aa0c:	dd801b15 	stw	r22,108(sp)
 200aa10:	dd401a15 	stw	r21,104(sp)
 200aa14:	dd001915 	stw	r20,100(sp)
 200aa18:	dcc01815 	stw	r19,96(sp)
 200aa1c:	dc801715 	stw	r18,92(sp)
 200aa20:	dc401615 	stw	r17,88(sp)
 200aa24:	dc001515 	stw	r16,84(sp)
 200aa28:	df001504 	addi	fp,sp,84
 200aa2c:	e13fec15 	stw	r4,-80(fp)
 200aa30:	e17fed05 	stb	r5,-76(fp)
 200aa34:	e1bfee05 	stb	r6,-72(fp)
 200aa38:	e1ffef05 	stb	r7,-68(fp)
 200aa3c:	00808074 	movhi	r2,513
 200aa40:	10adca04 	addi	r2,r2,-18648
 200aa44:	e0bff615 	stw	r2,-40(fp)
 200aa48:	00808074 	movhi	r2,513
 200aa4c:	10894884 	addi	r2,r2,9506
 200aa50:	e0bff715 	stw	r2,-36(fp)
 200aa54:	e0bff804 	addi	r2,fp,-32
 200aa58:	e0ffeb04 	addi	r3,fp,-84
 200aa5c:	10c00015 	stw	r3,0(r2)
 200aa60:	00c08074 	movhi	r3,513
 200aa64:	18eacf04 	addi	r3,r3,-21700
 200aa68:	10c00115 	stw	r3,4(r2)
 200aa6c:	16c00215 	stw	sp,8(r2)
 200aa70:	e13ff004 	addi	r4,fp,-64
 200aa74:	200d0800 	call	200d080 <_Unwind_SjLj_Register>
 200aa78:	e13fec17 	ldw	r4,-80(fp)
 200aa7c:	00bfffc4 	movi	r2,-1
 200aa80:	e0bff115 	stw	r2,-60(fp)
 200aa84:	2006df00 	call	2006df0 <_ZN11CCarMessageC2Ev>
 200aa88:	00c08074 	movhi	r3,513
 200aa8c:	18ca3304 	addi	r3,r3,10444
 200aa90:	e0bfec17 	ldw	r2,-80(fp)
 200aa94:	10c00015 	stw	r3,0(r2)
{

	setHeader(1, getLength(), 0);
 200aa98:	e0bfec17 	ldw	r2,-80(fp)
 200aa9c:	e0bffe15 	stw	r2,-8(fp)
 200aaa0:	e13fec17 	ldw	r4,-80(fp)
 200aaa4:	200a6740 	call	200a674 <_ZN15CWelcomeMessage9getLengthEv>
 200aaa8:	11803fcc 	andi	r6,r2,255
 200aaac:	00800044 	movi	r2,1
 200aab0:	e0bff115 	stw	r2,-60(fp)
 200aab4:	e13ffe17 	ldw	r4,-8(fp)
 200aab8:	01400044 	movi	r5,1
 200aabc:	000f883a 	mov	r7,zero
 200aac0:	2006fc40 	call	2006fc4 <_ZN11CCarMessage9setHeaderEhhb>

	m_uiVersionComponent = uiVersionComponent;
 200aac4:	e0ffec17 	ldw	r3,-80(fp)
 200aac8:	e0bfed03 	ldbu	r2,-76(fp)
 200aacc:	18800285 	stb	r2,10(r3)
	m_uiComponentType = uiComponentType;
 200aad0:	e0ffec17 	ldw	r3,-80(fp)
 200aad4:	e0bfee03 	ldbu	r2,-72(fp)
 200aad8:	188002c5 	stb	r2,11(r3)
	m_uiComponentID = uiComponentID;
 200aadc:	e0ffec17 	ldw	r3,-80(fp)
 200aae0:	e0bfef03 	ldbu	r2,-68(fp)
 200aae4:	18800305 	stb	r2,12(r3)

	for(alt_u32 i = 0; i < 4; i++)
 200aae8:	e03feb15 	stw	zero,-84(fp)
 200aaec:	00000c06 	br	200ab20 <_ZN15CWelcomeMessageC1EhhhPh+0x124>
		m_uiOperations[i] = uiOperations[i];
 200aaf0:	e13feb17 	ldw	r4,-84(fp)
 200aaf4:	e0ffeb17 	ldw	r3,-84(fp)
 200aaf8:	e0800a17 	ldw	r2,40(fp)
 200aafc:	1885883a 	add	r2,r3,r2
 200ab00:	10c00003 	ldbu	r3,0(r2)
 200ab04:	e0bfec17 	ldw	r2,-80(fp)
 200ab08:	2085883a 	add	r2,r4,r2
 200ab0c:	10800304 	addi	r2,r2,12
 200ab10:	10c00045 	stb	r3,1(r2)

	m_uiVersionComponent = uiVersionComponent;
	m_uiComponentType = uiComponentType;
	m_uiComponentID = uiComponentID;

	for(alt_u32 i = 0; i < 4; i++)
 200ab14:	e0bfeb17 	ldw	r2,-84(fp)
 200ab18:	10800044 	addi	r2,r2,1
 200ab1c:	e0bfeb15 	stw	r2,-84(fp)
 200ab20:	e0bfeb17 	ldw	r2,-84(fp)
 200ab24:	10800130 	cmpltui	r2,r2,4
 200ab28:	103ff11e 	bne	r2,zero,200aaf0 <_ZN15CWelcomeMessageC1EhhhPh+0xf4>
		m_uiOperations[i] = uiOperations[i];

	m_bValid = true;
 200ab2c:	e0ffec17 	ldw	r3,-80(fp)
 200ab30:	00800044 	movi	r2,1
 200ab34:	18800205 	stb	r2,8(r3)
}
 200ab38:	00000e06 	br	200ab74 <_ZN15CWelcomeMessageC1EhhhPh+0x178>
 200ab3c:	e7001504 	addi	fp,fp,84
 200ab40:	e0fff217 	ldw	r3,-56(fp)
 200ab44:	e0ffff15 	stw	r3,-4(fp)
 200ab48:	e0bfff17 	ldw	r2,-4(fp)
 200ab4c:	e0bffd15 	stw	r2,-12(fp)
 200ab50:	e13fec17 	ldw	r4,-80(fp)
 200ab54:	e03ff115 	stw	zero,-60(fp)
 200ab58:	20073b40 	call	20073b4 <_ZN11CCarMessageD2Ev>
 200ab5c:	e0fffd17 	ldw	r3,-12(fp)
 200ab60:	e0ffff15 	stw	r3,-4(fp)
 200ab64:	00bfffc4 	movi	r2,-1
 200ab68:	e0bff115 	stw	r2,-60(fp)
 200ab6c:	e13fff17 	ldw	r4,-4(fp)
 200ab70:	200d34c0 	call	200d34c <_Unwind_SjLj_Resume>
 200ab74:	e13ff004 	addi	r4,fp,-64
 200ab78:	200d0900 	call	200d090 <_Unwind_SjLj_Unregister>
 200ab7c:	e037883a 	mov	sp,fp
 200ab80:	dfc00917 	ldw	ra,36(sp)
 200ab84:	df000817 	ldw	fp,32(sp)
 200ab88:	ddc00717 	ldw	r23,28(sp)
 200ab8c:	dd800617 	ldw	r22,24(sp)
 200ab90:	dd400517 	ldw	r21,20(sp)
 200ab94:	dd000417 	ldw	r20,16(sp)
 200ab98:	dcc00317 	ldw	r19,12(sp)
 200ab9c:	dc800217 	ldw	r18,8(sp)
 200aba0:	dc400117 	ldw	r17,4(sp)
 200aba4:	dc000017 	ldw	r16,0(sp)
 200aba8:	dec00a04 	addi	sp,sp,40
 200abac:	f800283a 	ret

0200abb0 <_ZN15CWelcomeMessageC2EhhhPh>:
		m_bValid = false;
		parseMessage(pMessage+4, iLength-4);
	}
}

CWelcomeMessage::CWelcomeMessage(alt_u8 uiVersionComponent, alt_u8 uiComponentType, alt_u8 uiComponentID, alt_u8 *uiOperations)
 200abb0:	deffe104 	addi	sp,sp,-124
 200abb4:	dfc01e15 	stw	ra,120(sp)
 200abb8:	df001d15 	stw	fp,116(sp)
 200abbc:	ddc01c15 	stw	r23,112(sp)
 200abc0:	dd801b15 	stw	r22,108(sp)
 200abc4:	dd401a15 	stw	r21,104(sp)
 200abc8:	dd001915 	stw	r20,100(sp)
 200abcc:	dcc01815 	stw	r19,96(sp)
 200abd0:	dc801715 	stw	r18,92(sp)
 200abd4:	dc401615 	stw	r17,88(sp)
 200abd8:	dc001515 	stw	r16,84(sp)
 200abdc:	df001504 	addi	fp,sp,84
 200abe0:	e13fec15 	stw	r4,-80(fp)
 200abe4:	e17fed05 	stb	r5,-76(fp)
 200abe8:	e1bfee05 	stb	r6,-72(fp)
 200abec:	e1ffef05 	stb	r7,-68(fp)
 200abf0:	00808074 	movhi	r2,513
 200abf4:	10adca04 	addi	r2,r2,-18648
 200abf8:	e0bff615 	stw	r2,-40(fp)
 200abfc:	00808074 	movhi	r2,513
 200ac00:	10894a04 	addi	r2,r2,9512
 200ac04:	e0bff715 	stw	r2,-36(fp)
 200ac08:	e0bff804 	addi	r2,fp,-32
 200ac0c:	e0ffeb04 	addi	r3,fp,-84
 200ac10:	10c00015 	stw	r3,0(r2)
 200ac14:	00c08074 	movhi	r3,513
 200ac18:	18eb3c04 	addi	r3,r3,-21264
 200ac1c:	10c00115 	stw	r3,4(r2)
 200ac20:	16c00215 	stw	sp,8(r2)
 200ac24:	e13ff004 	addi	r4,fp,-64
 200ac28:	200d0800 	call	200d080 <_Unwind_SjLj_Register>
 200ac2c:	e13fec17 	ldw	r4,-80(fp)
 200ac30:	00bfffc4 	movi	r2,-1
 200ac34:	e0bff115 	stw	r2,-60(fp)
 200ac38:	2006df00 	call	2006df0 <_ZN11CCarMessageC2Ev>
 200ac3c:	00c08074 	movhi	r3,513
 200ac40:	18ca3304 	addi	r3,r3,10444
 200ac44:	e0bfec17 	ldw	r2,-80(fp)
 200ac48:	10c00015 	stw	r3,0(r2)
{

	setHeader(1, getLength(), 0);
 200ac4c:	e0bfec17 	ldw	r2,-80(fp)
 200ac50:	e0bffe15 	stw	r2,-8(fp)
 200ac54:	e13fec17 	ldw	r4,-80(fp)
 200ac58:	200a6740 	call	200a674 <_ZN15CWelcomeMessage9getLengthEv>
 200ac5c:	11803fcc 	andi	r6,r2,255
 200ac60:	00800044 	movi	r2,1
 200ac64:	e0bff115 	stw	r2,-60(fp)
 200ac68:	e13ffe17 	ldw	r4,-8(fp)
 200ac6c:	01400044 	movi	r5,1
 200ac70:	000f883a 	mov	r7,zero
 200ac74:	2006fc40 	call	2006fc4 <_ZN11CCarMessage9setHeaderEhhb>

	m_uiVersionComponent = uiVersionComponent;
 200ac78:	e0ffec17 	ldw	r3,-80(fp)
 200ac7c:	e0bfed03 	ldbu	r2,-76(fp)
 200ac80:	18800285 	stb	r2,10(r3)
	m_uiComponentType = uiComponentType;
 200ac84:	e0ffec17 	ldw	r3,-80(fp)
 200ac88:	e0bfee03 	ldbu	r2,-72(fp)
 200ac8c:	188002c5 	stb	r2,11(r3)
	m_uiComponentID = uiComponentID;
 200ac90:	e0ffec17 	ldw	r3,-80(fp)
 200ac94:	e0bfef03 	ldbu	r2,-68(fp)
 200ac98:	18800305 	stb	r2,12(r3)

	for(alt_u32 i = 0; i < 4; i++)
 200ac9c:	e03feb15 	stw	zero,-84(fp)
 200aca0:	00000c06 	br	200acd4 <_ZN15CWelcomeMessageC2EhhhPh+0x124>
		m_uiOperations[i] = uiOperations[i];
 200aca4:	e13feb17 	ldw	r4,-84(fp)
 200aca8:	e0ffeb17 	ldw	r3,-84(fp)
 200acac:	e0800a17 	ldw	r2,40(fp)
 200acb0:	1885883a 	add	r2,r3,r2
 200acb4:	10c00003 	ldbu	r3,0(r2)
 200acb8:	e0bfec17 	ldw	r2,-80(fp)
 200acbc:	2085883a 	add	r2,r4,r2
 200acc0:	10800304 	addi	r2,r2,12
 200acc4:	10c00045 	stb	r3,1(r2)

	m_uiVersionComponent = uiVersionComponent;
	m_uiComponentType = uiComponentType;
	m_uiComponentID = uiComponentID;

	for(alt_u32 i = 0; i < 4; i++)
 200acc8:	e0bfeb17 	ldw	r2,-84(fp)
 200accc:	10800044 	addi	r2,r2,1
 200acd0:	e0bfeb15 	stw	r2,-84(fp)
 200acd4:	e0bfeb17 	ldw	r2,-84(fp)
 200acd8:	10800130 	cmpltui	r2,r2,4
 200acdc:	103ff11e 	bne	r2,zero,200aca4 <_ZN15CWelcomeMessageC2EhhhPh+0xf4>
		m_uiOperations[i] = uiOperations[i];

	m_bValid = true;
 200ace0:	e0ffec17 	ldw	r3,-80(fp)
 200ace4:	00800044 	movi	r2,1
 200ace8:	18800205 	stb	r2,8(r3)
}
 200acec:	00000e06 	br	200ad28 <_ZN15CWelcomeMessageC2EhhhPh+0x178>
 200acf0:	e7001504 	addi	fp,fp,84
 200acf4:	e0fff217 	ldw	r3,-56(fp)
 200acf8:	e0ffff15 	stw	r3,-4(fp)
 200acfc:	e0bfff17 	ldw	r2,-4(fp)
 200ad00:	e0bffd15 	stw	r2,-12(fp)
 200ad04:	e13fec17 	ldw	r4,-80(fp)
 200ad08:	e03ff115 	stw	zero,-60(fp)
 200ad0c:	20073b40 	call	20073b4 <_ZN11CCarMessageD2Ev>
 200ad10:	e0fffd17 	ldw	r3,-12(fp)
 200ad14:	e0ffff15 	stw	r3,-4(fp)
 200ad18:	00bfffc4 	movi	r2,-1
 200ad1c:	e0bff115 	stw	r2,-60(fp)
 200ad20:	e13fff17 	ldw	r4,-4(fp)
 200ad24:	200d34c0 	call	200d34c <_Unwind_SjLj_Resume>
 200ad28:	e13ff004 	addi	r4,fp,-64
 200ad2c:	200d0900 	call	200d090 <_Unwind_SjLj_Unregister>
 200ad30:	e037883a 	mov	sp,fp
 200ad34:	dfc00917 	ldw	ra,36(sp)
 200ad38:	df000817 	ldw	fp,32(sp)
 200ad3c:	ddc00717 	ldw	r23,28(sp)
 200ad40:	dd800617 	ldw	r22,24(sp)
 200ad44:	dd400517 	ldw	r21,20(sp)
 200ad48:	dd000417 	ldw	r20,16(sp)
 200ad4c:	dcc00317 	ldw	r19,12(sp)
 200ad50:	dc800217 	ldw	r18,8(sp)
 200ad54:	dc400117 	ldw	r17,4(sp)
 200ad58:	dc000017 	ldw	r16,0(sp)
 200ad5c:	dec00a04 	addi	sp,sp,40
 200ad60:	f800283a 	ret

0200ad64 <_ZN15CWelcomeMessageC1EPhi>:
 *      Author: Florian
 */

#include "WelcomeMessage.h"

CWelcomeMessage::CWelcomeMessage(alt_u8 *pMessage, int iLength)
 200ad64:	deffe404 	addi	sp,sp,-112
 200ad68:	dfc01b15 	stw	ra,108(sp)
 200ad6c:	df001a15 	stw	fp,104(sp)
 200ad70:	ddc01915 	stw	r23,100(sp)
 200ad74:	dd801815 	stw	r22,96(sp)
 200ad78:	dd401715 	stw	r21,92(sp)
 200ad7c:	dd001615 	stw	r20,88(sp)
 200ad80:	dcc01515 	stw	r19,84(sp)
 200ad84:	dc801415 	stw	r18,80(sp)
 200ad88:	dc401315 	stw	r17,76(sp)
 200ad8c:	dc001215 	stw	r16,72(sp)
 200ad90:	df001204 	addi	fp,sp,72
 200ad94:	e13fee15 	stw	r4,-72(fp)
 200ad98:	e17fef15 	stw	r5,-68(fp)
 200ad9c:	e1bff015 	stw	r6,-64(fp)
 200ada0:	00808074 	movhi	r2,513
 200ada4:	10adca04 	addi	r2,r2,-18648
 200ada8:	e0bff715 	stw	r2,-36(fp)
 200adac:	00808074 	movhi	r2,513
 200adb0:	10894b84 	addi	r2,r2,9518
 200adb4:	e0bff815 	stw	r2,-32(fp)
 200adb8:	e0bff904 	addi	r2,fp,-28
 200adbc:	e0ffee04 	addi	r3,fp,-72
 200adc0:	10c00015 	stw	r3,0(r2)
 200adc4:	00c08074 	movhi	r3,513
 200adc8:	18eb9304 	addi	r3,r3,-20916
 200adcc:	10c00115 	stw	r3,4(r2)
 200add0:	16c00215 	stw	sp,8(r2)
 200add4:	e13ff104 	addi	r4,fp,-60
 200add8:	200d0800 	call	200d080 <_Unwind_SjLj_Register>
 200addc:	e13fee17 	ldw	r4,-72(fp)
 200ade0:	00bfffc4 	movi	r2,-1
 200ade4:	e0bff215 	stw	r2,-56(fp)
 200ade8:	2006df00 	call	2006df0 <_ZN11CCarMessageC2Ev>
 200adec:	00c08074 	movhi	r3,513
 200adf0:	18ca3304 	addi	r3,r3,10444
 200adf4:	e0bfee17 	ldw	r2,-72(fp)
 200adf8:	10c00015 	stw	r3,0(r2)
{
	parseHeader(pMessage, iLength);
 200adfc:	e13fee17 	ldw	r4,-72(fp)
 200ae00:	00800044 	movi	r2,1
 200ae04:	e0bff215 	stw	r2,-56(fp)
 200ae08:	e17fef17 	ldw	r5,-68(fp)
 200ae0c:	e1bff017 	ldw	r6,-64(fp)
 200ae10:	20071480 	call	2007148 <_ZN11CCarMessage11parseHeaderEPhi>
	if(m_bValid)
 200ae14:	e0bfee17 	ldw	r2,-72(fp)
 200ae18:	10800203 	ldbu	r2,8(r2)
 200ae1c:	10803fcc 	andi	r2,r2,255
 200ae20:	1005003a 	cmpeq	r2,r2,zero
 200ae24:	1000171e 	bne	r2,zero,200ae84 <_ZN15CWelcomeMessageC1EPhi+0x120>
	{
		m_bValid = false;
 200ae28:	e0bfee17 	ldw	r2,-72(fp)
 200ae2c:	10000205 	stb	zero,8(r2)
		parseMessage(pMessage+4, iLength-4);
 200ae30:	e0bfef17 	ldw	r2,-68(fp)
 200ae34:	11400104 	addi	r5,r2,4
 200ae38:	e0bff017 	ldw	r2,-64(fp)
 200ae3c:	11bfff04 	addi	r6,r2,-4
 200ae40:	e13fee17 	ldw	r4,-72(fp)
 200ae44:	200a6980 	call	200a698 <_ZN15CWelcomeMessage12parseMessageEPhi>
	}
}
 200ae48:	00000e06 	br	200ae84 <_ZN15CWelcomeMessageC1EPhi+0x120>
 200ae4c:	e7001204 	addi	fp,fp,72
 200ae50:	e0bff317 	ldw	r2,-52(fp)
 200ae54:	e0bfff15 	stw	r2,-4(fp)
 200ae58:	e0ffff17 	ldw	r3,-4(fp)
 200ae5c:	e0fffe15 	stw	r3,-8(fp)
 200ae60:	e13fee17 	ldw	r4,-72(fp)
 200ae64:	e03ff215 	stw	zero,-56(fp)
 200ae68:	20073b40 	call	20073b4 <_ZN11CCarMessageD2Ev>
 200ae6c:	e0bffe17 	ldw	r2,-8(fp)
 200ae70:	e0bfff15 	stw	r2,-4(fp)
 200ae74:	00bfffc4 	movi	r2,-1
 200ae78:	e0bff215 	stw	r2,-56(fp)
 200ae7c:	e13fff17 	ldw	r4,-4(fp)
 200ae80:	200d34c0 	call	200d34c <_Unwind_SjLj_Resume>
 200ae84:	e13ff104 	addi	r4,fp,-60
 200ae88:	200d0900 	call	200d090 <_Unwind_SjLj_Unregister>
 200ae8c:	e037883a 	mov	sp,fp
 200ae90:	dfc00917 	ldw	ra,36(sp)
 200ae94:	df000817 	ldw	fp,32(sp)
 200ae98:	ddc00717 	ldw	r23,28(sp)
 200ae9c:	dd800617 	ldw	r22,24(sp)
 200aea0:	dd400517 	ldw	r21,20(sp)
 200aea4:	dd000417 	ldw	r20,16(sp)
 200aea8:	dcc00317 	ldw	r19,12(sp)
 200aeac:	dc800217 	ldw	r18,8(sp)
 200aeb0:	dc400117 	ldw	r17,4(sp)
 200aeb4:	dc000017 	ldw	r16,0(sp)
 200aeb8:	dec00a04 	addi	sp,sp,40
 200aebc:	f800283a 	ret

0200aec0 <_ZN15CWelcomeMessageC2EPhi>:
 *      Author: Florian
 */

#include "WelcomeMessage.h"

CWelcomeMessage::CWelcomeMessage(alt_u8 *pMessage, int iLength)
 200aec0:	deffe404 	addi	sp,sp,-112
 200aec4:	dfc01b15 	stw	ra,108(sp)
 200aec8:	df001a15 	stw	fp,104(sp)
 200aecc:	ddc01915 	stw	r23,100(sp)
 200aed0:	dd801815 	stw	r22,96(sp)
 200aed4:	dd401715 	stw	r21,92(sp)
 200aed8:	dd001615 	stw	r20,88(sp)
 200aedc:	dcc01515 	stw	r19,84(sp)
 200aee0:	dc801415 	stw	r18,80(sp)
 200aee4:	dc401315 	stw	r17,76(sp)
 200aee8:	dc001215 	stw	r16,72(sp)
 200aeec:	df001204 	addi	fp,sp,72
 200aef0:	e13fee15 	stw	r4,-72(fp)
 200aef4:	e17fef15 	stw	r5,-68(fp)
 200aef8:	e1bff015 	stw	r6,-64(fp)
 200aefc:	00808074 	movhi	r2,513
 200af00:	10adca04 	addi	r2,r2,-18648
 200af04:	e0bff715 	stw	r2,-36(fp)
 200af08:	00808074 	movhi	r2,513
 200af0c:	10894d04 	addi	r2,r2,9524
 200af10:	e0bff815 	stw	r2,-32(fp)
 200af14:	e0bff904 	addi	r2,fp,-28
 200af18:	e0ffee04 	addi	r3,fp,-72
 200af1c:	10c00015 	stw	r3,0(r2)
 200af20:	00c08074 	movhi	r3,513
 200af24:	18ebea04 	addi	r3,r3,-20568
 200af28:	10c00115 	stw	r3,4(r2)
 200af2c:	16c00215 	stw	sp,8(r2)
 200af30:	e13ff104 	addi	r4,fp,-60
 200af34:	200d0800 	call	200d080 <_Unwind_SjLj_Register>
 200af38:	e13fee17 	ldw	r4,-72(fp)
 200af3c:	00bfffc4 	movi	r2,-1
 200af40:	e0bff215 	stw	r2,-56(fp)
 200af44:	2006df00 	call	2006df0 <_ZN11CCarMessageC2Ev>
 200af48:	00c08074 	movhi	r3,513
 200af4c:	18ca3304 	addi	r3,r3,10444
 200af50:	e0bfee17 	ldw	r2,-72(fp)
 200af54:	10c00015 	stw	r3,0(r2)
{
	parseHeader(pMessage, iLength);
 200af58:	e13fee17 	ldw	r4,-72(fp)
 200af5c:	00800044 	movi	r2,1
 200af60:	e0bff215 	stw	r2,-56(fp)
 200af64:	e17fef17 	ldw	r5,-68(fp)
 200af68:	e1bff017 	ldw	r6,-64(fp)
 200af6c:	20071480 	call	2007148 <_ZN11CCarMessage11parseHeaderEPhi>
	if(m_bValid)
 200af70:	e0bfee17 	ldw	r2,-72(fp)
 200af74:	10800203 	ldbu	r2,8(r2)
 200af78:	10803fcc 	andi	r2,r2,255
 200af7c:	1005003a 	cmpeq	r2,r2,zero
 200af80:	1000171e 	bne	r2,zero,200afe0 <_ZN15CWelcomeMessageC2EPhi+0x120>
	{
		m_bValid = false;
 200af84:	e0bfee17 	ldw	r2,-72(fp)
 200af88:	10000205 	stb	zero,8(r2)
		parseMessage(pMessage+4, iLength-4);
 200af8c:	e0bfef17 	ldw	r2,-68(fp)
 200af90:	11400104 	addi	r5,r2,4
 200af94:	e0bff017 	ldw	r2,-64(fp)
 200af98:	11bfff04 	addi	r6,r2,-4
 200af9c:	e13fee17 	ldw	r4,-72(fp)
 200afa0:	200a6980 	call	200a698 <_ZN15CWelcomeMessage12parseMessageEPhi>
	}
}
 200afa4:	00000e06 	br	200afe0 <_ZN15CWelcomeMessageC2EPhi+0x120>
 200afa8:	e7001204 	addi	fp,fp,72
 200afac:	e0bff317 	ldw	r2,-52(fp)
 200afb0:	e0bfff15 	stw	r2,-4(fp)
 200afb4:	e0ffff17 	ldw	r3,-4(fp)
 200afb8:	e0fffe15 	stw	r3,-8(fp)
 200afbc:	e13fee17 	ldw	r4,-72(fp)
 200afc0:	e03ff215 	stw	zero,-56(fp)
 200afc4:	20073b40 	call	20073b4 <_ZN11CCarMessageD2Ev>
 200afc8:	e0bffe17 	ldw	r2,-8(fp)
 200afcc:	e0bfff15 	stw	r2,-4(fp)
 200afd0:	00bfffc4 	movi	r2,-1
 200afd4:	e0bff215 	stw	r2,-56(fp)
 200afd8:	e13fff17 	ldw	r4,-4(fp)
 200afdc:	200d34c0 	call	200d34c <_Unwind_SjLj_Resume>
 200afe0:	e13ff104 	addi	r4,fp,-60
 200afe4:	200d0900 	call	200d090 <_Unwind_SjLj_Unregister>
 200afe8:	e037883a 	mov	sp,fp
 200afec:	dfc00917 	ldw	ra,36(sp)
 200aff0:	df000817 	ldw	fp,32(sp)
 200aff4:	ddc00717 	ldw	r23,28(sp)
 200aff8:	dd800617 	ldw	r22,24(sp)
 200affc:	dd400517 	ldw	r21,20(sp)
 200b000:	dd000417 	ldw	r20,16(sp)
 200b004:	dcc00317 	ldw	r19,12(sp)
 200b008:	dc800217 	ldw	r18,8(sp)
 200b00c:	dc400117 	ldw	r17,4(sp)
 200b010:	dc000017 	ldw	r16,0(sp)
 200b014:	dec00a04 	addi	sp,sp,40
 200b018:	f800283a 	ret

0200b01c <_Z12read_uleb128PKhPj>:
 200b01c:	000d883a 	mov	r6,zero
 200b020:	000f883a 	mov	r7,zero
 200b024:	20c00007 	ldb	r3,0(r4)
 200b028:	21000044 	addi	r4,r4,1
 200b02c:	18801fcc 	andi	r2,r3,127
 200b030:	1184983a 	sll	r2,r2,r6
 200b034:	318001c4 	addi	r6,r6,7
 200b038:	388eb03a 	or	r7,r7,r2
 200b03c:	183ff916 	blt	r3,zero,200b024 <_Z12read_uleb128PKhPj+0x8>
 200b040:	2005883a 	mov	r2,r4
 200b044:	29c00015 	stw	r7,0(r5)
 200b048:	f800283a 	ret

0200b04c <_Z12read_sleb128PKhPi>:
 200b04c:	000f883a 	mov	r7,zero
 200b050:	0011883a 	mov	r8,zero
 200b054:	20c00007 	ldb	r3,0(r4)
 200b058:	21000044 	addi	r4,r4,1
 200b05c:	19803fcc 	andi	r6,r3,255
 200b060:	30801fcc 	andi	r2,r6,127
 200b064:	11c4983a 	sll	r2,r2,r7
 200b068:	39c001c4 	addi	r7,r7,7
 200b06c:	4090b03a 	or	r8,r8,r2
 200b070:	183ff816 	blt	r3,zero,200b054 <_Z12read_sleb128PKhPi+0x8>
 200b074:	008007c4 	movi	r2,31
 200b078:	11c00636 	bltu	r2,r7,200b094 <_Z12read_sleb128PKhPi+0x48>
 200b07c:	3080100c 	andi	r2,r6,64
 200b080:	10000426 	beq	r2,zero,200b094 <_Z12read_sleb128PKhPi+0x48>
 200b084:	00800044 	movi	r2,1
 200b088:	11c4983a 	sll	r2,r2,r7
 200b08c:	0085c83a 	sub	r2,zero,r2
 200b090:	4090b03a 	or	r8,r8,r2
 200b094:	2005883a 	mov	r2,r4
 200b098:	2a000015 	stw	r8,0(r5)
 200b09c:	f800283a 	ret

0200b0a0 <_Z16get_adjusted_ptrPKSt9type_infoS1_PPv>:
 200b0a0:	28800017 	ldw	r2,0(r5)
 200b0a4:	defffb04 	addi	sp,sp,-20
 200b0a8:	30c00017 	ldw	r3,0(r6)
 200b0ac:	dc400215 	stw	r17,8(sp)
 200b0b0:	2823883a 	mov	r17,r5
 200b0b4:	11400217 	ldw	r5,8(r2)
 200b0b8:	dc800315 	stw	r18,12(sp)
 200b0bc:	dc000115 	stw	r16,4(sp)
 200b0c0:	dfc00415 	stw	ra,16(sp)
 200b0c4:	2021883a 	mov	r16,r4
 200b0c8:	d8c00015 	stw	r3,0(sp)
 200b0cc:	8809883a 	mov	r4,r17
 200b0d0:	3025883a 	mov	r18,r6
 200b0d4:	283ee83a 	callr	r5
 200b0d8:	10803fcc 	andi	r2,r2,255
 200b0dc:	880b883a 	mov	r5,r17
 200b0e0:	8009883a 	mov	r4,r16
 200b0e4:	d80d883a 	mov	r6,sp
 200b0e8:	01c00044 	movi	r7,1
 200b0ec:	10000326 	beq	r2,zero,200b0fc <_Z16get_adjusted_ptrPKSt9type_infoS1_PPv+0x5c>
 200b0f0:	d8800017 	ldw	r2,0(sp)
 200b0f4:	10c00017 	ldw	r3,0(r2)
 200b0f8:	d8c00015 	stw	r3,0(sp)
 200b0fc:	80800017 	ldw	r2,0(r16)
 200b100:	10c00417 	ldw	r3,16(r2)
 200b104:	183ee83a 	callr	r3
 200b108:	10803fcc 	andi	r2,r2,255
 200b10c:	0007883a 	mov	r3,zero
 200b110:	10000326 	beq	r2,zero,200b120 <_Z16get_adjusted_ptrPKSt9type_infoS1_PPv+0x80>
 200b114:	d8800017 	ldw	r2,0(sp)
 200b118:	00c00044 	movi	r3,1
 200b11c:	90800015 	stw	r2,0(r18)
 200b120:	1805883a 	mov	r2,r3
 200b124:	dfc00417 	ldw	ra,16(sp)
 200b128:	dc800317 	ldw	r18,12(sp)
 200b12c:	dc400217 	ldw	r17,8(sp)
 200b130:	dc000117 	ldw	r16,4(sp)
 200b134:	dec00504 	addi	sp,sp,20
 200b138:	f800283a 	ret

0200b13c <_Z28read_encoded_value_with_basehjPKhPj>:
 200b13c:	defff904 	addi	sp,sp,-28
 200b140:	dc400215 	stw	r17,8(sp)
 200b144:	00801404 	movi	r2,80
 200b148:	24403fcc 	andi	r17,r4,255
 200b14c:	dd000515 	stw	r20,20(sp)
 200b150:	dcc00415 	stw	r19,16(sp)
 200b154:	dc800315 	stw	r18,12(sp)
 200b158:	dc000115 	stw	r16,4(sp)
 200b15c:	dfc00615 	stw	ra,24(sp)
 200b160:	2025883a 	mov	r18,r4
 200b164:	2829883a 	mov	r20,r5
 200b168:	3021883a 	mov	r16,r6
 200b16c:	3827883a 	mov	r19,r7
 200b170:	88801826 	beq	r17,r2,200b1d4 <_Z28read_encoded_value_with_basehjPKhPj+0x98>
 200b174:	88c003cc 	andi	r3,r17,15
 200b178:	00800304 	movi	r2,12
 200b17c:	10c0012e 	bgeu	r2,r3,200b184 <_Z28read_encoded_value_with_basehjPKhPj+0x48>
 200b180:	200d5c80 	call	200d5c8 <abort>
 200b184:	18c5883a 	add	r2,r3,r3
 200b188:	1085883a 	add	r2,r2,r2
 200b18c:	00c08074 	movhi	r3,513
 200b190:	18ec6804 	addi	r3,r3,-20064
 200b194:	10c5883a 	add	r2,r2,r3
 200b198:	11000017 	ldw	r4,0(r2)
 200b19c:	2000683a 	jmp	r4
 200b1a0:	0200b210 	cmplti	r8,zero,712
 200b1a4:	0200b2f8 	rdprs	r8,zero,715
 200b1a8:	0200b2a4 	muli	r8,zero,714
 200b1ac:	0200b210 	cmplti	r8,zero,712
 200b1b0:	0200b268 	cmpgeui	r8,zero,713
 200b1b4:	0200b180 	call	200b18 <__alt_mem_sdram-0x1dff4e8>
 200b1b8:	0200b180 	call	200b18 <__alt_mem_sdram-0x1dff4e8>
 200b1bc:	0200b180 	call	200b18 <__alt_mem_sdram-0x1dff4e8>
 200b1c0:	0200b180 	call	200b18 <__alt_mem_sdram-0x1dff4e8>
 200b1c4:	0200b2e0 	cmpeqi	r8,zero,715
 200b1c8:	0200b2bc 	xorhi	r8,zero,714
 200b1cc:	0200b210 	cmplti	r8,zero,712
 200b1d0:	0200b268 	cmpgeui	r8,zero,713
 200b1d4:	308000c4 	addi	r2,r6,3
 200b1d8:	00ffff04 	movi	r3,-4
 200b1dc:	10c4703a 	and	r2,r2,r3
 200b1e0:	11000017 	ldw	r4,0(r2)
 200b1e4:	11400104 	addi	r5,r2,4
 200b1e8:	2805883a 	mov	r2,r5
 200b1ec:	99000015 	stw	r4,0(r19)
 200b1f0:	dfc00617 	ldw	ra,24(sp)
 200b1f4:	dd000517 	ldw	r20,20(sp)
 200b1f8:	dcc00417 	ldw	r19,16(sp)
 200b1fc:	dc800317 	ldw	r18,12(sp)
 200b200:	dc400217 	ldw	r17,8(sp)
 200b204:	dc000117 	ldw	r16,4(sp)
 200b208:	dec00704 	addi	sp,sp,28
 200b20c:	f800283a 	ret
 200b210:	30800043 	ldbu	r2,1(r6)
 200b214:	30c00083 	ldbu	r3,2(r6)
 200b218:	310000c3 	ldbu	r4,3(r6)
 200b21c:	31400003 	ldbu	r5,0(r6)
 200b220:	1004923a 	slli	r2,r2,8
 200b224:	1806943a 	slli	r3,r3,16
 200b228:	2008963a 	slli	r4,r4,24
 200b22c:	1144b03a 	or	r2,r2,r5
 200b230:	1886b03a 	or	r3,r3,r2
 200b234:	20c8b03a 	or	r4,r4,r3
 200b238:	31400104 	addi	r5,r6,4
 200b23c:	203fea26 	beq	r4,zero,200b1e8 <_Z28read_encoded_value_with_basehjPKhPj+0xac>
 200b240:	88c01c0c 	andi	r3,r17,112
 200b244:	00800404 	movi	r2,16
 200b248:	18801426 	beq	r3,r2,200b29c <_Z28read_encoded_value_with_basehjPKhPj+0x160>
 200b24c:	90803fcc 	andi	r2,r18,255
 200b250:	1080201c 	xori	r2,r2,128
 200b254:	10bfe004 	addi	r2,r2,-128
 200b258:	2509883a 	add	r4,r4,r20
 200b25c:	103fe20e 	bge	r2,zero,200b1e8 <_Z28read_encoded_value_with_basehjPKhPj+0xac>
 200b260:	21000017 	ldw	r4,0(r4)
 200b264:	003fe006 	br	200b1e8 <_Z28read_encoded_value_with_basehjPKhPj+0xac>
 200b268:	30800043 	ldbu	r2,1(r6)
 200b26c:	31800083 	ldbu	r6,2(r6)
 200b270:	820000c3 	ldbu	r8,3(r16)
 200b274:	1004923a 	slli	r2,r2,8
 200b278:	82400003 	ldbu	r9,0(r16)
 200b27c:	300c943a 	slli	r6,r6,16
 200b280:	4010963a 	slli	r8,r8,24
 200b284:	1244b03a 	or	r2,r2,r9
 200b288:	308cb03a 	or	r6,r6,r2
 200b28c:	4184b03a 	or	r2,r8,r6
 200b290:	1009883a 	mov	r4,r2
 200b294:	81400204 	addi	r5,r16,8
 200b298:	003fe806 	br	200b23c <_Z28read_encoded_value_with_basehjPKhPj+0x100>
 200b29c:	8029883a 	mov	r20,r16
 200b2a0:	003fea06 	br	200b24c <_Z28read_encoded_value_with_basehjPKhPj+0x110>
 200b2a4:	30800043 	ldbu	r2,1(r6)
 200b2a8:	30c00003 	ldbu	r3,0(r6)
 200b2ac:	31400084 	addi	r5,r6,2
 200b2b0:	1004923a 	slli	r2,r2,8
 200b2b4:	10c8b03a 	or	r4,r2,r3
 200b2b8:	003fe006 	br	200b23c <_Z28read_encoded_value_with_basehjPKhPj+0x100>
 200b2bc:	30800043 	ldbu	r2,1(r6)
 200b2c0:	30c00003 	ldbu	r3,0(r6)
 200b2c4:	31400084 	addi	r5,r6,2
 200b2c8:	1004923a 	slli	r2,r2,8
 200b2cc:	10c4b03a 	or	r2,r2,r3
 200b2d0:	113fffcc 	andi	r4,r2,65535
 200b2d4:	2120001c 	xori	r4,r4,32768
 200b2d8:	21200004 	addi	r4,r4,-32768
 200b2dc:	003fd706 	br	200b23c <_Z28read_encoded_value_with_basehjPKhPj+0x100>
 200b2e0:	3009883a 	mov	r4,r6
 200b2e4:	d80b883a 	mov	r5,sp
 200b2e8:	200b04c0 	call	200b04c <_Z12read_sleb128PKhPi>
 200b2ec:	d9000017 	ldw	r4,0(sp)
 200b2f0:	100b883a 	mov	r5,r2
 200b2f4:	003fd106 	br	200b23c <_Z28read_encoded_value_with_basehjPKhPj+0x100>
 200b2f8:	3009883a 	mov	r4,r6
 200b2fc:	d80b883a 	mov	r5,sp
 200b300:	200b01c0 	call	200b01c <_Z12read_uleb128PKhPj>
 200b304:	d9000017 	ldw	r4,0(sp)
 200b308:	100b883a 	mov	r5,r2
 200b30c:	003fcb06 	br	200b23c <_Z28read_encoded_value_with_basehjPKhPj+0x100>

0200b310 <_Z21base_of_encoded_valuehP15_Unwind_Context>:
 200b310:	deffff04 	addi	sp,sp,-4
 200b314:	21003fcc 	andi	r4,r4,255
 200b318:	00803fc4 	movi	r2,255
 200b31c:	dfc00015 	stw	ra,0(sp)
 200b320:	20800c26 	beq	r4,r2,200b354 <_Z21base_of_encoded_valuehP15_Unwind_Context+0x44>
 200b324:	21001c0c 	andi	r4,r4,112
 200b328:	00800804 	movi	r2,32
 200b32c:	20800d26 	beq	r4,r2,200b364 <_Z21base_of_encoded_valuehP15_Unwind_Context+0x54>
 200b330:	1100070e 	bge	r2,r4,200b350 <_Z21base_of_encoded_valuehP15_Unwind_Context+0x40>
 200b334:	00801004 	movi	r2,64
 200b338:	20801126 	beq	r4,r2,200b380 <_Z21base_of_encoded_valuehP15_Unwind_Context+0x70>
 200b33c:	00801404 	movi	r2,80
 200b340:	20800426 	beq	r4,r2,200b354 <_Z21base_of_encoded_valuehP15_Unwind_Context+0x44>
 200b344:	00800c04 	movi	r2,48
 200b348:	20801126 	beq	r4,r2,200b390 <_Z21base_of_encoded_valuehP15_Unwind_Context+0x80>
 200b34c:	200d5c80 	call	200d5c8 <abort>
 200b350:	2000081e 	bne	r4,zero,200b374 <_Z21base_of_encoded_valuehP15_Unwind_Context+0x64>
 200b354:	0005883a 	mov	r2,zero
 200b358:	dfc00017 	ldw	ra,0(sp)
 200b35c:	dec00104 	addi	sp,sp,4
 200b360:	f800283a 	ret
 200b364:	2809883a 	mov	r4,r5
 200b368:	dfc00017 	ldw	ra,0(sp)
 200b36c:	dec00104 	addi	sp,sp,4
 200b370:	200d1381 	jmpi	200d138 <_Unwind_GetTextRelBase>
 200b374:	00800404 	movi	r2,16
 200b378:	20bff626 	beq	r4,r2,200b354 <_Z21base_of_encoded_valuehP15_Unwind_Context+0x44>
 200b37c:	200d5c80 	call	200d5c8 <abort>
 200b380:	2809883a 	mov	r4,r5
 200b384:	dfc00017 	ldw	ra,0(sp)
 200b388:	dec00104 	addi	sp,sp,4
 200b38c:	200d1201 	jmpi	200d120 <_Unwind_GetRegionStart>
 200b390:	2809883a 	mov	r4,r5
 200b394:	dfc00017 	ldw	ra,0(sp)
 200b398:	dec00104 	addi	sp,sp,4
 200b39c:	200d1301 	jmpi	200d130 <_Unwind_GetDataRelBase>

0200b3a0 <_Z17parse_lsda_headerP15_Unwind_ContextPKhP16lsda_header_info>:
 200b3a0:	defffa04 	addi	sp,sp,-24
 200b3a4:	dc800415 	stw	r18,16(sp)
 200b3a8:	dc400315 	stw	r17,12(sp)
 200b3ac:	dc000215 	stw	r16,8(sp)
 200b3b0:	dfc00515 	stw	ra,20(sp)
 200b3b4:	2021883a 	mov	r16,r4
 200b3b8:	000f883a 	mov	r7,zero
 200b3bc:	3023883a 	mov	r17,r6
 200b3c0:	2825883a 	mov	r18,r5
 200b3c4:	20000226 	beq	r4,zero,200b3d0 <_Z17parse_lsda_headerP15_Unwind_ContextPKhP16lsda_header_info+0x30>
 200b3c8:	200d1200 	call	200d120 <_Unwind_GetRegionStart>
 200b3cc:	100f883a 	mov	r7,r2
 200b3d0:	89c00015 	stw	r7,0(r17)
 200b3d4:	90c00003 	ldbu	r3,0(r18)
 200b3d8:	800b883a 	mov	r5,r16
 200b3dc:	00803fc4 	movi	r2,255
 200b3e0:	1c003fcc 	andi	r16,r3,255
 200b3e4:	91800044 	addi	r6,r18,1
 200b3e8:	8009883a 	mov	r4,r16
 200b3ec:	18802226 	beq	r3,r2,200b478 <_Z17parse_lsda_headerP15_Unwind_ContextPKhP16lsda_header_info+0xd8>
 200b3f0:	d9800115 	stw	r6,4(sp)
 200b3f4:	200b3100 	call	200b310 <_Z21base_of_encoded_valuehP15_Unwind_Context>
 200b3f8:	d9800117 	ldw	r6,4(sp)
 200b3fc:	8009883a 	mov	r4,r16
 200b400:	100b883a 	mov	r5,r2
 200b404:	89c00104 	addi	r7,r17,4
 200b408:	200b13c0 	call	200b13c <_Z28read_encoded_value_with_basehjPKhPj>
 200b40c:	100d883a 	mov	r6,r2
 200b410:	30800003 	ldbu	r2,0(r6)
 200b414:	31c00044 	addi	r7,r6,1
 200b418:	00c03fc4 	movi	r3,255
 200b41c:	d80b883a 	mov	r5,sp
 200b420:	3809883a 	mov	r4,r7
 200b424:	88800505 	stb	r2,20(r17)
 200b428:	10c01b26 	beq	r2,r3,200b498 <_Z17parse_lsda_headerP15_Unwind_ContextPKhP16lsda_header_info+0xf8>
 200b42c:	200b01c0 	call	200b01c <_Z12read_uleb128PKhPj>
 200b430:	100f883a 	mov	r7,r2
 200b434:	d8800017 	ldw	r2,0(sp)
 200b438:	3885883a 	add	r2,r7,r2
 200b43c:	88800315 	stw	r2,12(r17)
 200b440:	38800003 	ldbu	r2,0(r7)
 200b444:	39000044 	addi	r4,r7,1
 200b448:	d80b883a 	mov	r5,sp
 200b44c:	88800545 	stb	r2,21(r17)
 200b450:	200b01c0 	call	200b01c <_Z12read_uleb128PKhPj>
 200b454:	d8c00017 	ldw	r3,0(sp)
 200b458:	10c9883a 	add	r4,r2,r3
 200b45c:	89000415 	stw	r4,16(r17)
 200b460:	dfc00517 	ldw	ra,20(sp)
 200b464:	dc800417 	ldw	r18,16(sp)
 200b468:	dc400317 	ldw	r17,12(sp)
 200b46c:	dc000217 	ldw	r16,8(sp)
 200b470:	dec00604 	addi	sp,sp,24
 200b474:	f800283a 	ret
 200b478:	89c00115 	stw	r7,4(r17)
 200b47c:	30800003 	ldbu	r2,0(r6)
 200b480:	31c00044 	addi	r7,r6,1
 200b484:	00c03fc4 	movi	r3,255
 200b488:	d80b883a 	mov	r5,sp
 200b48c:	3809883a 	mov	r4,r7
 200b490:	88800505 	stb	r2,20(r17)
 200b494:	10ffe51e 	bne	r2,r3,200b42c <_Z17parse_lsda_headerP15_Unwind_ContextPKhP16lsda_header_info+0x8c>
 200b498:	88000315 	stw	zero,12(r17)
 200b49c:	003fe806 	br	200b440 <_Z17parse_lsda_headerP15_Unwind_ContextPKhP16lsda_header_info+0xa0>

0200b4a0 <_Z15get_ttype_entryP16lsda_header_infoj>:
 200b4a0:	defffe04 	addi	sp,sp,-8
 200b4a4:	dfc00115 	stw	ra,4(sp)
 200b4a8:	21c00503 	ldbu	r7,20(r4)
 200b4ac:	00803fc4 	movi	r2,255
 200b4b0:	38801a26 	beq	r7,r2,200b51c <_Z15get_ttype_entryP16lsda_header_infoj+0x7c>
 200b4b4:	38c001cc 	andi	r3,r7,7
 200b4b8:	00800084 	movi	r2,2
 200b4bc:	18801326 	beq	r3,r2,200b50c <_Z15get_ttype_entryP16lsda_header_infoj+0x6c>
 200b4c0:	10c0050e 	bge	r2,r3,200b4d8 <_Z15get_ttype_entryP16lsda_header_infoj+0x38>
 200b4c4:	008000c4 	movi	r2,3
 200b4c8:	18800426 	beq	r3,r2,200b4dc <_Z15get_ttype_entryP16lsda_header_infoj+0x3c>
 200b4cc:	00800104 	movi	r2,4
 200b4d0:	18801026 	beq	r3,r2,200b514 <_Z15get_ttype_entryP16lsda_header_infoj+0x74>
 200b4d4:	200d5c80 	call	200d5c8 <abort>
 200b4d8:	183ffe1e 	bne	r3,zero,200b4d4 <_Z15get_ttype_entryP16lsda_header_infoj+0x34>
 200b4dc:	2945883a 	add	r2,r5,r5
 200b4e0:	1085883a 	add	r2,r2,r2
 200b4e4:	21800317 	ldw	r6,12(r4)
 200b4e8:	21400217 	ldw	r5,8(r4)
 200b4ec:	3809883a 	mov	r4,r7
 200b4f0:	308dc83a 	sub	r6,r6,r2
 200b4f4:	d80f883a 	mov	r7,sp
 200b4f8:	200b13c0 	call	200b13c <_Z28read_encoded_value_with_basehjPKhPj>
 200b4fc:	d8800017 	ldw	r2,0(sp)
 200b500:	dfc00117 	ldw	ra,4(sp)
 200b504:	dec00204 	addi	sp,sp,8
 200b508:	f800283a 	ret
 200b50c:	2945883a 	add	r2,r5,r5
 200b510:	003ff406 	br	200b4e4 <_Z15get_ttype_entryP16lsda_header_infoj+0x44>
 200b514:	280490fa 	slli	r2,r5,3
 200b518:	003ff206 	br	200b4e4 <_Z15get_ttype_entryP16lsda_header_infoj+0x44>
 200b51c:	0005883a 	mov	r2,zero
 200b520:	003ff006 	br	200b4e4 <_Z15get_ttype_entryP16lsda_header_infoj+0x44>

0200b524 <_Z20check_exception_specP16lsda_header_infoPKSt9type_infoPvi>:
 200b524:	20800317 	ldw	r2,12(r4)
 200b528:	defffa04 	addi	sp,sp,-24
 200b52c:	dc800415 	stw	r18,16(sp)
 200b530:	11c5c83a 	sub	r2,r2,r7
 200b534:	dc400315 	stw	r17,12(sp)
 200b538:	dc000215 	stw	r16,8(sp)
 200b53c:	dfc00515 	stw	ra,20(sp)
 200b540:	2023883a 	mov	r17,r4
 200b544:	d9800115 	stw	r6,4(sp)
 200b548:	2825883a 	mov	r18,r5
 200b54c:	143fffc4 	addi	r16,r2,-1
 200b550:	8009883a 	mov	r4,r16
 200b554:	d80b883a 	mov	r5,sp
 200b558:	200b01c0 	call	200b01c <_Z12read_uleb128PKhPj>
 200b55c:	1021883a 	mov	r16,r2
 200b560:	d8800017 	ldw	r2,0(sp)
 200b564:	8809883a 	mov	r4,r17
 200b568:	100b883a 	mov	r5,r2
 200b56c:	10000826 	beq	r2,zero,200b590 <_Z20check_exception_specP16lsda_header_infoPKSt9type_infoPvi+0x6c>
 200b570:	200b4a00 	call	200b4a0 <_Z15get_ttype_entryP16lsda_header_infoj>
 200b574:	1009883a 	mov	r4,r2
 200b578:	900b883a 	mov	r5,r18
 200b57c:	d9800104 	addi	r6,sp,4
 200b580:	200b0a00 	call	200b0a0 <_Z16get_adjusted_ptrPKSt9type_infoS1_PPv>
 200b584:	10803fcc 	andi	r2,r2,255
 200b588:	103ff126 	beq	r2,zero,200b550 <_Z20check_exception_specP16lsda_header_infoPKSt9type_infoPvi+0x2c>
 200b58c:	00800044 	movi	r2,1
 200b590:	dfc00517 	ldw	ra,20(sp)
 200b594:	dc800417 	ldw	r18,16(sp)
 200b598:	dc400317 	ldw	r17,12(sp)
 200b59c:	dc000217 	ldw	r16,8(sp)
 200b5a0:	dec00604 	addi	sp,sp,24
 200b5a4:	f800283a 	ret

0200b5a8 <__cxa_call_unexpected>:
 200b5a8:	deffe204 	addi	sp,sp,-120
 200b5ac:	00808074 	movhi	r2,513
 200b5b0:	10adca04 	addi	r2,r2,-18648
 200b5b4:	00c08074 	movhi	r3,513
 200b5b8:	18c94f04 	addi	r3,r3,9532
 200b5bc:	d8800c15 	stw	r2,48(sp)
 200b5c0:	d9001815 	stw	r4,96(sp)
 200b5c4:	00808074 	movhi	r2,513
 200b5c8:	10ad8c04 	addi	r2,r2,-18896
 200b5cc:	d9000604 	addi	r4,sp,24
 200b5d0:	d8c00d15 	stw	r3,52(sp)
 200b5d4:	dfc01d15 	stw	ra,116(sp)
 200b5d8:	d8800f15 	stw	r2,60(sp)
 200b5dc:	df001c15 	stw	fp,112(sp)
 200b5e0:	ddc01b15 	stw	r23,108(sp)
 200b5e4:	dec00e15 	stw	sp,56(sp)
 200b5e8:	dec01015 	stw	sp,64(sp)
 200b5ec:	200d0800 	call	200d080 <_Unwind_SjLj_Register>
 200b5f0:	d9001817 	ldw	r4,96(sp)
 200b5f4:	200c6cc0 	call	200c6cc <__cxa_begin_catch>
 200b5f8:	d8801817 	ldw	r2,96(sp)
 200b5fc:	10fff504 	addi	r3,r2,-44
 200b600:	18800917 	ldw	r2,36(r3)
 200b604:	19400617 	ldw	r5,24(r3)
 200b608:	19000217 	ldw	r4,8(r3)
 200b60c:	d8800215 	stw	r2,8(sp)
 200b610:	18800817 	ldw	r2,32(r3)
 200b614:	18c00317 	ldw	r3,12(r3)
 200b618:	d9401615 	stw	r5,88(sp)
 200b61c:	d8801715 	stw	r2,92(sp)
 200b620:	00800084 	movi	r2,2
 200b624:	d8c01515 	stw	r3,84(sp)
 200b628:	d8800715 	stw	r2,28(sp)
 200b62c:	200c5680 	call	200c568 <_ZN10__cxxabiv112__unexpectedEPFvvE>
 200b630:	d8800717 	ldw	r2,28(sp)
 200b634:	d8c00817 	ldw	r3,32(sp)
 200b638:	d8801a15 	stw	r2,104(sp)
 200b63c:	d9401a17 	ldw	r5,104(sp)
 200b640:	00800044 	movi	r2,1
 200b644:	d8c01915 	stw	r3,100(sp)
 200b648:	28800826 	beq	r5,r2,200b66c <__cxa_call_unexpected+0xc4>
 200b64c:	d8000715 	stw	zero,28(sp)
 200b650:	200c6280 	call	200c628 <__cxa_end_catch>
 200b654:	d8000715 	stw	zero,28(sp)
 200b658:	200c6280 	call	200c628 <__cxa_end_catch>
 200b65c:	d9001917 	ldw	r4,100(sp)
 200b660:	00bfffc4 	movi	r2,-1
 200b664:	d8800715 	stw	r2,28(sp)
 200b668:	200d34c0 	call	200d34c <_Unwind_SjLj_Resume>
 200b66c:	d9001917 	ldw	r4,100(sp)
 200b670:	200c6cc0 	call	200c6cc <__cxa_begin_catch>
 200b674:	200c5900 	call	200c590 <__cxa_get_globals_fast>
 200b678:	10800017 	ldw	r2,0(r2)
 200b67c:	d8c01a17 	ldw	r3,104(sp)
 200b680:	0009883a 	mov	r4,zero
 200b684:	11401004 	addi	r5,r2,64
 200b688:	d9401315 	stw	r5,76(sp)
 200b68c:	d8801415 	stw	r2,80(sp)
 200b690:	d8c00715 	stw	r3,28(sp)
 200b694:	d9401717 	ldw	r5,92(sp)
 200b698:	d80d883a 	mov	r6,sp
 200b69c:	200b3a00 	call	200b3a0 <_Z17parse_lsda_headerP15_Unwind_ContextPKhP16lsda_header_info>
 200b6a0:	d8801417 	ldw	r2,80(sp)
 200b6a4:	d809883a 	mov	r4,sp
 200b6a8:	d9801317 	ldw	r6,76(sp)
 200b6ac:	11400017 	ldw	r5,0(r2)
 200b6b0:	d9c01617 	ldw	r7,88(sp)
 200b6b4:	200b5240 	call	200b524 <_Z20check_exception_specP16lsda_header_infoPKSt9type_infoPvi>
 200b6b8:	10803fcc 	andi	r2,r2,255
 200b6bc:	1000151e 	bne	r2,zero,200b714 <__cxa_call_unexpected+0x16c>
 200b6c0:	d8c01a17 	ldw	r3,104(sp)
 200b6c4:	d809883a 	mov	r4,sp
 200b6c8:	01408074 	movhi	r5,513
 200b6cc:	294a4f04 	addi	r5,r5,10556
 200b6d0:	d8c00715 	stw	r3,28(sp)
 200b6d4:	000d883a 	mov	r6,zero
 200b6d8:	d9c01617 	ldw	r7,88(sp)
 200b6dc:	200b5240 	call	200b524 <_Z20check_exception_specP16lsda_header_infoPKSt9type_infoPvi>
 200b6e0:	10803fcc 	andi	r2,r2,255
 200b6e4:	10000c26 	beq	r2,zero,200b718 <__cxa_call_unexpected+0x170>
 200b6e8:	01000104 	movi	r4,4
 200b6ec:	200c1b00 	call	200c1b0 <__cxa_allocate_exception>
 200b6f0:	1009883a 	mov	r4,r2
 200b6f4:	00808074 	movhi	r2,513
 200b6f8:	108a4204 	addi	r2,r2,10504
 200b6fc:	20800015 	stw	r2,0(r4)
 200b700:	01408074 	movhi	r5,513
 200b704:	294a4f04 	addi	r5,r5,10556
 200b708:	01808074 	movhi	r6,513
 200b70c:	31af1f04 	addi	r6,r6,-17284
 200b710:	200c3b00 	call	200c3b0 <__cxa_throw>
 200b714:	200c33c0 	call	200c33c <__cxa_rethrow>
 200b718:	d9401a17 	ldw	r5,104(sp)
 200b71c:	d9001517 	ldw	r4,84(sp)
 200b720:	d9400715 	stw	r5,28(sp)
 200b724:	200c4ac0 	call	200c4ac <_ZN10__cxxabiv111__terminateEPFvvE>

0200b728 <__gxx_personality_sj0>:
 200b728:	deffd304 	addi	sp,sp,-180
 200b72c:	00808074 	movhi	r2,513
 200b730:	10aef104 	addi	r2,r2,-17468
 200b734:	00c08074 	movhi	r3,513
 200b738:	18c95304 	addi	r3,r3,9548
 200b73c:	d8801315 	stw	r2,76(sp)
 200b740:	d9002315 	stw	r4,140(sp)
 200b744:	00808074 	movhi	r2,513
 200b748:	10adca04 	addi	r2,r2,-18648
 200b74c:	d9000a04 	addi	r4,sp,40
 200b750:	d8801015 	stw	r2,64(sp)
 200b754:	d8c01115 	stw	r3,68(sp)
 200b758:	dfc02c15 	stw	ra,176(sp)
 200b75c:	df002b15 	stw	fp,172(sp)
 200b760:	ddc02a15 	stw	r23,168(sp)
 200b764:	dec01215 	stw	sp,72(sp)
 200b768:	dec01415 	stw	sp,80(sp)
 200b76c:	d9802515 	stw	r6,148(sp)
 200b770:	d9402415 	stw	r5,144(sp)
 200b774:	d9c02615 	stw	r7,152(sp)
 200b778:	200d0800 	call	200d080 <_Unwind_SjLj_Register>
 200b77c:	d8c02317 	ldw	r3,140(sp)
 200b780:	00800044 	movi	r2,1
 200b784:	18800a26 	beq	r3,r2,200b7b0 <__gxx_personality_sj0+0x88>
 200b788:	010000c4 	movi	r4,3
 200b78c:	d9002215 	stw	r4,136(sp)
 200b790:	d9000a04 	addi	r4,sp,40
 200b794:	200d0900 	call	200d090 <_Unwind_SjLj_Unregister>
 200b798:	d8802217 	ldw	r2,136(sp)
 200b79c:	dfc02c17 	ldw	ra,176(sp)
 200b7a0:	df002b17 	ldw	fp,172(sp)
 200b7a4:	ddc02a17 	ldw	r23,168(sp)
 200b7a8:	dec02d04 	addi	sp,sp,180
 200b7ac:	f800283a 	ret
 200b7b0:	d9402d17 	ldw	r5,180(sp)
 200b7b4:	d9002517 	ldw	r4,148(sp)
 200b7b8:	0007883a 	mov	r3,zero
 200b7bc:	28800504 	addi	r2,r5,20
 200b7c0:	d8800015 	stw	r2,0(sp)
 200b7c4:	28bff504 	addi	r2,r5,-44
 200b7c8:	d8801a15 	stw	r2,104(sp)
 200b7cc:	0090caf4 	movhi	r2,17195
 200b7d0:	108ac004 	addi	r2,r2,11008
 200b7d4:	2080ad26 	beq	r4,r2,200ba8c <__gxx_personality_sj0+0x364>
 200b7d8:	d8c02105 	stb	r3,132(sp)
 200b7dc:	d8c02417 	ldw	r3,144(sp)
 200b7e0:	00800184 	movi	r2,6
 200b7e4:	1880281e 	bne	r3,r2,200b888 <__gxx_personality_sj0+0x160>
 200b7e8:	d8802103 	ldbu	r2,132(sp)
 200b7ec:	10002626 	beq	r2,zero,200b888 <__gxx_personality_sj0+0x160>
 200b7f0:	d9001a17 	ldw	r4,104(sp)
 200b7f4:	d9401a17 	ldw	r5,104(sp)
 200b7f8:	d8801a17 	ldw	r2,104(sp)
 200b7fc:	21000917 	ldw	r4,36(r4)
 200b800:	29400617 	ldw	r5,24(r5)
 200b804:	10800817 	ldw	r2,32(r2)
 200b808:	d9001d15 	stw	r4,116(sp)
 200b80c:	d9401b15 	stw	r5,108(sp)
 200b810:	d8802015 	stw	r2,128(sp)
 200b814:	2000ad1e 	bne	r4,zero,200bacc <__gxx_personality_sj0+0x3a4>
 200b818:	01000044 	movi	r4,1
 200b81c:	00800044 	movi	r2,1
 200b820:	2080e126 	beq	r4,r2,200bba8 <__gxx_personality_sj0+0x480>
 200b824:	d8801b17 	ldw	r2,108(sp)
 200b828:	1000d316 	blt	r2,zero,200bb78 <__gxx_personality_sj0+0x450>
 200b82c:	d9802d17 	ldw	r6,180(sp)
 200b830:	d9002e17 	ldw	r4,184(sp)
 200b834:	00bfffc4 	movi	r2,-1
 200b838:	000b883a 	mov	r5,zero
 200b83c:	d8800b15 	stw	r2,44(sp)
 200b840:	200d0c80 	call	200d0c8 <_Unwind_SetGR>
 200b844:	d9801b17 	ldw	r6,108(sp)
 200b848:	d9002e17 	ldw	r4,184(sp)
 200b84c:	01400044 	movi	r5,1
 200b850:	200d0c80 	call	200d0c8 <_Unwind_SetGR>
 200b854:	d9002e17 	ldw	r4,184(sp)
 200b858:	d9401d17 	ldw	r5,116(sp)
 200b85c:	200d1040 	call	200d104 <_Unwind_SetIP>
 200b860:	010001c4 	movi	r4,7
 200b864:	d9002215 	stw	r4,136(sp)
 200b868:	d9000a04 	addi	r4,sp,40
 200b86c:	200d0900 	call	200d090 <_Unwind_SjLj_Unregister>
 200b870:	d8802217 	ldw	r2,136(sp)
 200b874:	dfc02c17 	ldw	ra,176(sp)
 200b878:	df002b17 	ldw	fp,172(sp)
 200b87c:	ddc02a17 	ldw	r23,168(sp)
 200b880:	dec02d04 	addi	sp,sp,180
 200b884:	f800283a 	ret
 200b888:	d9002e17 	ldw	r4,184(sp)
 200b88c:	00ffffc4 	movi	r3,-1
 200b890:	d8c00b15 	stw	r3,44(sp)
 200b894:	200d1140 	call	200d114 <_Unwind_GetLanguageSpecificData>
 200b898:	10007226 	beq	r2,zero,200ba64 <__gxx_personality_sj0+0x33c>
 200b89c:	d9002e17 	ldw	r4,184(sp)
 200b8a0:	d9800404 	addi	r6,sp,16
 200b8a4:	100b883a 	mov	r5,r2
 200b8a8:	d8802015 	stw	r2,128(sp)
 200b8ac:	200b3a00 	call	200b3a0 <_Z17parse_lsda_headerP15_Unwind_ContextPKhP16lsda_header_info>
 200b8b0:	d9000903 	ldbu	r4,36(sp)
 200b8b4:	d9402e17 	ldw	r5,184(sp)
 200b8b8:	d8801e15 	stw	r2,120(sp)
 200b8bc:	200b3100 	call	200b310 <_Z21base_of_encoded_valuehP15_Unwind_Context>
 200b8c0:	d9002e17 	ldw	r4,184(sp)
 200b8c4:	d8800615 	stw	r2,24(sp)
 200b8c8:	200d0e00 	call	200d0e0 <_Unwind_GetIP>
 200b8cc:	10bfffc4 	addi	r2,r2,-1
 200b8d0:	d8801c15 	stw	r2,112(sp)
 200b8d4:	10006316 	blt	r2,zero,200ba64 <__gxx_personality_sj0+0x33c>
 200b8d8:	10001b1e 	bne	r2,zero,200b948 <__gxx_personality_sj0+0x220>
 200b8dc:	01000044 	movi	r4,1
 200b8e0:	d8001f15 	stw	zero,124(sp)
 200b8e4:	d8001d15 	stw	zero,116(sp)
 200b8e8:	d8001b15 	stw	zero,108(sp)
 200b8ec:	d9402417 	ldw	r5,144(sp)
 200b8f0:	00c00044 	movi	r3,1
 200b8f4:	28c4703a 	and	r2,r5,r3
 200b8f8:	1005003a 	cmpeq	r2,r2,zero
 200b8fc:	10006a1e 	bne	r2,zero,200baa8 <__gxx_personality_sj0+0x380>
 200b900:	00800084 	movi	r2,2
 200b904:	20805726 	beq	r4,r2,200ba64 <__gxx_personality_sj0+0x33c>
 200b908:	d8802103 	ldbu	r2,132(sp)
 200b90c:	10008626 	beq	r2,zero,200bb28 <__gxx_personality_sj0+0x400>
 200b910:	d9001a17 	ldw	r4,104(sp)
 200b914:	d9401d17 	ldw	r5,116(sp)
 200b918:	d8801b17 	ldw	r2,108(sp)
 200b91c:	00c00184 	movi	r3,6
 200b920:	d8c02215 	stw	r3,136(sp)
 200b924:	21400915 	stw	r5,36(r4)
 200b928:	20800615 	stw	r2,24(r4)
 200b92c:	d8c01f17 	ldw	r3,124(sp)
 200b930:	d9402017 	ldw	r5,128(sp)
 200b934:	d8800017 	ldw	r2,0(sp)
 200b938:	20c00715 	stw	r3,28(r4)
 200b93c:	21400815 	stw	r5,32(r4)
 200b940:	20800a15 	stw	r2,40(r4)
 200b944:	003f9206 	br	200b790 <__gxx_personality_sj0+0x68>
 200b948:	d9001e17 	ldw	r4,120(sp)
 200b94c:	d9400204 	addi	r5,sp,8
 200b950:	200b01c0 	call	200b01c <_Z12read_uleb128PKhPj>
 200b954:	d9401c17 	ldw	r5,112(sp)
 200b958:	1009883a 	mov	r4,r2
 200b95c:	297fffc4 	addi	r5,r5,-1
 200b960:	d9401c15 	stw	r5,112(sp)
 200b964:	d9400104 	addi	r5,sp,4
 200b968:	200b01c0 	call	200b01c <_Z12read_uleb128PKhPj>
 200b96c:	d8801e15 	stw	r2,120(sp)
 200b970:	d8801c17 	ldw	r2,112(sp)
 200b974:	103ff41e 	bne	r2,zero,200b948 <__gxx_personality_sj0+0x220>
 200b978:	d8800217 	ldw	r2,8(sp)
 200b97c:	d8c00117 	ldw	r3,4(sp)
 200b980:	01000044 	movi	r4,1
 200b984:	1105883a 	add	r2,r2,r4
 200b988:	d8801d15 	stw	r2,116(sp)
 200b98c:	1800541e 	bne	r3,zero,200bae0 <__gxx_personality_sj0+0x3b8>
 200b990:	d8001f15 	stw	zero,124(sp)
 200b994:	d8c01d17 	ldw	r3,116(sp)
 200b998:	18003226 	beq	r3,zero,200ba64 <__gxx_personality_sj0+0x33c>
 200b99c:	d9001f17 	ldw	r4,124(sp)
 200b9a0:	20007226 	beq	r4,zero,200bb6c <__gxx_personality_sj0+0x444>
 200b9a4:	d9402417 	ldw	r5,144(sp)
 200b9a8:	2880020c 	andi	r2,r5,8
 200b9ac:	10006a1e 	bne	r2,zero,200bb58 <__gxx_personality_sj0+0x430>
 200b9b0:	d8802103 	ldbu	r2,132(sp)
 200b9b4:	10006826 	beq	r2,zero,200bb58 <__gxx_personality_sj0+0x430>
 200b9b8:	d8801a17 	ldw	r2,104(sp)
 200b9bc:	10800017 	ldw	r2,0(r2)
 200b9c0:	d8801915 	stw	r2,100(sp)
 200b9c4:	d8c01917 	ldw	r3,100(sp)
 200b9c8:	d8001805 	stb	zero,96(sp)
 200b9cc:	1807003a 	cmpeq	r3,r3,zero
 200b9d0:	d8c02715 	stw	r3,156(sp)
 200b9d4:	00000706 	br	200b9f4 <__gxx_personality_sj0+0x2cc>
 200b9d8:	01000044 	movi	r4,1
 200b9dc:	d9001805 	stb	r4,96(sp)
 200b9e0:	d8800217 	ldw	r2,8(sp)
 200b9e4:	10005e26 	beq	r2,zero,200bb60 <__gxx_personality_sj0+0x438>
 200b9e8:	d8c01717 	ldw	r3,92(sp)
 200b9ec:	1885883a 	add	r2,r3,r2
 200b9f0:	d8801f15 	stw	r2,124(sp)
 200b9f4:	d9001f17 	ldw	r4,124(sp)
 200b9f8:	d9400104 	addi	r5,sp,4
 200b9fc:	200b04c0 	call	200b04c <_Z12read_sleb128PKhPi>
 200ba00:	1009883a 	mov	r4,r2
 200ba04:	d9400204 	addi	r5,sp,8
 200ba08:	d8801715 	stw	r2,92(sp)
 200ba0c:	200b04c0 	call	200b04c <_Z12read_sleb128PKhPi>
 200ba10:	d8800117 	ldw	r2,4(sp)
 200ba14:	103ff026 	beq	r2,zero,200b9d8 <__gxx_personality_sj0+0x2b0>
 200ba18:	0080360e 	bge	zero,r2,200baf4 <__gxx_personality_sj0+0x3cc>
 200ba1c:	017fffc4 	movi	r5,-1
 200ba20:	d9400b15 	stw	r5,44(sp)
 200ba24:	d9000404 	addi	r4,sp,16
 200ba28:	100b883a 	mov	r5,r2
 200ba2c:	200b4a00 	call	200b4a0 <_Z15get_ttype_entryP16lsda_header_infoj>
 200ba30:	10000826 	beq	r2,zero,200ba54 <__gxx_personality_sj0+0x32c>
 200ba34:	d8c02717 	ldw	r3,156(sp)
 200ba38:	183fe91e 	bne	r3,zero,200b9e0 <__gxx_personality_sj0+0x2b8>
 200ba3c:	d9401917 	ldw	r5,100(sp)
 200ba40:	1009883a 	mov	r4,r2
 200ba44:	d80d883a 	mov	r6,sp
 200ba48:	200b0a00 	call	200b0a0 <_Z16get_adjusted_ptrPKSt9type_infoS1_PPv>
 200ba4c:	10803fcc 	andi	r2,r2,255
 200ba50:	103fe326 	beq	r2,zero,200b9e0 <__gxx_personality_sj0+0x2b8>
 200ba54:	d9000117 	ldw	r4,4(sp)
 200ba58:	d9001b15 	stw	r4,108(sp)
 200ba5c:	010000c4 	movi	r4,3
 200ba60:	003fa206 	br	200b8ec <__gxx_personality_sj0+0x1c4>
 200ba64:	01400204 	movi	r5,8
 200ba68:	d9000a04 	addi	r4,sp,40
 200ba6c:	d9402215 	stw	r5,136(sp)
 200ba70:	200d0900 	call	200d090 <_Unwind_SjLj_Unregister>
 200ba74:	d8802217 	ldw	r2,136(sp)
 200ba78:	dfc02c17 	ldw	ra,176(sp)
 200ba7c:	df002b17 	ldw	fp,172(sp)
 200ba80:	ddc02a17 	ldw	r23,168(sp)
 200ba84:	dec02d04 	addi	sp,sp,180
 200ba88:	f800283a 	ret
 200ba8c:	d9402617 	ldw	r5,152(sp)
 200ba90:	0091d3b4 	movhi	r2,18254
 200ba94:	109550c4 	addi	r2,r2,21827
 200ba98:	28bf4f1e 	bne	r5,r2,200b7d8 <__gxx_personality_sj0+0xb0>
 200ba9c:	d8802317 	ldw	r2,140(sp)
 200baa0:	1007883a 	mov	r3,r2
 200baa4:	003f4c06 	br	200b7d8 <__gxx_personality_sj0+0xb0>
 200baa8:	d9402417 	ldw	r5,144(sp)
 200baac:	2880020c 	andi	r2,r5,8
 200bab0:	10000826 	beq	r2,zero,200bad4 <__gxx_personality_sj0+0x3ac>
 200bab4:	20c04026 	beq	r4,r3,200bbb8 <__gxx_personality_sj0+0x490>
 200bab8:	d8801b17 	ldw	r2,108(sp)
 200babc:	103f5b0e 	bge	r2,zero,200b82c <__gxx_personality_sj0+0x104>
 200bac0:	00800084 	movi	r2,2
 200bac4:	d8800b15 	stw	r2,44(sp)
 200bac8:	200c5780 	call	200c578 <_ZSt10unexpectedv>
 200bacc:	010000c4 	movi	r4,3
 200bad0:	003f5206 	br	200b81c <__gxx_personality_sj0+0xf4>
 200bad4:	d8802103 	ldbu	r2,132(sp)
 200bad8:	103f501e 	bne	r2,zero,200b81c <__gxx_personality_sj0+0xf4>
 200badc:	003ff506 	br	200bab4 <__gxx_personality_sj0+0x38c>
 200bae0:	d8800817 	ldw	r2,32(sp)
 200bae4:	1885883a 	add	r2,r3,r2
 200bae8:	1105c83a 	sub	r2,r2,r4
 200baec:	d8801f15 	stw	r2,124(sp)
 200baf0:	003fa806 	br	200b994 <__gxx_personality_sj0+0x26c>
 200baf4:	d9002717 	ldw	r4,156(sp)
 200baf8:	20000e1e 	bne	r4,zero,200bb34 <__gxx_personality_sj0+0x40c>
 200bafc:	017fffc4 	movi	r5,-1
 200bb00:	d9400b15 	stw	r5,44(sp)
 200bb04:	d9800017 	ldw	r6,0(sp)
 200bb08:	d9401917 	ldw	r5,100(sp)
 200bb0c:	100f883a 	mov	r7,r2
 200bb10:	d9000404 	addi	r4,sp,16
 200bb14:	200b5240 	call	200b524 <_Z20check_exception_specP16lsda_header_infoPKSt9type_infoPvi>
 200bb18:	1080005c 	xori	r2,r2,1
 200bb1c:	10803fcc 	andi	r2,r2,255
 200bb20:	103faf26 	beq	r2,zero,200b9e0 <__gxx_personality_sj0+0x2b8>
 200bb24:	003fcb06 	br	200ba54 <__gxx_personality_sj0+0x32c>
 200bb28:	00800184 	movi	r2,6
 200bb2c:	d8802215 	stw	r2,136(sp)
 200bb30:	003f1706 	br	200b790 <__gxx_personality_sj0+0x68>
 200bb34:	d9000717 	ldw	r4,28(sp)
 200bb38:	d9400304 	addi	r5,sp,12
 200bb3c:	2089c83a 	sub	r4,r4,r2
 200bb40:	213fffc4 	addi	r4,r4,-1
 200bb44:	200b01c0 	call	200b01c <_Z12read_uleb128PKhPj>
 200bb48:	d8c00317 	ldw	r3,12(sp)
 200bb4c:	1807003a 	cmpeq	r3,r3,zero
 200bb50:	1805883a 	mov	r2,r3
 200bb54:	003ff106 	br	200bb1c <__gxx_personality_sj0+0x3f4>
 200bb58:	d8001915 	stw	zero,100(sp)
 200bb5c:	003f9906 	br	200b9c4 <__gxx_personality_sj0+0x29c>
 200bb60:	d8801803 	ldbu	r2,96(sp)
 200bb64:	1004c03a 	cmpne	r2,r2,zero
 200bb68:	103fbe26 	beq	r2,zero,200ba64 <__gxx_personality_sj0+0x33c>
 200bb6c:	01000084 	movi	r4,2
 200bb70:	d8001b15 	stw	zero,108(sp)
 200bb74:	003f5d06 	br	200b8ec <__gxx_personality_sj0+0x1c4>
 200bb78:	d9402017 	ldw	r5,128(sp)
 200bb7c:	d9002e17 	ldw	r4,184(sp)
 200bb80:	00bfffc4 	movi	r2,-1
 200bb84:	d9800404 	addi	r6,sp,16
 200bb88:	d8800b15 	stw	r2,44(sp)
 200bb8c:	200b3a00 	call	200b3a0 <_Z17parse_lsda_headerP15_Unwind_ContextPKhP16lsda_header_info>
 200bb90:	d9000903 	ldbu	r4,36(sp)
 200bb94:	d9402e17 	ldw	r5,184(sp)
 200bb98:	200b3100 	call	200b310 <_Z21base_of_encoded_valuehP15_Unwind_Context>
 200bb9c:	d8c01a17 	ldw	r3,104(sp)
 200bba0:	18800915 	stw	r2,36(r3)
 200bba4:	003f2106 	br	200b82c <__gxx_personality_sj0+0x104>
 200bba8:	d9002d17 	ldw	r4,180(sp)
 200bbac:	00bfffc4 	movi	r2,-1
 200bbb0:	d8800b15 	stw	r2,44(sp)
 200bbb4:	200bca80 	call	200bca8 <__cxa_call_terminate>
 200bbb8:	00bfffc4 	movi	r2,-1
 200bbbc:	d8800b15 	stw	r2,44(sp)
 200bbc0:	200c5500 	call	200c550 <_ZSt9terminatev>
 200bbc4:	d9000b17 	ldw	r4,44(sp)
 200bbc8:	d9400c17 	ldw	r5,48(sp)
 200bbcc:	00800044 	movi	r2,1
 200bbd0:	d9002915 	stw	r4,164(sp)
 200bbd4:	d9402815 	stw	r5,160(sp)
 200bbd8:	20800626 	beq	r4,r2,200bbf4 <__gxx_personality_sj0+0x4cc>
 200bbdc:	d8000b15 	stw	zero,44(sp)
 200bbe0:	200c6280 	call	200c628 <__cxa_end_catch>
 200bbe4:	d9002817 	ldw	r4,160(sp)
 200bbe8:	00bfffc4 	movi	r2,-1
 200bbec:	d8800b15 	stw	r2,44(sp)
 200bbf0:	200d34c0 	call	200d34c <_Unwind_SjLj_Resume>
 200bbf4:	d9002817 	ldw	r4,160(sp)
 200bbf8:	200c6cc0 	call	200c6cc <__cxa_begin_catch>
 200bbfc:	d8c02917 	ldw	r3,164(sp)
 200bc00:	d8c00b15 	stw	r3,44(sp)
 200bc04:	200c5500 	call	200c550 <_ZSt9terminatev>

0200bc08 <_ZNKSt9exception4whatEv>:
 200bc08:	20800017 	ldw	r2,0(r4)
 200bc0c:	10ffff17 	ldw	r3,-4(r2)
 200bc10:	18800117 	ldw	r2,4(r3)
 200bc14:	f800283a 	ret

0200bc18 <_ZNSt9exceptionD0Ev>:
 200bc18:	00808074 	movhi	r2,513
 200bc1c:	108a4704 	addi	r2,r2,10524
 200bc20:	20800015 	stw	r2,0(r4)
 200bc24:	200bc9c1 	jmpi	200bc9c <_ZdlPv>

0200bc28 <_ZNSt9exceptionD1Ev>:
 200bc28:	00808074 	movhi	r2,513
 200bc2c:	108a4704 	addi	r2,r2,10524
 200bc30:	20800015 	stw	r2,0(r4)
 200bc34:	f800283a 	ret

0200bc38 <_ZNSt9exceptionD2Ev>:
 200bc38:	00808074 	movhi	r2,513
 200bc3c:	108a4704 	addi	r2,r2,10524
 200bc40:	20800015 	stw	r2,0(r4)
 200bc44:	f800283a 	ret

0200bc48 <_ZNSt13bad_exceptionD0Ev>:
 200bc48:	defffe04 	addi	sp,sp,-8
 200bc4c:	00808074 	movhi	r2,513
 200bc50:	108a4204 	addi	r2,r2,10504
 200bc54:	dc400015 	stw	r17,0(sp)
 200bc58:	20800015 	stw	r2,0(r4)
 200bc5c:	2023883a 	mov	r17,r4
 200bc60:	dfc00115 	stw	ra,4(sp)
 200bc64:	200bc380 	call	200bc38 <_ZNSt9exceptionD2Ev>
 200bc68:	8809883a 	mov	r4,r17
 200bc6c:	dfc00117 	ldw	ra,4(sp)
 200bc70:	dc400017 	ldw	r17,0(sp)
 200bc74:	dec00204 	addi	sp,sp,8
 200bc78:	200bc9c1 	jmpi	200bc9c <_ZdlPv>

0200bc7c <_ZNSt13bad_exceptionD1Ev>:
 200bc7c:	00808074 	movhi	r2,513
 200bc80:	108a4204 	addi	r2,r2,10504
 200bc84:	20800015 	stw	r2,0(r4)
 200bc88:	200bc381 	jmpi	200bc38 <_ZNSt9exceptionD2Ev>

0200bc8c <_ZNSt13bad_exceptionD2Ev>:
 200bc8c:	00808074 	movhi	r2,513
 200bc90:	108a4204 	addi	r2,r2,10504
 200bc94:	20800015 	stw	r2,0(r4)
 200bc98:	200bc381 	jmpi	200bc38 <_ZNSt9exceptionD2Ev>

0200bc9c <_ZdlPv>:
 200bc9c:	20000126 	beq	r4,zero,200bca4 <_ZdlPv+0x8>
 200bca0:	200d5e01 	jmpi	200d5e0 <free>
 200bca4:	f800283a 	ret

0200bca8 <__cxa_call_terminate>:
 200bca8:	defffe04 	addi	sp,sp,-8
 200bcac:	dc000015 	stw	r16,0(sp)
 200bcb0:	dfc00115 	stw	ra,4(sp)
 200bcb4:	2021883a 	mov	r16,r4
 200bcb8:	20000626 	beq	r4,zero,200bcd4 <__cxa_call_terminate+0x2c>
 200bcbc:	200c6cc0 	call	200c6cc <__cxa_begin_catch>
 200bcc0:	80c00017 	ldw	r3,0(r16)
 200bcc4:	0090caf4 	movhi	r2,17195
 200bcc8:	108ac004 	addi	r2,r2,11008
 200bccc:	81000117 	ldw	r4,4(r16)
 200bcd0:	18800126 	beq	r3,r2,200bcd8 <__cxa_call_terminate+0x30>
 200bcd4:	200c5500 	call	200c550 <_ZSt9terminatev>
 200bcd8:	0091d3b4 	movhi	r2,18254
 200bcdc:	109550c4 	addi	r2,r2,21827
 200bce0:	20bffc1e 	bne	r4,r2,200bcd4 <__cxa_call_terminate+0x2c>
 200bce4:	813ff817 	ldw	r4,-32(r16)
 200bce8:	200c4ac0 	call	200c4ac <_ZN10__cxxabiv111__terminateEPFvvE>

0200bcec <_ZNK10__cxxabiv117__class_type_info11__do_upcastEPKS0_PPv>:
 200bcec:	20c00017 	ldw	r3,0(r4)
 200bcf0:	defffa04 	addi	sp,sp,-24
 200bcf4:	dc000415 	stw	r16,16(sp)
 200bcf8:	1a000617 	ldw	r8,24(r3)
 200bcfc:	3021883a 	mov	r16,r6
 200bd00:	31800017 	ldw	r6,0(r6)
 200bd04:	00800404 	movi	r2,16
 200bd08:	dfc00515 	stw	ra,20(sp)
 200bd0c:	d8800215 	stw	r2,8(sp)
 200bd10:	d8000015 	stw	zero,0(sp)
 200bd14:	d8000115 	stw	zero,4(sp)
 200bd18:	d8000315 	stw	zero,12(sp)
 200bd1c:	d80f883a 	mov	r7,sp
 200bd20:	403ee83a 	callr	r8
 200bd24:	d8800117 	ldw	r2,4(sp)
 200bd28:	00c00184 	movi	r3,6
 200bd2c:	0009883a 	mov	r4,zero
 200bd30:	1080018c 	andi	r2,r2,6
 200bd34:	10c0031e 	bne	r2,r3,200bd44 <_ZNK10__cxxabiv117__class_type_info11__do_upcastEPKS0_PPv+0x58>
 200bd38:	d8800017 	ldw	r2,0(sp)
 200bd3c:	01000044 	movi	r4,1
 200bd40:	80800015 	stw	r2,0(r16)
 200bd44:	2005883a 	mov	r2,r4
 200bd48:	dfc00517 	ldw	ra,20(sp)
 200bd4c:	dc000417 	ldw	r16,16(sp)
 200bd50:	dec00604 	addi	sp,sp,24
 200bd54:	f800283a 	ret

0200bd58 <_ZNK10__cxxabiv117__class_type_info20__do_find_public_srcElPKvPKS0_S2_>:
 200bd58:	d8800017 	ldw	r2,0(sp)
 200bd5c:	00c00184 	movi	r3,6
 200bd60:	1180021e 	bne	r2,r6,200bd6c <_ZNK10__cxxabiv117__class_type_info20__do_find_public_srcElPKvPKS0_S2_+0x14>
 200bd64:	1805883a 	mov	r2,r3
 200bd68:	f800283a 	ret
 200bd6c:	00c00044 	movi	r3,1
 200bd70:	1805883a 	mov	r2,r3
 200bd74:	f800283a 	ret

0200bd78 <_ZN10__cxxabiv117__class_type_infoD0Ev>:
 200bd78:	defffe04 	addi	sp,sp,-8
 200bd7c:	00808074 	movhi	r2,513
 200bd80:	108a5804 	addi	r2,r2,10592
 200bd84:	dc400015 	stw	r17,0(sp)
 200bd88:	20800015 	stw	r2,0(r4)
 200bd8c:	2023883a 	mov	r17,r4
 200bd90:	dfc00115 	stw	ra,4(sp)
 200bd94:	200c32c0 	call	200c32c <_ZNSt9type_infoD2Ev>
 200bd98:	8809883a 	mov	r4,r17
 200bd9c:	dfc00117 	ldw	ra,4(sp)
 200bda0:	dc400017 	ldw	r17,0(sp)
 200bda4:	dec00204 	addi	sp,sp,8
 200bda8:	200bc9c1 	jmpi	200bc9c <_ZdlPv>

0200bdac <_ZN10__cxxabiv117__class_type_infoD1Ev>:
 200bdac:	00808074 	movhi	r2,513
 200bdb0:	108a5804 	addi	r2,r2,10592
 200bdb4:	20800015 	stw	r2,0(r4)
 200bdb8:	200c32c1 	jmpi	200c32c <_ZNSt9type_infoD2Ev>

0200bdbc <_ZN10__cxxabiv117__class_type_infoD2Ev>:
 200bdbc:	00808074 	movhi	r2,513
 200bdc0:	108a5804 	addi	r2,r2,10592
 200bdc4:	20800015 	stw	r2,0(r4)
 200bdc8:	200c32c1 	jmpi	200c32c <_ZNSt9type_infoD2Ev>

0200bdcc <_ZNK10__cxxabiv117__class_type_info10__do_catchEPKSt9type_infoPPvj>:
 200bdcc:	2811883a 	mov	r8,r5
 200bdd0:	20c00117 	ldw	r3,4(r4)
 200bdd4:	40800117 	ldw	r2,4(r8)
 200bdd8:	deffff04 	addi	sp,sp,-4
 200bddc:	dfc00015 	stw	ra,0(sp)
 200bde0:	200b883a 	mov	r5,r4
 200bde4:	02400044 	movi	r9,1
 200bde8:	18800426 	beq	r3,r2,200bdfc <_ZNK10__cxxabiv117__class_type_info10__do_catchEPKSt9type_infoPPvj+0x30>
 200bdec:	008000c4 	movi	r2,3
 200bdf0:	4009883a 	mov	r4,r8
 200bdf4:	0013883a 	mov	r9,zero
 200bdf8:	11c0042e 	bgeu	r2,r7,200be0c <_ZNK10__cxxabiv117__class_type_info10__do_catchEPKSt9type_infoPPvj+0x40>
 200bdfc:	4805883a 	mov	r2,r9
 200be00:	dfc00017 	ldw	ra,0(sp)
 200be04:	dec00104 	addi	sp,sp,4
 200be08:	f800283a 	ret
 200be0c:	40800017 	ldw	r2,0(r8)
 200be10:	10c00517 	ldw	r3,20(r2)
 200be14:	183ee83a 	callr	r3
 200be18:	12403fcc 	andi	r9,r2,255
 200be1c:	4805883a 	mov	r2,r9
 200be20:	dfc00017 	ldw	ra,0(sp)
 200be24:	dec00104 	addi	sp,sp,4
 200be28:	f800283a 	ret

0200be2c <_ZNK10__cxxabiv117__class_type_info11__do_upcastEPKS0_PKvRNS0_15__upcast_resultE>:
 200be2c:	20c00117 	ldw	r3,4(r4)
 200be30:	28800117 	ldw	r2,4(r5)
 200be34:	0009883a 	mov	r4,zero
 200be38:	1880061e 	bne	r3,r2,200be54 <_ZNK10__cxxabiv117__class_type_info11__do_upcastEPKS0_PKvRNS0_15__upcast_resultE+0x28>
 200be3c:	00800184 	movi	r2,6
 200be40:	38800115 	stw	r2,4(r7)
 200be44:	00800204 	movi	r2,8
 200be48:	39800015 	stw	r6,0(r7)
 200be4c:	38800315 	stw	r2,12(r7)
 200be50:	01000044 	movi	r4,1
 200be54:	2005883a 	mov	r2,r4
 200be58:	f800283a 	ret

0200be5c <_ZNK10__cxxabiv117__class_type_info12__do_dyncastElNS0_10__sub_kindEPKS0_PKvS3_S5_RNS0_16__dyncast_resultE>:
 200be5c:	da000017 	ldw	r8,0(sp)
 200be60:	d8800217 	ldw	r2,8(sp)
 200be64:	d9400317 	ldw	r5,12(sp)
 200be68:	40800926 	beq	r8,r2,200be90 <_ZNK10__cxxabiv117__class_type_info12__do_dyncastElNS0_10__sub_kindEPKS0_PKvS3_S5_RNS0_16__dyncast_resultE+0x34>
 200be6c:	21000117 	ldw	r4,4(r4)
 200be70:	38800117 	ldw	r2,4(r7)
 200be74:	2080041e 	bne	r4,r2,200be88 <_ZNK10__cxxabiv117__class_type_info12__do_dyncastElNS0_10__sub_kindEPKS0_PKvS3_S5_RNS0_16__dyncast_resultE+0x2c>
 200be78:	00800044 	movi	r2,1
 200be7c:	28800315 	stw	r2,12(r5)
 200be80:	2a000015 	stw	r8,0(r5)
 200be84:	29800115 	stw	r6,4(r5)
 200be88:	0005883a 	mov	r2,zero
 200be8c:	f800283a 	ret
 200be90:	d8800117 	ldw	r2,4(sp)
 200be94:	21000117 	ldw	r4,4(r4)
 200be98:	10c00117 	ldw	r3,4(r2)
 200be9c:	20fff41e 	bne	r4,r3,200be70 <_ZNK10__cxxabiv117__class_type_info12__do_dyncastElNS0_10__sub_kindEPKS0_PKvS3_S5_RNS0_16__dyncast_resultE+0x14>
 200bea0:	29800215 	stw	r6,8(r5)
 200bea4:	003ff806 	br	200be88 <_ZNK10__cxxabiv117__class_type_info12__do_dyncastElNS0_10__sub_kindEPKS0_PKvS3_S5_RNS0_16__dyncast_resultE+0x2c>

0200bea8 <_Znwm>:
 200bea8:	deffee04 	addi	sp,sp,-72
 200beac:	00808074 	movhi	r2,513
 200beb0:	10adca04 	addi	r2,r2,-18648
 200beb4:	d8800615 	stw	r2,24(sp)
 200beb8:	00c08074 	movhi	r3,513
 200bebc:	18c95704 	addi	r3,r3,9564
 200bec0:	00808074 	movhi	r2,513
 200bec4:	10afe104 	addi	r2,r2,-16508
 200bec8:	d9000e15 	stw	r4,56(sp)
 200becc:	d809883a 	mov	r4,sp
 200bed0:	d8800915 	stw	r2,36(sp)
 200bed4:	dfc01115 	stw	ra,68(sp)
 200bed8:	df001015 	stw	fp,64(sp)
 200bedc:	ddc00f15 	stw	r23,60(sp)
 200bee0:	d8c00715 	stw	r3,28(sp)
 200bee4:	dec00815 	stw	sp,32(sp)
 200bee8:	dec00a15 	stw	sp,40(sp)
 200beec:	200d0800 	call	200d080 <_Unwind_SjLj_Register>
 200bef0:	d8800e17 	ldw	r2,56(sp)
 200bef4:	10000a1e 	bne	r2,zero,200bf20 <_Znwm+0x78>
 200bef8:	00800044 	movi	r2,1
 200befc:	d8800e15 	stw	r2,56(sp)
 200bf00:	00000706 	br	200bf20 <_Znwm+0x78>
 200bf04:	00808074 	movhi	r2,513
 200bf08:	1098b504 	addi	r2,r2,25300
 200bf0c:	10c00017 	ldw	r3,0(r2)
 200bf10:	18000f26 	beq	r3,zero,200bf50 <_Znwm+0xa8>
 200bf14:	00800044 	movi	r2,1
 200bf18:	d8800115 	stw	r2,4(sp)
 200bf1c:	183ee83a 	callr	r3
 200bf20:	d9000e17 	ldw	r4,56(sp)
 200bf24:	200d5f40 	call	200d5f4 <malloc>
 200bf28:	d8800d15 	stw	r2,52(sp)
 200bf2c:	103ff526 	beq	r2,zero,200bf04 <_Znwm+0x5c>
 200bf30:	d809883a 	mov	r4,sp
 200bf34:	200d0900 	call	200d090 <_Unwind_SjLj_Unregister>
 200bf38:	d8800d17 	ldw	r2,52(sp)
 200bf3c:	dfc01117 	ldw	ra,68(sp)
 200bf40:	df001017 	ldw	fp,64(sp)
 200bf44:	ddc00f17 	ldw	r23,60(sp)
 200bf48:	dec01204 	addi	sp,sp,72
 200bf4c:	f800283a 	ret
 200bf50:	01000104 	movi	r4,4
 200bf54:	200c1b00 	call	200c1b0 <__cxa_allocate_exception>
 200bf58:	1009883a 	mov	r4,r2
 200bf5c:	00808074 	movhi	r2,513
 200bf60:	108a9304 	addi	r2,r2,10828
 200bf64:	20800015 	stw	r2,0(r4)
 200bf68:	00c00044 	movi	r3,1
 200bf6c:	d8c00115 	stw	r3,4(sp)
 200bf70:	01408074 	movhi	r5,513
 200bf74:	294a9a04 	addi	r5,r5,10856
 200bf78:	01808074 	movhi	r6,513
 200bf7c:	31b17804 	addi	r6,r6,-14880
 200bf80:	200c3b00 	call	200c3b0 <__cxa_throw>
 200bf84:	d8800317 	ldw	r2,12(sp)
 200bf88:	00ffffc4 	movi	r3,-1
 200bf8c:	d9000217 	ldw	r4,8(sp)
 200bf90:	10c00226 	beq	r2,r3,200bf9c <_Znwm+0xf4>
 200bf94:	d8c00115 	stw	r3,4(sp)
 200bf98:	200d34c0 	call	200d34c <_Unwind_SjLj_Resume>
 200bf9c:	00bfffc4 	movi	r2,-1
 200bfa0:	d8800115 	stw	r2,4(sp)
 200bfa4:	200b5a80 	call	200b5a8 <__cxa_call_unexpected>

0200bfa8 <_ZNK10__cxxabiv120__si_class_type_info11__do_upcastEPKNS_17__class_type_infoEPKvRNS1_15__upcast_resultE>:
 200bfa8:	defffb04 	addi	sp,sp,-20
 200bfac:	dd400315 	stw	r21,12(sp)
 200bfb0:	dcc00215 	stw	r19,8(sp)
 200bfb4:	dc400115 	stw	r17,4(sp)
 200bfb8:	dc000015 	stw	r16,0(sp)
 200bfbc:	2823883a 	mov	r17,r5
 200bfc0:	3027883a 	mov	r19,r6
 200bfc4:	382b883a 	mov	r21,r7
 200bfc8:	dfc00415 	stw	ra,16(sp)
 200bfcc:	2021883a 	mov	r16,r4
 200bfd0:	200be2c0 	call	200be2c <_ZNK10__cxxabiv117__class_type_info11__do_upcastEPKS0_PKvRNS0_15__upcast_resultE>
 200bfd4:	10803fcc 	andi	r2,r2,255
 200bfd8:	880b883a 	mov	r5,r17
 200bfdc:	980d883a 	mov	r6,r19
 200bfe0:	a80f883a 	mov	r7,r21
 200bfe4:	00c00044 	movi	r3,1
 200bfe8:	1000051e 	bne	r2,zero,200c000 <_ZNK10__cxxabiv120__si_class_type_info11__do_upcastEPKNS_17__class_type_infoEPKvRNS1_15__upcast_resultE+0x58>
 200bfec:	81000217 	ldw	r4,8(r16)
 200bff0:	20800017 	ldw	r2,0(r4)
 200bff4:	10c00617 	ldw	r3,24(r2)
 200bff8:	183ee83a 	callr	r3
 200bffc:	10c03fcc 	andi	r3,r2,255
 200c000:	1805883a 	mov	r2,r3
 200c004:	dfc00417 	ldw	ra,16(sp)
 200c008:	dd400317 	ldw	r21,12(sp)
 200c00c:	dcc00217 	ldw	r19,8(sp)
 200c010:	dc400117 	ldw	r17,4(sp)
 200c014:	dc000017 	ldw	r16,0(sp)
 200c018:	dec00504 	addi	sp,sp,20
 200c01c:	f800283a 	ret

0200c020 <_ZN10__cxxabiv120__si_class_type_infoD0Ev>:
 200c020:	defffe04 	addi	sp,sp,-8
 200c024:	00808074 	movhi	r2,513
 200c028:	108a6f04 	addi	r2,r2,10684
 200c02c:	dc400015 	stw	r17,0(sp)
 200c030:	20800015 	stw	r2,0(r4)
 200c034:	2023883a 	mov	r17,r4
 200c038:	dfc00115 	stw	ra,4(sp)
 200c03c:	200bdbc0 	call	200bdbc <_ZN10__cxxabiv117__class_type_infoD2Ev>
 200c040:	8809883a 	mov	r4,r17
 200c044:	dfc00117 	ldw	ra,4(sp)
 200c048:	dc400017 	ldw	r17,0(sp)
 200c04c:	dec00204 	addi	sp,sp,8
 200c050:	200bc9c1 	jmpi	200bc9c <_ZdlPv>

0200c054 <_ZN10__cxxabiv120__si_class_type_infoD1Ev>:
 200c054:	00808074 	movhi	r2,513
 200c058:	108a6f04 	addi	r2,r2,10684
 200c05c:	20800015 	stw	r2,0(r4)
 200c060:	200bdbc1 	jmpi	200bdbc <_ZN10__cxxabiv117__class_type_infoD2Ev>

0200c064 <_ZN10__cxxabiv120__si_class_type_infoD2Ev>:
 200c064:	00808074 	movhi	r2,513
 200c068:	108a6f04 	addi	r2,r2,10684
 200c06c:	20800015 	stw	r2,0(r4)
 200c070:	200bdbc1 	jmpi	200bdbc <_ZN10__cxxabiv117__class_type_infoD2Ev>

0200c074 <_ZNK10__cxxabiv120__si_class_type_info20__do_find_public_srcElPKvPKNS_17__class_type_infoES2_>:
 200c074:	da400017 	ldw	r9,0(sp)
 200c078:	2011883a 	mov	r8,r4
 200c07c:	49800526 	beq	r9,r6,200c094 <_ZNK10__cxxabiv120__si_class_type_info20__do_find_public_srcElPKvPKNS_17__class_type_infoES2_+0x20>
 200c080:	41000217 	ldw	r4,8(r8)
 200c084:	20800017 	ldw	r2,0(r4)
 200c088:	da400015 	stw	r9,0(sp)
 200c08c:	10c00817 	ldw	r3,32(r2)
 200c090:	1800683a 	jmp	r3
 200c094:	39000117 	ldw	r4,4(r7)
 200c098:	40c00117 	ldw	r3,4(r8)
 200c09c:	00800184 	movi	r2,6
 200c0a0:	193ff71e 	bne	r3,r4,200c080 <_ZNK10__cxxabiv120__si_class_type_info20__do_find_public_srcElPKvPKNS_17__class_type_infoES2_+0xc>
 200c0a4:	f800283a 	ret

0200c0a8 <_ZNK10__cxxabiv120__si_class_type_info12__do_dyncastElNS_17__class_type_info10__sub_kindEPKS1_PKvS4_S6_RNS1_16__dyncast_resultE>:
 200c0a8:	20c00117 	ldw	r3,4(r4)
 200c0ac:	38800117 	ldw	r2,4(r7)
 200c0b0:	defffb04 	addi	sp,sp,-20
 200c0b4:	dfc00415 	stw	ra,16(sp)
 200c0b8:	da000517 	ldw	r8,20(sp)
 200c0bc:	dac00617 	ldw	r11,24(sp)
 200c0c0:	da400717 	ldw	r9,28(sp)
 200c0c4:	da800817 	ldw	r10,32(sp)
 200c0c8:	18800c1e 	bne	r3,r2,200c0fc <_ZNK10__cxxabiv120__si_class_type_info12__do_dyncastElNS_17__class_type_info10__sub_kindEPKS1_PKvS4_S6_RNS1_16__dyncast_resultE+0x54>
 200c0cc:	51800115 	stw	r6,4(r10)
 200c0d0:	52000015 	stw	r8,0(r10)
 200c0d4:	28001c16 	blt	r5,zero,200c148 <_ZNK10__cxxabiv120__si_class_type_info12__do_dyncastElNS_17__class_type_info10__sub_kindEPKS1_PKvS4_S6_RNS1_16__dyncast_resultE+0xa0>
 200c0d8:	4145883a 	add	r2,r8,r5
 200c0dc:	48801e26 	beq	r9,r2,200c158 <_ZNK10__cxxabiv120__si_class_type_info12__do_dyncastElNS_17__class_type_info10__sub_kindEPKS1_PKvS4_S6_RNS1_16__dyncast_resultE+0xb0>
 200c0e0:	00800044 	movi	r2,1
 200c0e4:	0007883a 	mov	r3,zero
 200c0e8:	50800315 	stw	r2,12(r10)
 200c0ec:	1805883a 	mov	r2,r3
 200c0f0:	dfc00417 	ldw	ra,16(sp)
 200c0f4:	dec00504 	addi	sp,sp,20
 200c0f8:	f800283a 	ret
 200c0fc:	42400d26 	beq	r8,r9,200c134 <_ZNK10__cxxabiv120__si_class_type_info12__do_dyncastElNS_17__class_type_info10__sub_kindEPKS1_PKvS4_S6_RNS1_16__dyncast_resultE+0x8c>
 200c100:	21000217 	ldw	r4,8(r4)
 200c104:	20800017 	ldw	r2,0(r4)
 200c108:	da000015 	stw	r8,0(sp)
 200c10c:	dac00115 	stw	r11,4(sp)
 200c110:	da400215 	stw	r9,8(sp)
 200c114:	da800315 	stw	r10,12(sp)
 200c118:	10c00717 	ldw	r3,28(r2)
 200c11c:	183ee83a 	callr	r3
 200c120:	10c03fcc 	andi	r3,r2,255
 200c124:	1805883a 	mov	r2,r3
 200c128:	dfc00417 	ldw	ra,16(sp)
 200c12c:	dec00504 	addi	sp,sp,20
 200c130:	f800283a 	ret
 200c134:	58800117 	ldw	r2,4(r11)
 200c138:	18bff11e 	bne	r3,r2,200c100 <_ZNK10__cxxabiv120__si_class_type_info12__do_dyncastElNS_17__class_type_info10__sub_kindEPKS1_PKvS4_S6_RNS1_16__dyncast_resultE+0x58>
 200c13c:	0007883a 	mov	r3,zero
 200c140:	51800215 	stw	r6,8(r10)
 200c144:	003fe906 	br	200c0ec <_ZNK10__cxxabiv120__si_class_type_info12__do_dyncastElNS_17__class_type_info10__sub_kindEPKS1_PKvS4_S6_RNS1_16__dyncast_resultE+0x44>
 200c148:	00bfff84 	movi	r2,-2
 200c14c:	28800426 	beq	r5,r2,200c160 <_ZNK10__cxxabiv120__si_class_type_info12__do_dyncastElNS_17__class_type_info10__sub_kindEPKS1_PKvS4_S6_RNS1_16__dyncast_resultE+0xb8>
 200c150:	0007883a 	mov	r3,zero
 200c154:	003fe506 	br	200c0ec <_ZNK10__cxxabiv120__si_class_type_info12__do_dyncastElNS_17__class_type_info10__sub_kindEPKS1_PKvS4_S6_RNS1_16__dyncast_resultE+0x44>
 200c158:	00800184 	movi	r2,6
 200c15c:	003fe106 	br	200c0e4 <_ZNK10__cxxabiv120__si_class_type_info12__do_dyncastElNS_17__class_type_info10__sub_kindEPKS1_PKvS4_S6_RNS1_16__dyncast_resultE+0x3c>
 200c160:	00800044 	movi	r2,1
 200c164:	0007883a 	mov	r3,zero
 200c168:	50800315 	stw	r2,12(r10)
 200c16c:	003fdf06 	br	200c0ec <_ZNK10__cxxabiv120__si_class_type_info12__do_dyncastElNS_17__class_type_info10__sub_kindEPKS1_PKvS4_S6_RNS1_16__dyncast_resultE+0x44>

0200c170 <__cxa_free_exception>:
 200c170:	2007883a 	mov	r3,r4
 200c174:	00808074 	movhi	r2,513
 200c178:	1098c104 	addi	r2,r2,25348
 200c17c:	213ff004 	addi	r4,r4,-64
 200c180:	11420004 	addi	r5,r2,2048
 200c184:	18800336 	bltu	r3,r2,200c194 <__cxa_free_exception+0x24>
 200c188:	1885c83a 	sub	r2,r3,r2
 200c18c:	1004d27a 	srli	r2,r2,9
 200c190:	19400136 	bltu	r3,r5,200c198 <__cxa_free_exception+0x28>
 200c194:	200d5e01 	jmpi	200d5e0 <free>
 200c198:	00ffff84 	movi	r3,-2
 200c19c:	1886183a 	rol	r3,r3,r2
 200c1a0:	d0a70217 	ldw	r2,-25592(gp)
 200c1a4:	10c4703a 	and	r2,r2,r3
 200c1a8:	d0a70215 	stw	r2,-25592(gp)
 200c1ac:	f800283a 	ret

0200c1b0 <__cxa_allocate_exception>:
 200c1b0:	deffed04 	addi	sp,sp,-76
 200c1b4:	00808074 	movhi	r2,513
 200c1b8:	10adca04 	addi	r2,r2,-18648
 200c1bc:	21001004 	addi	r4,r4,64
 200c1c0:	00c08074 	movhi	r3,513
 200c1c4:	18c95c04 	addi	r3,r3,9584
 200c1c8:	d8800615 	stw	r2,24(sp)
 200c1cc:	d9000d15 	stw	r4,52(sp)
 200c1d0:	00808074 	movhi	r2,513
 200c1d4:	10b0b004 	addi	r2,r2,-15680
 200c1d8:	d809883a 	mov	r4,sp
 200c1dc:	dfc01215 	stw	ra,72(sp)
 200c1e0:	d8c00715 	stw	r3,28(sp)
 200c1e4:	d8800915 	stw	r2,36(sp)
 200c1e8:	df001115 	stw	fp,68(sp)
 200c1ec:	ddc01015 	stw	r23,64(sp)
 200c1f0:	dec00815 	stw	sp,32(sp)
 200c1f4:	dec00a15 	stw	sp,40(sp)
 200c1f8:	200d0800 	call	200d080 <_Unwind_SjLj_Register>
 200c1fc:	d9000d17 	ldw	r4,52(sp)
 200c200:	200d5f40 	call	200d5f4 <malloc>
 200c204:	d8800e15 	stw	r2,56(sp)
 200c208:	1000171e 	bne	r2,zero,200c268 <__cxa_allocate_exception+0xb8>
 200c20c:	d8c00d17 	ldw	r3,52(sp)
 200c210:	00808004 	movi	r2,512
 200c214:	d1e70217 	ldw	r7,-25592(gp)
 200c218:	10c02636 	bltu	r2,r3,200c2b4 <__cxa_allocate_exception+0x104>
 200c21c:	3807883a 	mov	r3,r7
 200c220:	01400044 	movi	r5,1
 200c224:	1944703a 	and	r2,r3,r5
 200c228:	0009883a 	mov	r4,zero
 200c22c:	01800104 	movi	r6,4
 200c230:	10000526 	beq	r2,zero,200c248 <__cxa_allocate_exception+0x98>
 200c234:	2149883a 	add	r4,r4,r5
 200c238:	21801e26 	beq	r4,r6,200c2b4 <__cxa_allocate_exception+0x104>
 200c23c:	1806d07a 	srli	r3,r3,1
 200c240:	1944703a 	and	r2,r3,r5
 200c244:	103ffb1e 	bne	r2,zero,200c234 <__cxa_allocate_exception+0x84>
 200c248:	2904983a 	sll	r2,r5,r4
 200c24c:	2008927a 	slli	r4,r4,9
 200c250:	00c08074 	movhi	r3,513
 200c254:	18d8c104 	addi	r3,r3,25348
 200c258:	3884b03a 	or	r2,r7,r2
 200c25c:	20c9883a 	add	r4,r4,r3
 200c260:	d9000e15 	stw	r4,56(sp)
 200c264:	d0a70215 	stw	r2,-25592(gp)
 200c268:	200c5980 	call	200c598 <__cxa_get_globals>
 200c26c:	10c00117 	ldw	r3,4(r2)
 200c270:	d9000e17 	ldw	r4,56(sp)
 200c274:	000b883a 	mov	r5,zero
 200c278:	18c00044 	addi	r3,r3,1
 200c27c:	10c00115 	stw	r3,4(r2)
 200c280:	01801004 	movi	r6,64
 200c284:	200dd480 	call	200dd48 <memset>
 200c288:	d8800e17 	ldw	r2,56(sp)
 200c28c:	d809883a 	mov	r4,sp
 200c290:	10801004 	addi	r2,r2,64
 200c294:	d8800f15 	stw	r2,60(sp)
 200c298:	200d0900 	call	200d090 <_Unwind_SjLj_Unregister>
 200c29c:	d8800f17 	ldw	r2,60(sp)
 200c2a0:	dfc01217 	ldw	ra,72(sp)
 200c2a4:	df001117 	ldw	fp,68(sp)
 200c2a8:	ddc01017 	ldw	r23,64(sp)
 200c2ac:	dec01304 	addi	sp,sp,76
 200c2b0:	f800283a 	ret
 200c2b4:	00800044 	movi	r2,1
 200c2b8:	d8800115 	stw	r2,4(sp)
 200c2bc:	200c5500 	call	200c550 <_ZSt9terminatev>
 200c2c0:	d8800317 	ldw	r2,12(sp)
 200c2c4:	00ffffc4 	movi	r3,-1
 200c2c8:	d9000217 	ldw	r4,8(sp)
 200c2cc:	10c00226 	beq	r2,r3,200c2d8 <__cxa_allocate_exception+0x128>
 200c2d0:	d8c00115 	stw	r3,4(sp)
 200c2d4:	200d34c0 	call	200d34c <_Unwind_SjLj_Resume>
 200c2d8:	00bfffc4 	movi	r2,-1
 200c2dc:	d8800115 	stw	r2,4(sp)
 200c2e0:	200b5a80 	call	200b5a8 <__cxa_call_unexpected>

0200c2e4 <_ZNKSt9type_info14__is_pointer_pEv>:
 200c2e4:	0005883a 	mov	r2,zero
 200c2e8:	f800283a 	ret

0200c2ec <_ZNKSt9type_info15__is_function_pEv>:
 200c2ec:	0005883a 	mov	r2,zero
 200c2f0:	f800283a 	ret

0200c2f4 <_ZNKSt9type_info10__do_catchEPKS_PPvj>:
 200c2f4:	20c00117 	ldw	r3,4(r4)
 200c2f8:	28800117 	ldw	r2,4(r5)
 200c2fc:	1885003a 	cmpeq	r2,r3,r2
 200c300:	f800283a 	ret

0200c304 <_ZNKSt9type_info11__do_upcastEPKN10__cxxabiv117__class_type_infoEPPv>:
 200c304:	0005883a 	mov	r2,zero
 200c308:	f800283a 	ret

0200c30c <_ZNSt9type_infoD0Ev>:
 200c30c:	00808074 	movhi	r2,513
 200c310:	108a8704 	addi	r2,r2,10780
 200c314:	20800015 	stw	r2,0(r4)
 200c318:	200bc9c1 	jmpi	200bc9c <_ZdlPv>

0200c31c <_ZNSt9type_infoD1Ev>:
 200c31c:	00808074 	movhi	r2,513
 200c320:	108a8704 	addi	r2,r2,10780
 200c324:	20800015 	stw	r2,0(r4)
 200c328:	f800283a 	ret

0200c32c <_ZNSt9type_infoD2Ev>:
 200c32c:	00808074 	movhi	r2,513
 200c330:	108a8704 	addi	r2,r2,10780
 200c334:	20800015 	stw	r2,0(r4)
 200c338:	f800283a 	ret

0200c33c <__cxa_rethrow>:
 200c33c:	defffe04 	addi	sp,sp,-8
 200c340:	dc400015 	stw	r17,0(sp)
 200c344:	dfc00115 	stw	ra,4(sp)
 200c348:	200c5980 	call	200c598 <__cxa_get_globals>
 200c34c:	100b883a 	mov	r5,r2
 200c350:	10800117 	ldw	r2,4(r2)
 200c354:	2c400017 	ldw	r17,0(r5)
 200c358:	10800044 	addi	r2,r2,1
 200c35c:	28800115 	stw	r2,4(r5)
 200c360:	88000b26 	beq	r17,zero,200c390 <__cxa_rethrow+0x54>
 200c364:	88c00b17 	ldw	r3,44(r17)
 200c368:	0090caf4 	movhi	r2,17195
 200c36c:	108ac004 	addi	r2,r2,11008
 200c370:	89000c17 	ldw	r4,48(r17)
 200c374:	18800726 	beq	r3,r2,200c394 <__cxa_rethrow+0x58>
 200c378:	28000015 	stw	zero,0(r5)
 200c37c:	8c400b04 	addi	r17,r17,44
 200c380:	8809883a 	mov	r4,r17
 200c384:	200d5700 	call	200d570 <_Unwind_SjLj_Resume_or_Rethrow>
 200c388:	8809883a 	mov	r4,r17
 200c38c:	200c6cc0 	call	200c6cc <__cxa_begin_catch>
 200c390:	200c5500 	call	200c550 <_ZSt9terminatev>
 200c394:	0091d3b4 	movhi	r2,18254
 200c398:	109550c4 	addi	r2,r2,21827
 200c39c:	20bff61e 	bne	r4,r2,200c378 <__cxa_rethrow+0x3c>
 200c3a0:	88800517 	ldw	r2,20(r17)
 200c3a4:	0085c83a 	sub	r2,zero,r2
 200c3a8:	88800515 	stw	r2,20(r17)
 200c3ac:	003ff306 	br	200c37c <__cxa_rethrow+0x40>

0200c3b0 <__cxa_throw>:
 200c3b0:	00808074 	movhi	r2,513
 200c3b4:	1091b904 	addi	r2,r2,18148
 200c3b8:	00c08074 	movhi	r3,513
 200c3bc:	18d1bb04 	addi	r3,r3,18156
 200c3c0:	12000017 	ldw	r8,0(r2)
 200c3c4:	19c00017 	ldw	r7,0(r3)
 200c3c8:	defffe04 	addi	sp,sp,-8
 200c3cc:	213ff004 	addi	r4,r4,-64
 200c3d0:	dfc00115 	stw	ra,4(sp)
 200c3d4:	dc400015 	stw	r17,0(sp)
 200c3d8:	0090caf4 	movhi	r2,17195
 200c3dc:	108ac004 	addi	r2,r2,11008
 200c3e0:	20800b15 	stw	r2,44(r4)
 200c3e4:	00d1d3b4 	movhi	r3,18254
 200c3e8:	18d550c4 	addi	r3,r3,21827
 200c3ec:	24400b04 	addi	r17,r4,44
 200c3f0:	00808074 	movhi	r2,513
 200c3f4:	10b10904 	addi	r2,r2,-15324
 200c3f8:	21400015 	stw	r5,0(r4)
 200c3fc:	21800115 	stw	r6,4(r4)
 200c400:	22000215 	stw	r8,8(r4)
 200c404:	21c00315 	stw	r7,12(r4)
 200c408:	20c00c15 	stw	r3,48(r4)
 200c40c:	20800d15 	stw	r2,52(r4)
 200c410:	8809883a 	mov	r4,r17
 200c414:	200d3a80 	call	200d3a8 <_Unwind_SjLj_RaiseException>
 200c418:	8809883a 	mov	r4,r17
 200c41c:	200c6cc0 	call	200c6cc <__cxa_begin_catch>
 200c420:	200c5500 	call	200c550 <_ZSt9terminatev>

0200c424 <_Z23__gxx_exception_cleanup19_Unwind_Reason_CodeP17_Unwind_Exception>:
 200c424:	defffe04 	addi	sp,sp,-8
 200c428:	00800044 	movi	r2,1
 200c42c:	dfc00115 	stw	ra,4(sp)
 200c430:	dc000015 	stw	r16,0(sp)
 200c434:	28fff504 	addi	r3,r5,-44
 200c438:	11001036 	bltu	r2,r4,200c47c <_Z23__gxx_exception_cleanup19_Unwind_Reason_CodeP17_Unwind_Exception+0x58>
 200c43c:	18800117 	ldw	r2,4(r3)
 200c440:	10000826 	beq	r2,zero,200c464 <_Z23__gxx_exception_cleanup19_Unwind_Reason_CodeP17_Unwind_Exception+0x40>
 200c444:	2c000504 	addi	r16,r5,20
 200c448:	8009883a 	mov	r4,r16
 200c44c:	103ee83a 	callr	r2
 200c450:	8009883a 	mov	r4,r16
 200c454:	dfc00117 	ldw	ra,4(sp)
 200c458:	dc000017 	ldw	r16,0(sp)
 200c45c:	dec00204 	addi	sp,sp,8
 200c460:	200c1701 	jmpi	200c170 <__cxa_free_exception>
 200c464:	2c000504 	addi	r16,r5,20
 200c468:	8009883a 	mov	r4,r16
 200c46c:	dfc00117 	ldw	ra,4(sp)
 200c470:	dc000017 	ldw	r16,0(sp)
 200c474:	dec00204 	addi	sp,sp,8
 200c478:	200c1701 	jmpi	200c170 <__cxa_free_exception>
 200c47c:	19000317 	ldw	r4,12(r3)
 200c480:	200c4ac0 	call	200c4ac <_ZN10__cxxabiv111__terminateEPFvvE>

0200c484 <_ZSt13set_terminatePFvvE>:
 200c484:	00c08074 	movhi	r3,513
 200c488:	18d1bb04 	addi	r3,r3,18156
 200c48c:	18800017 	ldw	r2,0(r3)
 200c490:	19000015 	stw	r4,0(r3)
 200c494:	f800283a 	ret

0200c498 <_ZSt14set_unexpectedPFvvE>:
 200c498:	00c08074 	movhi	r3,513
 200c49c:	18d1b904 	addi	r3,r3,18148
 200c4a0:	18800017 	ldw	r2,0(r3)
 200c4a4:	19000015 	stw	r4,0(r3)
 200c4a8:	f800283a 	ret

0200c4ac <_ZN10__cxxabiv111__terminateEPFvvE>:
 200c4ac:	deffed04 	addi	sp,sp,-76
 200c4b0:	00808074 	movhi	r2,513
 200c4b4:	10adca04 	addi	r2,r2,-18648
 200c4b8:	d8800615 	stw	r2,24(sp)
 200c4bc:	00c08074 	movhi	r3,513
 200c4c0:	18c96004 	addi	r3,r3,9600
 200c4c4:	00808074 	movhi	r2,513
 200c4c8:	10b14204 	addi	r2,r2,-15096
 200c4cc:	d9000d15 	stw	r4,52(sp)
 200c4d0:	d809883a 	mov	r4,sp
 200c4d4:	d8800915 	stw	r2,36(sp)
 200c4d8:	dfc01215 	stw	ra,72(sp)
 200c4dc:	df001115 	stw	fp,68(sp)
 200c4e0:	ddc01015 	stw	r23,64(sp)
 200c4e4:	d8c00715 	stw	r3,28(sp)
 200c4e8:	dec00815 	stw	sp,32(sp)
 200c4ec:	dec00a15 	stw	sp,40(sp)
 200c4f0:	200d0800 	call	200d080 <_Unwind_SjLj_Register>
 200c4f4:	00800084 	movi	r2,2
 200c4f8:	d8800115 	stw	r2,4(sp)
 200c4fc:	d8800d17 	ldw	r2,52(sp)
 200c500:	103ee83a 	callr	r2
 200c504:	200d5c80 	call	200d5c8 <abort>
 200c508:	d8800117 	ldw	r2,4(sp)
 200c50c:	d8c00217 	ldw	r3,8(sp)
 200c510:	d8800f15 	stw	r2,60(sp)
 200c514:	d8c00e15 	stw	r3,56(sp)
 200c518:	d8c00f17 	ldw	r3,60(sp)
 200c51c:	00800044 	movi	r2,1
 200c520:	18800626 	beq	r3,r2,200c53c <_ZN10__cxxabiv111__terminateEPFvvE+0x90>
 200c524:	d8000115 	stw	zero,4(sp)
 200c528:	200c6280 	call	200c628 <__cxa_end_catch>
 200c52c:	d9000e17 	ldw	r4,56(sp)
 200c530:	00bfffc4 	movi	r2,-1
 200c534:	d8800115 	stw	r2,4(sp)
 200c538:	200d34c0 	call	200d34c <_Unwind_SjLj_Resume>
 200c53c:	d9000e17 	ldw	r4,56(sp)
 200c540:	200c6cc0 	call	200c6cc <__cxa_begin_catch>
 200c544:	d8c00f17 	ldw	r3,60(sp)
 200c548:	d8c00115 	stw	r3,4(sp)
 200c54c:	200d5c80 	call	200d5c8 <abort>

0200c550 <_ZSt9terminatev>:
 200c550:	00808074 	movhi	r2,513
 200c554:	1091bb04 	addi	r2,r2,18156
 200c558:	11000017 	ldw	r4,0(r2)
 200c55c:	deffff04 	addi	sp,sp,-4
 200c560:	dfc00015 	stw	ra,0(sp)
 200c564:	200c4ac0 	call	200c4ac <_ZN10__cxxabiv111__terminateEPFvvE>

0200c568 <_ZN10__cxxabiv112__unexpectedEPFvvE>:
 200c568:	deffff04 	addi	sp,sp,-4
 200c56c:	dfc00015 	stw	ra,0(sp)
 200c570:	203ee83a 	callr	r4
 200c574:	200c5500 	call	200c550 <_ZSt9terminatev>

0200c578 <_ZSt10unexpectedv>:
 200c578:	00808074 	movhi	r2,513
 200c57c:	1091b904 	addi	r2,r2,18148
 200c580:	11000017 	ldw	r4,0(r2)
 200c584:	deffff04 	addi	sp,sp,-4
 200c588:	dfc00015 	stw	ra,0(sp)
 200c58c:	200c5680 	call	200c568 <_ZN10__cxxabiv112__unexpectedEPFvvE>

0200c590 <__cxa_get_globals_fast>:
 200c590:	d0a70304 	addi	r2,gp,-25588
 200c594:	f800283a 	ret

0200c598 <__cxa_get_globals>:
 200c598:	d0a70304 	addi	r2,gp,-25588
 200c59c:	f800283a 	ret

0200c5a0 <_ZSt15set_new_handlerPFvvE>:
 200c5a0:	d0a70517 	ldw	r2,-25580(gp)
 200c5a4:	d1270515 	stw	r4,-25580(gp)
 200c5a8:	f800283a 	ret

0200c5ac <_ZNSt9bad_allocD0Ev>:
 200c5ac:	defffe04 	addi	sp,sp,-8
 200c5b0:	00808074 	movhi	r2,513
 200c5b4:	108a9304 	addi	r2,r2,10828
 200c5b8:	dc400015 	stw	r17,0(sp)
 200c5bc:	20800015 	stw	r2,0(r4)
 200c5c0:	2023883a 	mov	r17,r4
 200c5c4:	dfc00115 	stw	ra,4(sp)
 200c5c8:	200bc380 	call	200bc38 <_ZNSt9exceptionD2Ev>
 200c5cc:	8809883a 	mov	r4,r17
 200c5d0:	dfc00117 	ldw	ra,4(sp)
 200c5d4:	dc400017 	ldw	r17,0(sp)
 200c5d8:	dec00204 	addi	sp,sp,8
 200c5dc:	200bc9c1 	jmpi	200bc9c <_ZdlPv>

0200c5e0 <_ZNSt9bad_allocD1Ev>:
 200c5e0:	00808074 	movhi	r2,513
 200c5e4:	108a9304 	addi	r2,r2,10828
 200c5e8:	20800015 	stw	r2,0(r4)
 200c5ec:	200bc381 	jmpi	200bc38 <_ZNSt9exceptionD2Ev>

0200c5f0 <_ZNSt9bad_allocD2Ev>:
 200c5f0:	00808074 	movhi	r2,513
 200c5f4:	108a9304 	addi	r2,r2,10828
 200c5f8:	20800015 	stw	r2,0(r4)
 200c5fc:	200bc381 	jmpi	200bc38 <_ZNSt9exceptionD2Ev>

0200c600 <__cxa_get_exception_ptr>:
 200c600:	20bfff17 	ldw	r2,-4(r4)
 200c604:	f800283a 	ret

0200c608 <_ZSt18uncaught_exceptionv>:
 200c608:	deffff04 	addi	sp,sp,-4
 200c60c:	dfc00015 	stw	ra,0(sp)
 200c610:	200c5980 	call	200c598 <__cxa_get_globals>
 200c614:	10800117 	ldw	r2,4(r2)
 200c618:	1004c03a 	cmpne	r2,r2,zero
 200c61c:	dfc00017 	ldw	ra,0(sp)
 200c620:	dec00104 	addi	sp,sp,4
 200c624:	f800283a 	ret

0200c628 <__cxa_end_catch>:
 200c628:	deffff04 	addi	sp,sp,-4
 200c62c:	dfc00015 	stw	ra,0(sp)
 200c630:	200c5900 	call	200c590 <__cxa_get_globals_fast>
 200c634:	11000017 	ldw	r4,0(r2)
 200c638:	1007883a 	mov	r3,r2
 200c63c:	20001326 	beq	r4,zero,200c68c <__cxa_end_catch+0x64>
 200c640:	21400b17 	ldw	r5,44(r4)
 200c644:	0090caf4 	movhi	r2,17195
 200c648:	108ac004 	addi	r2,r2,11008
 200c64c:	21800c17 	ldw	r6,48(r4)
 200c650:	28800526 	beq	r5,r2,200c668 <__cxa_end_catch+0x40>
 200c654:	21000b04 	addi	r4,r4,44
 200c658:	18000015 	stw	zero,0(r3)
 200c65c:	dfc00017 	ldw	ra,0(sp)
 200c660:	dec00104 	addi	sp,sp,4
 200c664:	200d2401 	jmpi	200d240 <_Unwind_DeleteException>
 200c668:	0091d3b4 	movhi	r2,18254
 200c66c:	109550c4 	addi	r2,r2,21827
 200c670:	30bff81e 	bne	r6,r2,200c654 <__cxa_end_catch+0x2c>
 200c674:	20800517 	ldw	r2,20(r4)
 200c678:	10000e16 	blt	r2,zero,200c6b4 <__cxa_end_catch+0x8c>
 200c67c:	117fffc4 	addi	r5,r2,-1
 200c680:	28000526 	beq	r5,zero,200c698 <__cxa_end_catch+0x70>
 200c684:	28000a16 	blt	r5,zero,200c6b0 <__cxa_end_catch+0x88>
 200c688:	21400515 	stw	r5,20(r4)
 200c68c:	dfc00017 	ldw	ra,0(sp)
 200c690:	dec00104 	addi	sp,sp,4
 200c694:	f800283a 	ret
 200c698:	20800417 	ldw	r2,16(r4)
 200c69c:	21000b04 	addi	r4,r4,44
 200c6a0:	18800015 	stw	r2,0(r3)
 200c6a4:	dfc00017 	ldw	ra,0(sp)
 200c6a8:	dec00104 	addi	sp,sp,4
 200c6ac:	200d2401 	jmpi	200d240 <_Unwind_DeleteException>
 200c6b0:	200c5500 	call	200c550 <_ZSt9terminatev>
 200c6b4:	11400044 	addi	r5,r2,1
 200c6b8:	283ff31e 	bne	r5,zero,200c688 <__cxa_end_catch+0x60>
 200c6bc:	20800417 	ldw	r2,16(r4)
 200c6c0:	21400515 	stw	r5,20(r4)
 200c6c4:	18800015 	stw	r2,0(r3)
 200c6c8:	003ff006 	br	200c68c <__cxa_end_catch+0x64>

0200c6cc <__cxa_begin_catch>:
 200c6cc:	deffee04 	addi	sp,sp,-72
 200c6d0:	00808074 	movhi	r2,513
 200c6d4:	10adca04 	addi	r2,r2,-18648
 200c6d8:	00c08074 	movhi	r3,513
 200c6dc:	18c96404 	addi	r3,r3,9616
 200c6e0:	d8800615 	stw	r2,24(sp)
 200c6e4:	d9000e15 	stw	r4,56(sp)
 200c6e8:	00808074 	movhi	r2,513
 200c6ec:	10b1f004 	addi	r2,r2,-14400
 200c6f0:	d809883a 	mov	r4,sp
 200c6f4:	d8c00715 	stw	r3,28(sp)
 200c6f8:	dfc01115 	stw	ra,68(sp)
 200c6fc:	d8800915 	stw	r2,36(sp)
 200c700:	df001015 	stw	fp,64(sp)
 200c704:	ddc00f15 	stw	r23,60(sp)
 200c708:	dec00815 	stw	sp,32(sp)
 200c70c:	dec00a15 	stw	sp,40(sp)
 200c710:	200d0800 	call	200d080 <_Unwind_SjLj_Register>
 200c714:	200c5980 	call	200c598 <__cxa_get_globals>
 200c718:	100d883a 	mov	r6,r2
 200c71c:	d8800e17 	ldw	r2,56(sp)
 200c720:	31c00017 	ldw	r7,0(r6)
 200c724:	117ff504 	addi	r5,r2,-44
 200c728:	28c00b17 	ldw	r3,44(r5)
 200c72c:	0090caf4 	movhi	r2,17195
 200c730:	108ac004 	addi	r2,r2,11008
 200c734:	29000c17 	ldw	r4,48(r5)
 200c738:	18800b26 	beq	r3,r2,200c768 <__cxa_begin_catch+0x9c>
 200c73c:	38001d1e 	bne	r7,zero,200c7b4 <__cxa_begin_catch+0xe8>
 200c740:	d8000d15 	stw	zero,52(sp)
 200c744:	31400015 	stw	r5,0(r6)
 200c748:	d809883a 	mov	r4,sp
 200c74c:	200d0900 	call	200d090 <_Unwind_SjLj_Unregister>
 200c750:	d8800d17 	ldw	r2,52(sp)
 200c754:	dfc01117 	ldw	ra,68(sp)
 200c758:	df001017 	ldw	fp,64(sp)
 200c75c:	ddc00f17 	ldw	r23,60(sp)
 200c760:	dec01204 	addi	sp,sp,72
 200c764:	f800283a 	ret
 200c768:	0091d3b4 	movhi	r2,18254
 200c76c:	109550c4 	addi	r2,r2,21827
 200c770:	20bff21e 	bne	r4,r2,200c73c <__cxa_begin_catch+0x70>
 200c774:	28c00517 	ldw	r3,20(r5)
 200c778:	18000b16 	blt	r3,zero,200c7a8 <__cxa_begin_catch+0xdc>
 200c77c:	18800044 	addi	r2,r3,1
 200c780:	28800515 	stw	r2,20(r5)
 200c784:	30800117 	ldw	r2,4(r6)
 200c788:	10bfffc4 	addi	r2,r2,-1
 200c78c:	30800115 	stw	r2,4(r6)
 200c790:	39400226 	beq	r7,r5,200c79c <__cxa_begin_catch+0xd0>
 200c794:	29c00415 	stw	r7,16(r5)
 200c798:	31400015 	stw	r5,0(r6)
 200c79c:	29400a17 	ldw	r5,40(r5)
 200c7a0:	d9400d15 	stw	r5,52(sp)
 200c7a4:	003fe806 	br	200c748 <__cxa_begin_catch+0x7c>
 200c7a8:	00800044 	movi	r2,1
 200c7ac:	10c5c83a 	sub	r2,r2,r3
 200c7b0:	003ff306 	br	200c780 <__cxa_begin_catch+0xb4>
 200c7b4:	00800044 	movi	r2,1
 200c7b8:	d8800115 	stw	r2,4(sp)
 200c7bc:	200c5500 	call	200c550 <_ZSt9terminatev>
 200c7c0:	d8800317 	ldw	r2,12(sp)
 200c7c4:	00ffffc4 	movi	r3,-1
 200c7c8:	d9000217 	ldw	r4,8(sp)
 200c7cc:	10c00226 	beq	r2,r3,200c7d8 <__cxa_begin_catch+0x10c>
 200c7d0:	d8c00115 	stw	r3,4(sp)
 200c7d4:	200d34c0 	call	200d34c <_Unwind_SjLj_Resume>
 200c7d8:	00bfffc4 	movi	r2,-1
 200c7dc:	d8800115 	stw	r2,4(sp)
 200c7e0:	200b5a80 	call	200b5a8 <__cxa_call_unexpected>

0200c7e4 <__divdi3>:
 200c7e4:	2005883a 	mov	r2,r4
 200c7e8:	deffef04 	addi	sp,sp,-68
 200c7ec:	2807883a 	mov	r3,r5
 200c7f0:	1019883a 	mov	r12,r2
 200c7f4:	0005883a 	mov	r2,zero
 200c7f8:	dfc01015 	stw	ra,64(sp)
 200c7fc:	df000f15 	stw	fp,60(sp)
 200c800:	ddc00e15 	stw	r23,56(sp)
 200c804:	dd800d15 	stw	r22,52(sp)
 200c808:	dd400c15 	stw	r21,48(sp)
 200c80c:	dd000b15 	stw	r20,44(sp)
 200c810:	dcc00a15 	stw	r19,40(sp)
 200c814:	dc800915 	stw	r18,36(sp)
 200c818:	dc400815 	stw	r17,32(sp)
 200c81c:	dc000715 	stw	r16,28(sp)
 200c820:	181b883a 	mov	r13,r3
 200c824:	d8800515 	stw	r2,20(sp)
 200c828:	3015883a 	mov	r10,r6
 200c82c:	3817883a 	mov	r11,r7
 200c830:	d8800615 	stw	r2,24(sp)
 200c834:	1800c716 	blt	r3,zero,200cb54 <__divdi3+0x370>
 200c838:	d8000415 	stw	zero,16(sp)
 200c83c:	5800ba16 	blt	r11,zero,200cb28 <__divdi3+0x344>
 200c840:	5027883a 	mov	r19,r10
 200c844:	602d883a 	mov	r22,r12
 200c848:	682b883a 	mov	r21,r13
 200c84c:	5800401e 	bne	r11,zero,200c950 <__divdi3+0x16c>
 200c850:	6a805e36 	bltu	r13,r10,200c9cc <__divdi3+0x1e8>
 200c854:	5000db26 	beq	r10,zero,200cbc4 <__divdi3+0x3e0>
 200c858:	00bfffd4 	movui	r2,65535
 200c85c:	14c0c736 	bltu	r2,r19,200cb7c <__divdi3+0x398>
 200c860:	00803fc4 	movi	r2,255
 200c864:	14c18236 	bltu	r2,r19,200ce70 <__divdi3+0x68c>
 200c868:	000b883a 	mov	r5,zero
 200c86c:	0005883a 	mov	r2,zero
 200c870:	9884d83a 	srl	r2,r19,r2
 200c874:	01008074 	movhi	r4,513
 200c878:	210a9d04 	addi	r4,r4,10868
 200c87c:	01800804 	movi	r6,32
 200c880:	1105883a 	add	r2,r2,r4
 200c884:	10c00003 	ldbu	r3,0(r2)
 200c888:	28c7883a 	add	r3,r5,r3
 200c88c:	30e9c83a 	sub	r20,r6,r3
 200c890:	a0012d1e 	bne	r20,zero,200cd48 <__divdi3+0x564>
 200c894:	982ed43a 	srli	r23,r19,16
 200c898:	acebc83a 	sub	r21,r21,r19
 200c89c:	9f3fffcc 	andi	fp,r19,65535
 200c8a0:	05000044 	movi	r20,1
 200c8a4:	a809883a 	mov	r4,r21
 200c8a8:	b80b883a 	mov	r5,r23
 200c8ac:	200d0380 	call	200d038 <__udivsi3>
 200c8b0:	100b883a 	mov	r5,r2
 200c8b4:	e009883a 	mov	r4,fp
 200c8b8:	1021883a 	mov	r16,r2
 200c8bc:	200d0480 	call	200d048 <__mulsi3>
 200c8c0:	a809883a 	mov	r4,r21
 200c8c4:	b80b883a 	mov	r5,r23
 200c8c8:	1023883a 	mov	r17,r2
 200c8cc:	200d0400 	call	200d040 <__umodsi3>
 200c8d0:	1004943a 	slli	r2,r2,16
 200c8d4:	b006d43a 	srli	r3,r22,16
 200c8d8:	10c4b03a 	or	r2,r2,r3
 200c8dc:	1440042e 	bgeu	r2,r17,200c8f0 <__divdi3+0x10c>
 200c8e0:	14c5883a 	add	r2,r2,r19
 200c8e4:	843fffc4 	addi	r16,r16,-1
 200c8e8:	14c00136 	bltu	r2,r19,200c8f0 <__divdi3+0x10c>
 200c8ec:	14418036 	bltu	r2,r17,200cef0 <__divdi3+0x70c>
 200c8f0:	1463c83a 	sub	r17,r2,r17
 200c8f4:	8809883a 	mov	r4,r17
 200c8f8:	b80b883a 	mov	r5,r23
 200c8fc:	200d0380 	call	200d038 <__udivsi3>
 200c900:	100b883a 	mov	r5,r2
 200c904:	e009883a 	mov	r4,fp
 200c908:	102b883a 	mov	r21,r2
 200c90c:	200d0480 	call	200d048 <__mulsi3>
 200c910:	8809883a 	mov	r4,r17
 200c914:	b80b883a 	mov	r5,r23
 200c918:	1025883a 	mov	r18,r2
 200c91c:	200d0400 	call	200d040 <__umodsi3>
 200c920:	1004943a 	slli	r2,r2,16
 200c924:	b0ffffcc 	andi	r3,r22,65535
 200c928:	10c4b03a 	or	r2,r2,r3
 200c92c:	1480042e 	bgeu	r2,r18,200c940 <__divdi3+0x15c>
 200c930:	9885883a 	add	r2,r19,r2
 200c934:	ad7fffc4 	addi	r21,r21,-1
 200c938:	14c00136 	bltu	r2,r19,200c940 <__divdi3+0x15c>
 200c93c:	14816536 	bltu	r2,r18,200ced4 <__divdi3+0x6f0>
 200c940:	8004943a 	slli	r2,r16,16
 200c944:	a00b883a 	mov	r5,r20
 200c948:	a884b03a 	or	r2,r21,r2
 200c94c:	00000406 	br	200c960 <__divdi3+0x17c>
 200c950:	5811883a 	mov	r8,r11
 200c954:	6ac05f2e 	bgeu	r13,r11,200cad4 <__divdi3+0x2f0>
 200c958:	0005883a 	mov	r2,zero
 200c95c:	000b883a 	mov	r5,zero
 200c960:	d8c00417 	ldw	r3,16(sp)
 200c964:	d8800515 	stw	r2,20(sp)
 200c968:	d9400615 	stw	r5,24(sp)
 200c96c:	100d883a 	mov	r6,r2
 200c970:	280f883a 	mov	r7,r5
 200c974:	18000726 	beq	r3,zero,200c994 <__divdi3+0x1b0>
 200c978:	0009883a 	mov	r4,zero
 200c97c:	2085c83a 	sub	r2,r4,r2
 200c980:	2089803a 	cmpltu	r4,r4,r2
 200c984:	0147c83a 	sub	r3,zero,r5
 200c988:	1909c83a 	sub	r4,r3,r4
 200c98c:	100d883a 	mov	r6,r2
 200c990:	200f883a 	mov	r7,r4
 200c994:	3005883a 	mov	r2,r6
 200c998:	3807883a 	mov	r3,r7
 200c99c:	dfc01017 	ldw	ra,64(sp)
 200c9a0:	df000f17 	ldw	fp,60(sp)
 200c9a4:	ddc00e17 	ldw	r23,56(sp)
 200c9a8:	dd800d17 	ldw	r22,52(sp)
 200c9ac:	dd400c17 	ldw	r21,48(sp)
 200c9b0:	dd000b17 	ldw	r20,44(sp)
 200c9b4:	dcc00a17 	ldw	r19,40(sp)
 200c9b8:	dc800917 	ldw	r18,36(sp)
 200c9bc:	dc400817 	ldw	r17,32(sp)
 200c9c0:	dc000717 	ldw	r16,28(sp)
 200c9c4:	dec01104 	addi	sp,sp,68
 200c9c8:	f800283a 	ret
 200c9cc:	00bfffd4 	movui	r2,65535
 200c9d0:	12807636 	bltu	r2,r10,200cbac <__divdi3+0x3c8>
 200c9d4:	00803fc4 	movi	r2,255
 200c9d8:	12811f36 	bltu	r2,r10,200ce58 <__divdi3+0x674>
 200c9dc:	000b883a 	mov	r5,zero
 200c9e0:	0005883a 	mov	r2,zero
 200c9e4:	9884d83a 	srl	r2,r19,r2
 200c9e8:	01008074 	movhi	r4,513
 200c9ec:	210a9d04 	addi	r4,r4,10868
 200c9f0:	01800804 	movi	r6,32
 200c9f4:	1105883a 	add	r2,r2,r4
 200c9f8:	10c00003 	ldbu	r3,0(r2)
 200c9fc:	28c7883a 	add	r3,r5,r3
 200ca00:	30d1c83a 	sub	r8,r6,r3
 200ca04:	40000626 	beq	r8,zero,200ca20 <__divdi3+0x23c>
 200ca08:	3205c83a 	sub	r2,r6,r8
 200ca0c:	b084d83a 	srl	r2,r22,r2
 200ca10:	aa06983a 	sll	r3,r21,r8
 200ca14:	b22c983a 	sll	r22,r22,r8
 200ca18:	9a26983a 	sll	r19,r19,r8
 200ca1c:	18aab03a 	or	r21,r3,r2
 200ca20:	982ed43a 	srli	r23,r19,16
 200ca24:	a809883a 	mov	r4,r21
 200ca28:	9cbfffcc 	andi	r18,r19,65535
 200ca2c:	b80b883a 	mov	r5,r23
 200ca30:	200d0380 	call	200d038 <__udivsi3>
 200ca34:	100b883a 	mov	r5,r2
 200ca38:	9009883a 	mov	r4,r18
 200ca3c:	1021883a 	mov	r16,r2
 200ca40:	200d0480 	call	200d048 <__mulsi3>
 200ca44:	a809883a 	mov	r4,r21
 200ca48:	b80b883a 	mov	r5,r23
 200ca4c:	1023883a 	mov	r17,r2
 200ca50:	200d0400 	call	200d040 <__umodsi3>
 200ca54:	1004943a 	slli	r2,r2,16
 200ca58:	b006d43a 	srli	r3,r22,16
 200ca5c:	10c4b03a 	or	r2,r2,r3
 200ca60:	1440042e 	bgeu	r2,r17,200ca74 <__divdi3+0x290>
 200ca64:	14c5883a 	add	r2,r2,r19
 200ca68:	843fffc4 	addi	r16,r16,-1
 200ca6c:	14c00136 	bltu	r2,r19,200ca74 <__divdi3+0x290>
 200ca70:	14411c36 	bltu	r2,r17,200cee4 <__divdi3+0x700>
 200ca74:	1463c83a 	sub	r17,r2,r17
 200ca78:	8809883a 	mov	r4,r17
 200ca7c:	b80b883a 	mov	r5,r23
 200ca80:	200d0380 	call	200d038 <__udivsi3>
 200ca84:	100b883a 	mov	r5,r2
 200ca88:	9009883a 	mov	r4,r18
 200ca8c:	102b883a 	mov	r21,r2
 200ca90:	200d0480 	call	200d048 <__mulsi3>
 200ca94:	8809883a 	mov	r4,r17
 200ca98:	b80b883a 	mov	r5,r23
 200ca9c:	1025883a 	mov	r18,r2
 200caa0:	200d0400 	call	200d040 <__umodsi3>
 200caa4:	1004943a 	slli	r2,r2,16
 200caa8:	b0ffffcc 	andi	r3,r22,65535
 200caac:	10c4b03a 	or	r2,r2,r3
 200cab0:	1480042e 	bgeu	r2,r18,200cac4 <__divdi3+0x2e0>
 200cab4:	9885883a 	add	r2,r19,r2
 200cab8:	ad7fffc4 	addi	r21,r21,-1
 200cabc:	14c00136 	bltu	r2,r19,200cac4 <__divdi3+0x2e0>
 200cac0:	14810636 	bltu	r2,r18,200cedc <__divdi3+0x6f8>
 200cac4:	8004943a 	slli	r2,r16,16
 200cac8:	000b883a 	mov	r5,zero
 200cacc:	a884b03a 	or	r2,r21,r2
 200cad0:	003fa306 	br	200c960 <__divdi3+0x17c>
 200cad4:	00bfffd4 	movui	r2,65535
 200cad8:	12c02e36 	bltu	r2,r11,200cb94 <__divdi3+0x3b0>
 200cadc:	00803fc4 	movi	r2,255
 200cae0:	12c0e636 	bltu	r2,r11,200ce7c <__divdi3+0x698>
 200cae4:	000b883a 	mov	r5,zero
 200cae8:	0005883a 	mov	r2,zero
 200caec:	4084d83a 	srl	r2,r8,r2
 200caf0:	01008074 	movhi	r4,513
 200caf4:	210a9d04 	addi	r4,r4,10868
 200caf8:	01800804 	movi	r6,32
 200cafc:	1105883a 	add	r2,r2,r4
 200cb00:	10c00003 	ldbu	r3,0(r2)
 200cb04:	28c7883a 	add	r3,r5,r3
 200cb08:	30c7c83a 	sub	r3,r6,r3
 200cb0c:	d8c00215 	stw	r3,8(sp)
 200cb10:	1800331e 	bne	r3,zero,200cbe0 <__divdi3+0x3fc>
 200cb14:	45400136 	bltu	r8,r21,200cb1c <__divdi3+0x338>
 200cb18:	b4ff8f36 	bltu	r22,r19,200c958 <__divdi3+0x174>
 200cb1c:	00800044 	movi	r2,1
 200cb20:	000b883a 	mov	r5,zero
 200cb24:	003f8e06 	br	200c960 <__divdi3+0x17c>
 200cb28:	0009883a 	mov	r4,zero
 200cb2c:	2285c83a 	sub	r2,r4,r10
 200cb30:	2089803a 	cmpltu	r4,r4,r2
 200cb34:	1015883a 	mov	r10,r2
 200cb38:	d8800417 	ldw	r2,16(sp)
 200cb3c:	02c7c83a 	sub	r3,zero,r11
 200cb40:	1909c83a 	sub	r4,r3,r4
 200cb44:	0084303a 	nor	r2,zero,r2
 200cb48:	2017883a 	mov	r11,r4
 200cb4c:	d8800415 	stw	r2,16(sp)
 200cb50:	003f3b06 	br	200c840 <__divdi3+0x5c>
 200cb54:	0009883a 	mov	r4,zero
 200cb58:	2305c83a 	sub	r2,r4,r12
 200cb5c:	00c7c83a 	sub	r3,zero,r3
 200cb60:	2089803a 	cmpltu	r4,r4,r2
 200cb64:	1909c83a 	sub	r4,r3,r4
 200cb68:	1019883a 	mov	r12,r2
 200cb6c:	00ffffc4 	movi	r3,-1
 200cb70:	201b883a 	mov	r13,r4
 200cb74:	d8c00415 	stw	r3,16(sp)
 200cb78:	003f3006 	br	200c83c <__divdi3+0x58>
 200cb7c:	00804034 	movhi	r2,256
 200cb80:	10bfffc4 	addi	r2,r2,-1
 200cb84:	14c0c036 	bltu	r2,r19,200ce88 <__divdi3+0x6a4>
 200cb88:	01400404 	movi	r5,16
 200cb8c:	2805883a 	mov	r2,r5
 200cb90:	003f3706 	br	200c870 <__divdi3+0x8c>
 200cb94:	00804034 	movhi	r2,256
 200cb98:	10bfffc4 	addi	r2,r2,-1
 200cb9c:	12c0b136 	bltu	r2,r11,200ce64 <__divdi3+0x680>
 200cba0:	01400404 	movi	r5,16
 200cba4:	2805883a 	mov	r2,r5
 200cba8:	003fd006 	br	200caec <__divdi3+0x308>
 200cbac:	00804034 	movhi	r2,256
 200cbb0:	10bfffc4 	addi	r2,r2,-1
 200cbb4:	1280b736 	bltu	r2,r10,200ce94 <__divdi3+0x6b0>
 200cbb8:	01400404 	movi	r5,16
 200cbbc:	2805883a 	mov	r2,r5
 200cbc0:	003f8806 	br	200c9e4 <__divdi3+0x200>
 200cbc4:	01000044 	movi	r4,1
 200cbc8:	000b883a 	mov	r5,zero
 200cbcc:	200d0380 	call	200d038 <__udivsi3>
 200cbd0:	1027883a 	mov	r19,r2
 200cbd4:	00bfffd4 	movui	r2,65535
 200cbd8:	14ffe836 	bltu	r2,r19,200cb7c <__divdi3+0x398>
 200cbdc:	003f2006 	br	200c860 <__divdi3+0x7c>
 200cbe0:	d8c00217 	ldw	r3,8(sp)
 200cbe4:	30c5c83a 	sub	r2,r6,r3
 200cbe8:	40c8983a 	sll	r4,r8,r3
 200cbec:	9886d83a 	srl	r3,r19,r2
 200cbf0:	a8a2d83a 	srl	r17,r21,r2
 200cbf4:	b084d83a 	srl	r2,r22,r2
 200cbf8:	20e4b03a 	or	r18,r4,r3
 200cbfc:	d9000217 	ldw	r4,8(sp)
 200cc00:	902ed43a 	srli	r23,r18,16
 200cc04:	953fffcc 	andi	r20,r18,65535
 200cc08:	a906983a 	sll	r3,r21,r4
 200cc0c:	b80b883a 	mov	r5,r23
 200cc10:	8809883a 	mov	r4,r17
 200cc14:	1886b03a 	or	r3,r3,r2
 200cc18:	d8c00115 	stw	r3,4(sp)
 200cc1c:	200d0380 	call	200d038 <__udivsi3>
 200cc20:	100b883a 	mov	r5,r2
 200cc24:	a009883a 	mov	r4,r20
 200cc28:	1039883a 	mov	fp,r2
 200cc2c:	200d0480 	call	200d048 <__mulsi3>
 200cc30:	8809883a 	mov	r4,r17
 200cc34:	b80b883a 	mov	r5,r23
 200cc38:	102b883a 	mov	r21,r2
 200cc3c:	200d0400 	call	200d040 <__umodsi3>
 200cc40:	d9000117 	ldw	r4,4(sp)
 200cc44:	1004943a 	slli	r2,r2,16
 200cc48:	2006d43a 	srli	r3,r4,16
 200cc4c:	d9000217 	ldw	r4,8(sp)
 200cc50:	10c4b03a 	or	r2,r2,r3
 200cc54:	9926983a 	sll	r19,r19,r4
 200cc58:	1540032e 	bgeu	r2,r21,200cc68 <__divdi3+0x484>
 200cc5c:	1485883a 	add	r2,r2,r18
 200cc60:	e73fffc4 	addi	fp,fp,-1
 200cc64:	1480972e 	bgeu	r2,r18,200cec4 <__divdi3+0x6e0>
 200cc68:	1563c83a 	sub	r17,r2,r21
 200cc6c:	8809883a 	mov	r4,r17
 200cc70:	b80b883a 	mov	r5,r23
 200cc74:	200d0380 	call	200d038 <__udivsi3>
 200cc78:	100b883a 	mov	r5,r2
 200cc7c:	a009883a 	mov	r4,r20
 200cc80:	1021883a 	mov	r16,r2
 200cc84:	200d0480 	call	200d048 <__mulsi3>
 200cc88:	8809883a 	mov	r4,r17
 200cc8c:	b80b883a 	mov	r5,r23
 200cc90:	1029883a 	mov	r20,r2
 200cc94:	200d0400 	call	200d040 <__umodsi3>
 200cc98:	d9000117 	ldw	r4,4(sp)
 200cc9c:	1004943a 	slli	r2,r2,16
 200cca0:	20ffffcc 	andi	r3,r4,65535
 200cca4:	10c6b03a 	or	r3,r2,r3
 200cca8:	1d00032e 	bgeu	r3,r20,200ccb8 <__divdi3+0x4d4>
 200ccac:	1c87883a 	add	r3,r3,r18
 200ccb0:	843fffc4 	addi	r16,r16,-1
 200ccb4:	1c807f2e 	bgeu	r3,r18,200ceb4 <__divdi3+0x6d0>
 200ccb8:	e004943a 	slli	r2,fp,16
 200ccbc:	982ed43a 	srli	r23,r19,16
 200ccc0:	9cffffcc 	andi	r19,r19,65535
 200ccc4:	80a0b03a 	or	r16,r16,r2
 200ccc8:	847fffcc 	andi	r17,r16,65535
 200cccc:	802ad43a 	srli	r21,r16,16
 200ccd0:	8809883a 	mov	r4,r17
 200ccd4:	980b883a 	mov	r5,r19
 200ccd8:	1d25c83a 	sub	r18,r3,r20
 200ccdc:	200d0480 	call	200d048 <__mulsi3>
 200cce0:	8809883a 	mov	r4,r17
 200cce4:	b80b883a 	mov	r5,r23
 200cce8:	1029883a 	mov	r20,r2
 200ccec:	200d0480 	call	200d048 <__mulsi3>
 200ccf0:	980b883a 	mov	r5,r19
 200ccf4:	a809883a 	mov	r4,r21
 200ccf8:	1023883a 	mov	r17,r2
 200ccfc:	200d0480 	call	200d048 <__mulsi3>
 200cd00:	a809883a 	mov	r4,r21
 200cd04:	b80b883a 	mov	r5,r23
 200cd08:	1027883a 	mov	r19,r2
 200cd0c:	200d0480 	call	200d048 <__mulsi3>
 200cd10:	1009883a 	mov	r4,r2
 200cd14:	a004d43a 	srli	r2,r20,16
 200cd18:	8ce3883a 	add	r17,r17,r19
 200cd1c:	1447883a 	add	r3,r2,r17
 200cd20:	1cc0022e 	bgeu	r3,r19,200cd2c <__divdi3+0x548>
 200cd24:	00800074 	movhi	r2,1
 200cd28:	2089883a 	add	r4,r4,r2
 200cd2c:	1804d43a 	srli	r2,r3,16
 200cd30:	2085883a 	add	r2,r4,r2
 200cd34:	90804536 	bltu	r18,r2,200ce4c <__divdi3+0x668>
 200cd38:	90803e26 	beq	r18,r2,200ce34 <__divdi3+0x650>
 200cd3c:	8005883a 	mov	r2,r16
 200cd40:	000b883a 	mov	r5,zero
 200cd44:	003f0606 	br	200c960 <__divdi3+0x17c>
 200cd48:	9d26983a 	sll	r19,r19,r20
 200cd4c:	3505c83a 	sub	r2,r6,r20
 200cd50:	a8a2d83a 	srl	r17,r21,r2
 200cd54:	982ed43a 	srli	r23,r19,16
 200cd58:	b084d83a 	srl	r2,r22,r2
 200cd5c:	ad06983a 	sll	r3,r21,r20
 200cd60:	8809883a 	mov	r4,r17
 200cd64:	b80b883a 	mov	r5,r23
 200cd68:	1886b03a 	or	r3,r3,r2
 200cd6c:	d8c00015 	stw	r3,0(sp)
 200cd70:	9f3fffcc 	andi	fp,r19,65535
 200cd74:	200d0380 	call	200d038 <__udivsi3>
 200cd78:	100b883a 	mov	r5,r2
 200cd7c:	e009883a 	mov	r4,fp
 200cd80:	d8800315 	stw	r2,12(sp)
 200cd84:	200d0480 	call	200d048 <__mulsi3>
 200cd88:	8809883a 	mov	r4,r17
 200cd8c:	b80b883a 	mov	r5,r23
 200cd90:	102b883a 	mov	r21,r2
 200cd94:	200d0400 	call	200d040 <__umodsi3>
 200cd98:	d9000017 	ldw	r4,0(sp)
 200cd9c:	1004943a 	slli	r2,r2,16
 200cda0:	2006d43a 	srli	r3,r4,16
 200cda4:	10c4b03a 	or	r2,r2,r3
 200cda8:	1540052e 	bgeu	r2,r21,200cdc0 <__divdi3+0x5dc>
 200cdac:	d8c00317 	ldw	r3,12(sp)
 200cdb0:	14c5883a 	add	r2,r2,r19
 200cdb4:	18ffffc4 	addi	r3,r3,-1
 200cdb8:	d8c00315 	stw	r3,12(sp)
 200cdbc:	14c0382e 	bgeu	r2,r19,200cea0 <__divdi3+0x6bc>
 200cdc0:	1563c83a 	sub	r17,r2,r21
 200cdc4:	8809883a 	mov	r4,r17
 200cdc8:	b80b883a 	mov	r5,r23
 200cdcc:	200d0380 	call	200d038 <__udivsi3>
 200cdd0:	100b883a 	mov	r5,r2
 200cdd4:	e009883a 	mov	r4,fp
 200cdd8:	1025883a 	mov	r18,r2
 200cddc:	200d0480 	call	200d048 <__mulsi3>
 200cde0:	8809883a 	mov	r4,r17
 200cde4:	b80b883a 	mov	r5,r23
 200cde8:	1021883a 	mov	r16,r2
 200cdec:	200d0400 	call	200d040 <__umodsi3>
 200cdf0:	d9000017 	ldw	r4,0(sp)
 200cdf4:	1004943a 	slli	r2,r2,16
 200cdf8:	20ffffcc 	andi	r3,r4,65535
 200cdfc:	10c6b03a 	or	r3,r2,r3
 200ce00:	1c00062e 	bgeu	r3,r16,200ce1c <__divdi3+0x638>
 200ce04:	1cc7883a 	add	r3,r3,r19
 200ce08:	94bfffc4 	addi	r18,r18,-1
 200ce0c:	1cc00336 	bltu	r3,r19,200ce1c <__divdi3+0x638>
 200ce10:	1c00022e 	bgeu	r3,r16,200ce1c <__divdi3+0x638>
 200ce14:	94bfffc4 	addi	r18,r18,-1
 200ce18:	1cc7883a 	add	r3,r3,r19
 200ce1c:	d9000317 	ldw	r4,12(sp)
 200ce20:	b52c983a 	sll	r22,r22,r20
 200ce24:	1c2bc83a 	sub	r21,r3,r16
 200ce28:	2004943a 	slli	r2,r4,16
 200ce2c:	90a8b03a 	or	r20,r18,r2
 200ce30:	003e9c06 	br	200c8a4 <__divdi3+0xc0>
 200ce34:	1804943a 	slli	r2,r3,16
 200ce38:	d8c00217 	ldw	r3,8(sp)
 200ce3c:	b0c8983a 	sll	r4,r22,r3
 200ce40:	a0ffffcc 	andi	r3,r20,65535
 200ce44:	10c5883a 	add	r2,r2,r3
 200ce48:	20bfbc2e 	bgeu	r4,r2,200cd3c <__divdi3+0x558>
 200ce4c:	80bfffc4 	addi	r2,r16,-1
 200ce50:	000b883a 	mov	r5,zero
 200ce54:	003ec206 	br	200c960 <__divdi3+0x17c>
 200ce58:	01400204 	movi	r5,8
 200ce5c:	2805883a 	mov	r2,r5
 200ce60:	003ee006 	br	200c9e4 <__divdi3+0x200>
 200ce64:	01400604 	movi	r5,24
 200ce68:	2805883a 	mov	r2,r5
 200ce6c:	003f1f06 	br	200caec <__divdi3+0x308>
 200ce70:	01400204 	movi	r5,8
 200ce74:	2805883a 	mov	r2,r5
 200ce78:	003e7d06 	br	200c870 <__divdi3+0x8c>
 200ce7c:	01400204 	movi	r5,8
 200ce80:	2805883a 	mov	r2,r5
 200ce84:	003f1906 	br	200caec <__divdi3+0x308>
 200ce88:	01400604 	movi	r5,24
 200ce8c:	2805883a 	mov	r2,r5
 200ce90:	003e7706 	br	200c870 <__divdi3+0x8c>
 200ce94:	01400604 	movi	r5,24
 200ce98:	2805883a 	mov	r2,r5
 200ce9c:	003ed106 	br	200c9e4 <__divdi3+0x200>
 200cea0:	157fc72e 	bgeu	r2,r21,200cdc0 <__divdi3+0x5dc>
 200cea4:	18ffffc4 	addi	r3,r3,-1
 200cea8:	14c5883a 	add	r2,r2,r19
 200ceac:	d8c00315 	stw	r3,12(sp)
 200ceb0:	003fc306 	br	200cdc0 <__divdi3+0x5dc>
 200ceb4:	1d3f802e 	bgeu	r3,r20,200ccb8 <__divdi3+0x4d4>
 200ceb8:	1c87883a 	add	r3,r3,r18
 200cebc:	843fffc4 	addi	r16,r16,-1
 200cec0:	003f7d06 	br	200ccb8 <__divdi3+0x4d4>
 200cec4:	157f682e 	bgeu	r2,r21,200cc68 <__divdi3+0x484>
 200cec8:	e73fffc4 	addi	fp,fp,-1
 200cecc:	1485883a 	add	r2,r2,r18
 200ced0:	003f6506 	br	200cc68 <__divdi3+0x484>
 200ced4:	ad7fffc4 	addi	r21,r21,-1
 200ced8:	003e9906 	br	200c940 <__divdi3+0x15c>
 200cedc:	ad7fffc4 	addi	r21,r21,-1
 200cee0:	003ef806 	br	200cac4 <__divdi3+0x2e0>
 200cee4:	843fffc4 	addi	r16,r16,-1
 200cee8:	14c5883a 	add	r2,r2,r19
 200ceec:	003ee106 	br	200ca74 <__divdi3+0x290>
 200cef0:	843fffc4 	addi	r16,r16,-1
 200cef4:	14c5883a 	add	r2,r2,r19
 200cef8:	003e7d06 	br	200c8f0 <__divdi3+0x10c>

0200cefc <udivmodsi4>:
 200cefc:	29001b2e 	bgeu	r5,r4,200cf6c <udivmodsi4+0x70>
 200cf00:	28001a16 	blt	r5,zero,200cf6c <udivmodsi4+0x70>
 200cf04:	00800044 	movi	r2,1
 200cf08:	0007883a 	mov	r3,zero
 200cf0c:	01c007c4 	movi	r7,31
 200cf10:	00000306 	br	200cf20 <udivmodsi4+0x24>
 200cf14:	19c01326 	beq	r3,r7,200cf64 <udivmodsi4+0x68>
 200cf18:	18c00044 	addi	r3,r3,1
 200cf1c:	28000416 	blt	r5,zero,200cf30 <udivmodsi4+0x34>
 200cf20:	294b883a 	add	r5,r5,r5
 200cf24:	1085883a 	add	r2,r2,r2
 200cf28:	293ffa36 	bltu	r5,r4,200cf14 <udivmodsi4+0x18>
 200cf2c:	10000d26 	beq	r2,zero,200cf64 <udivmodsi4+0x68>
 200cf30:	0007883a 	mov	r3,zero
 200cf34:	21400236 	bltu	r4,r5,200cf40 <udivmodsi4+0x44>
 200cf38:	2149c83a 	sub	r4,r4,r5
 200cf3c:	1886b03a 	or	r3,r3,r2
 200cf40:	1004d07a 	srli	r2,r2,1
 200cf44:	280ad07a 	srli	r5,r5,1
 200cf48:	103ffa1e 	bne	r2,zero,200cf34 <udivmodsi4+0x38>
 200cf4c:	30000226 	beq	r6,zero,200cf58 <udivmodsi4+0x5c>
 200cf50:	2005883a 	mov	r2,r4
 200cf54:	f800283a 	ret
 200cf58:	1809883a 	mov	r4,r3
 200cf5c:	2005883a 	mov	r2,r4
 200cf60:	f800283a 	ret
 200cf64:	0007883a 	mov	r3,zero
 200cf68:	003ff806 	br	200cf4c <udivmodsi4+0x50>
 200cf6c:	00800044 	movi	r2,1
 200cf70:	0007883a 	mov	r3,zero
 200cf74:	003fef06 	br	200cf34 <udivmodsi4+0x38>

0200cf78 <__divsi3>:
 200cf78:	defffe04 	addi	sp,sp,-8
 200cf7c:	dc000015 	stw	r16,0(sp)
 200cf80:	dfc00115 	stw	ra,4(sp)
 200cf84:	0021883a 	mov	r16,zero
 200cf88:	20000c16 	blt	r4,zero,200cfbc <__divsi3+0x44>
 200cf8c:	000d883a 	mov	r6,zero
 200cf90:	28000e16 	blt	r5,zero,200cfcc <__divsi3+0x54>
 200cf94:	200cefc0 	call	200cefc <udivmodsi4>
 200cf98:	1007883a 	mov	r3,r2
 200cf9c:	8005003a 	cmpeq	r2,r16,zero
 200cfa0:	1000011e 	bne	r2,zero,200cfa8 <__divsi3+0x30>
 200cfa4:	00c7c83a 	sub	r3,zero,r3
 200cfa8:	1805883a 	mov	r2,r3
 200cfac:	dfc00117 	ldw	ra,4(sp)
 200cfb0:	dc000017 	ldw	r16,0(sp)
 200cfb4:	dec00204 	addi	sp,sp,8
 200cfb8:	f800283a 	ret
 200cfbc:	0109c83a 	sub	r4,zero,r4
 200cfc0:	04000044 	movi	r16,1
 200cfc4:	000d883a 	mov	r6,zero
 200cfc8:	283ff20e 	bge	r5,zero,200cf94 <__divsi3+0x1c>
 200cfcc:	014bc83a 	sub	r5,zero,r5
 200cfd0:	8021003a 	cmpeq	r16,r16,zero
 200cfd4:	003fef06 	br	200cf94 <__divsi3+0x1c>

0200cfd8 <__modsi3>:
 200cfd8:	deffff04 	addi	sp,sp,-4
 200cfdc:	dfc00015 	stw	ra,0(sp)
 200cfe0:	01800044 	movi	r6,1
 200cfe4:	2807883a 	mov	r3,r5
 200cfe8:	20000416 	blt	r4,zero,200cffc <__modsi3+0x24>
 200cfec:	28000c16 	blt	r5,zero,200d020 <__modsi3+0x48>
 200cff0:	dfc00017 	ldw	ra,0(sp)
 200cff4:	dec00104 	addi	sp,sp,4
 200cff8:	200cefc1 	jmpi	200cefc <udivmodsi4>
 200cffc:	0109c83a 	sub	r4,zero,r4
 200d000:	28000b16 	blt	r5,zero,200d030 <__modsi3+0x58>
 200d004:	180b883a 	mov	r5,r3
 200d008:	01800044 	movi	r6,1
 200d00c:	200cefc0 	call	200cefc <udivmodsi4>
 200d010:	0085c83a 	sub	r2,zero,r2
 200d014:	dfc00017 	ldw	ra,0(sp)
 200d018:	dec00104 	addi	sp,sp,4
 200d01c:	f800283a 	ret
 200d020:	014bc83a 	sub	r5,zero,r5
 200d024:	dfc00017 	ldw	ra,0(sp)
 200d028:	dec00104 	addi	sp,sp,4
 200d02c:	200cefc1 	jmpi	200cefc <udivmodsi4>
 200d030:	0147c83a 	sub	r3,zero,r5
 200d034:	003ff306 	br	200d004 <__modsi3+0x2c>

0200d038 <__udivsi3>:
 200d038:	000d883a 	mov	r6,zero
 200d03c:	200cefc1 	jmpi	200cefc <udivmodsi4>

0200d040 <__umodsi3>:
 200d040:	01800044 	movi	r6,1
 200d044:	200cefc1 	jmpi	200cefc <udivmodsi4>

0200d048 <__mulsi3>:
 200d048:	20000a26 	beq	r4,zero,200d074 <__mulsi3+0x2c>
 200d04c:	0007883a 	mov	r3,zero
 200d050:	2080004c 	andi	r2,r4,1
 200d054:	1005003a 	cmpeq	r2,r2,zero
 200d058:	2008d07a 	srli	r4,r4,1
 200d05c:	1000011e 	bne	r2,zero,200d064 <__mulsi3+0x1c>
 200d060:	1947883a 	add	r3,r3,r5
 200d064:	294b883a 	add	r5,r5,r5
 200d068:	203ff91e 	bne	r4,zero,200d050 <__mulsi3+0x8>
 200d06c:	1805883a 	mov	r2,r3
 200d070:	f800283a 	ret
 200d074:	0007883a 	mov	r3,zero
 200d078:	1805883a 	mov	r2,r3
 200d07c:	f800283a 	ret

0200d080 <_Unwind_SjLj_Register>:
 200d080:	d0a70617 	ldw	r2,-25576(gp)
 200d084:	20800015 	stw	r2,0(r4)
 200d088:	d1270615 	stw	r4,-25576(gp)
 200d08c:	f800283a 	ret

0200d090 <_Unwind_SjLj_Unregister>:
 200d090:	20800017 	ldw	r2,0(r4)
 200d094:	d0a70615 	stw	r2,-25576(gp)
 200d098:	f800283a 	ret

0200d09c <_Unwind_GetGR>:
 200d09c:	20800017 	ldw	r2,0(r4)
 200d0a0:	294b883a 	add	r5,r5,r5
 200d0a4:	294b883a 	add	r5,r5,r5
 200d0a8:	288b883a 	add	r5,r5,r2
 200d0ac:	28800217 	ldw	r2,8(r5)
 200d0b0:	f800283a 	ret

0200d0b4 <_Unwind_GetCFA>:
 200d0b4:	21000017 	ldw	r4,0(r4)
 200d0b8:	0005883a 	mov	r2,zero
 200d0bc:	20000126 	beq	r4,zero,200d0c4 <_Unwind_GetCFA+0x10>
 200d0c0:	20800a17 	ldw	r2,40(r4)
 200d0c4:	f800283a 	ret

0200d0c8 <_Unwind_SetGR>:
 200d0c8:	20800017 	ldw	r2,0(r4)
 200d0cc:	294b883a 	add	r5,r5,r5
 200d0d0:	294b883a 	add	r5,r5,r5
 200d0d4:	288b883a 	add	r5,r5,r2
 200d0d8:	29800215 	stw	r6,8(r5)
 200d0dc:	f800283a 	ret

0200d0e0 <_Unwind_GetIP>:
 200d0e0:	20c00017 	ldw	r3,0(r4)
 200d0e4:	18800117 	ldw	r2,4(r3)
 200d0e8:	10800044 	addi	r2,r2,1
 200d0ec:	f800283a 	ret

0200d0f0 <_Unwind_GetIPInfo>:
 200d0f0:	20c00017 	ldw	r3,0(r4)
 200d0f4:	28000015 	stw	zero,0(r5)
 200d0f8:	18800117 	ldw	r2,4(r3)
 200d0fc:	10800044 	addi	r2,r2,1
 200d100:	f800283a 	ret

0200d104 <_Unwind_SetIP>:
 200d104:	20800017 	ldw	r2,0(r4)
 200d108:	297fffc4 	addi	r5,r5,-1
 200d10c:	11400115 	stw	r5,4(r2)
 200d110:	f800283a 	ret

0200d114 <_Unwind_GetLanguageSpecificData>:
 200d114:	20c00017 	ldw	r3,0(r4)
 200d118:	18800717 	ldw	r2,28(r3)
 200d11c:	f800283a 	ret

0200d120 <_Unwind_GetRegionStart>:
 200d120:	0005883a 	mov	r2,zero
 200d124:	f800283a 	ret

0200d128 <_Unwind_FindEnclosingFunction>:
 200d128:	0005883a 	mov	r2,zero
 200d12c:	f800283a 	ret

0200d130 <_Unwind_GetDataRelBase>:
 200d130:	0005883a 	mov	r2,zero
 200d134:	f800283a 	ret

0200d138 <_Unwind_GetTextRelBase>:
 200d138:	0005883a 	mov	r2,zero
 200d13c:	f800283a 	ret

0200d140 <_Unwind_ForcedUnwind_Phase2>:
 200d140:	defff604 	addi	sp,sp,-40
 200d144:	dd400815 	stw	r21,32(sp)
 200d148:	dd000715 	stw	r20,28(sp)
 200d14c:	25400317 	ldw	r21,12(r4)
 200d150:	25000417 	ldw	r20,16(r4)
 200d154:	28800017 	ldw	r2,0(r5)
 200d158:	dc800515 	stw	r18,20(sp)
 200d15c:	dc000315 	stw	r16,12(sp)
 200d160:	2825883a 	mov	r18,r5
 200d164:	2021883a 	mov	r16,r4
 200d168:	dfc00915 	stw	ra,36(sp)
 200d16c:	dcc00615 	stw	r19,24(sp)
 200d170:	dc400415 	stw	r17,16(sp)
 200d174:	00001406 	br	200d1c8 <_Unwind_ForcedUnwind_Phase2+0x88>
 200d178:	00800144 	movi	r2,5
 200d17c:	88802626 	beq	r17,r2,200d218 <_Unwind_ForcedUnwind_Phase2+0xd8>
 200d180:	98000c26 	beq	r19,zero,200d1b4 <_Unwind_ForcedUnwind_Phase2+0x74>
 200d184:	82000017 	ldw	r8,0(r16)
 200d188:	dc000015 	stw	r16,0(sp)
 200d18c:	dc800115 	stw	r18,4(sp)
 200d190:	82400117 	ldw	r9,4(r16)
 200d194:	400d883a 	mov	r6,r8
 200d198:	480f883a 	mov	r7,r9
 200d19c:	983ee83a 	callr	r19
 200d1a0:	1023883a 	mov	r17,r2
 200d1a4:	008001c4 	movi	r2,7
 200d1a8:	88801b26 	beq	r17,r2,200d218 <_Unwind_ForcedUnwind_Phase2+0xd8>
 200d1ac:	00800204 	movi	r2,8
 200d1b0:	8880181e 	bne	r17,r2,200d214 <_Unwind_ForcedUnwind_Phase2+0xd4>
 200d1b4:	91000017 	ldw	r4,0(r18)
 200d1b8:	200d0900 	call	200d090 <_Unwind_SjLj_Unregister>
 200d1bc:	90800017 	ldw	r2,0(r18)
 200d1c0:	10800017 	ldw	r2,0(r2)
 200d1c4:	90800015 	stw	r2,0(r18)
 200d1c8:	01400684 	movi	r5,26
 200d1cc:	04400144 	movi	r17,5
 200d1d0:	0027883a 	mov	r19,zero
 200d1d4:	10000326 	beq	r2,zero,200d1e4 <_Unwind_ForcedUnwind_Phase2+0xa4>
 200d1d8:	14c00617 	ldw	r19,24(r2)
 200d1dc:	0023883a 	mov	r17,zero
 200d1e0:	01400284 	movi	r5,10
 200d1e4:	dc000015 	stw	r16,0(sp)
 200d1e8:	dc800115 	stw	r18,4(sp)
 200d1ec:	80800017 	ldw	r2,0(r16)
 200d1f0:	dd000215 	stw	r20,8(sp)
 200d1f4:	80c00117 	ldw	r3,4(r16)
 200d1f8:	01000044 	movi	r4,1
 200d1fc:	100d883a 	mov	r6,r2
 200d200:	180f883a 	mov	r7,r3
 200d204:	a83ee83a 	callr	r21
 200d208:	01400284 	movi	r5,10
 200d20c:	01000044 	movi	r4,1
 200d210:	103fd926 	beq	r2,zero,200d178 <_Unwind_ForcedUnwind_Phase2+0x38>
 200d214:	04400084 	movi	r17,2
 200d218:	8805883a 	mov	r2,r17
 200d21c:	dfc00917 	ldw	ra,36(sp)
 200d220:	dd400817 	ldw	r21,32(sp)
 200d224:	dd000717 	ldw	r20,28(sp)
 200d228:	dcc00617 	ldw	r19,24(sp)
 200d22c:	dc800517 	ldw	r18,20(sp)
 200d230:	dc400417 	ldw	r17,16(sp)
 200d234:	dc000317 	ldw	r16,12(sp)
 200d238:	dec00a04 	addi	sp,sp,40
 200d23c:	f800283a 	ret

0200d240 <_Unwind_DeleteException>:
 200d240:	20800217 	ldw	r2,8(r4)
 200d244:	200b883a 	mov	r5,r4
 200d248:	01000044 	movi	r4,1
 200d24c:	10000126 	beq	r2,zero,200d254 <_Unwind_DeleteException+0x14>
 200d250:	1000683a 	jmp	r2
 200d254:	f800283a 	ret

0200d258 <_Unwind_RaiseException_Phase2>:
 200d258:	defffa04 	addi	sp,sp,-24
 200d25c:	dc800415 	stw	r18,16(sp)
 200d260:	2825883a 	mov	r18,r5
 200d264:	29400017 	ldw	r5,0(r5)
 200d268:	dc400315 	stw	r17,12(sp)
 200d26c:	dfc00515 	stw	ra,20(sp)
 200d270:	dc000215 	stw	r16,8(sp)
 200d274:	2023883a 	mov	r17,r4
 200d278:	28001b26 	beq	r5,zero,200d2e8 <_Unwind_RaiseException_Phase2+0x90>
 200d27c:	88800417 	ldw	r2,16(r17)
 200d280:	0007883a 	mov	r3,zero
 200d284:	2a000617 	ldw	r8,24(r5)
 200d288:	28a1003a 	cmpeq	r16,r5,r2
 200d28c:	802090ba 	slli	r16,r16,2
 200d290:	18001b1e 	bne	r3,zero,200d300 <_Unwind_RaiseException_Phase2+0xa8>
 200d294:	40000e26 	beq	r8,zero,200d2d0 <_Unwind_RaiseException_Phase2+0x78>
 200d298:	88800017 	ldw	r2,0(r17)
 200d29c:	dc400015 	stw	r17,0(sp)
 200d2a0:	dc800115 	stw	r18,4(sp)
 200d2a4:	88c00117 	ldw	r3,4(r17)
 200d2a8:	01000044 	movi	r4,1
 200d2ac:	81400094 	ori	r5,r16,2
 200d2b0:	180f883a 	mov	r7,r3
 200d2b4:	100d883a 	mov	r6,r2
 200d2b8:	403ee83a 	callr	r8
 200d2bc:	1007883a 	mov	r3,r2
 200d2c0:	008001c4 	movi	r2,7
 200d2c4:	18800f26 	beq	r3,r2,200d304 <_Unwind_RaiseException_Phase2+0xac>
 200d2c8:	00800204 	movi	r2,8
 200d2cc:	18800c1e 	bne	r3,r2,200d300 <_Unwind_RaiseException_Phase2+0xa8>
 200d2d0:	8000131e 	bne	r16,zero,200d320 <_Unwind_RaiseException_Phase2+0xc8>
 200d2d4:	91400017 	ldw	r5,0(r18)
 200d2d8:	28800017 	ldw	r2,0(r5)
 200d2dc:	100b883a 	mov	r5,r2
 200d2e0:	90800015 	stw	r2,0(r18)
 200d2e4:	283fe51e 	bne	r5,zero,200d27c <_Unwind_RaiseException_Phase2+0x24>
 200d2e8:	88800417 	ldw	r2,16(r17)
 200d2ec:	00c00144 	movi	r3,5
 200d2f0:	0011883a 	mov	r8,zero
 200d2f4:	28a1003a 	cmpeq	r16,r5,r2
 200d2f8:	802090ba 	slli	r16,r16,2
 200d2fc:	183fe526 	beq	r3,zero,200d294 <_Unwind_RaiseException_Phase2+0x3c>
 200d300:	00c00084 	movi	r3,2
 200d304:	1805883a 	mov	r2,r3
 200d308:	dfc00517 	ldw	ra,20(sp)
 200d30c:	dc800417 	ldw	r18,16(sp)
 200d310:	dc400317 	ldw	r17,12(sp)
 200d314:	dc000217 	ldw	r16,8(sp)
 200d318:	dec00604 	addi	sp,sp,24
 200d31c:	f800283a 	ret
 200d320:	200d5c80 	call	200d5c8 <abort>

0200d324 <uw_install_context>:
 200d324:	28800017 	ldw	r2,0(r5)
 200d328:	deffff04 	addi	sp,sp,-4
 200d32c:	df000015 	stw	fp,0(sp)
 200d330:	10c00804 	addi	r3,r2,32
 200d334:	d839883a 	mov	fp,sp
 200d338:	d0a70615 	stw	r2,-25576(gp)
 200d33c:	19000117 	ldw	r4,4(r3)
 200d340:	1f000017 	ldw	fp,0(r3)
 200d344:	1ec00217 	ldw	sp,8(r3)
 200d348:	2000683a 	jmp	r4

0200d34c <_Unwind_SjLj_Resume>:
 200d34c:	d0e70617 	ldw	r3,-25576(gp)
 200d350:	20800317 	ldw	r2,12(r4)
 200d354:	defffc04 	addi	sp,sp,-16
 200d358:	dfc00315 	stw	ra,12(sp)
 200d35c:	dc000215 	stw	r16,8(sp)
 200d360:	d8c00015 	stw	r3,0(sp)
 200d364:	d8c00115 	stw	r3,4(sp)
 200d368:	1000071e 	bne	r2,zero,200d388 <_Unwind_SjLj_Resume+0x3c>
 200d36c:	dc000104 	addi	r16,sp,4
 200d370:	800b883a 	mov	r5,r16
 200d374:	200d2580 	call	200d258 <_Unwind_RaiseException_Phase2>
 200d378:	1007883a 	mov	r3,r2
 200d37c:	008001c4 	movi	r2,7
 200d380:	18800626 	beq	r3,r2,200d39c <_Unwind_SjLj_Resume+0x50>
 200d384:	200d5c80 	call	200d5c8 <abort>
 200d388:	dc000104 	addi	r16,sp,4
 200d38c:	800b883a 	mov	r5,r16
 200d390:	200d1400 	call	200d140 <_Unwind_ForcedUnwind_Phase2>
 200d394:	1007883a 	mov	r3,r2
 200d398:	003ff806 	br	200d37c <_Unwind_SjLj_Resume+0x30>
 200d39c:	800b883a 	mov	r5,r16
 200d3a0:	d809883a 	mov	r4,sp
 200d3a4:	200d3240 	call	200d324 <uw_install_context>

0200d3a8 <_Unwind_SjLj_RaiseException>:
 200d3a8:	d0a70617 	ldw	r2,-25576(gp)
 200d3ac:	defff804 	addi	sp,sp,-32
 200d3b0:	dc000415 	stw	r16,16(sp)
 200d3b4:	dfc00715 	stw	ra,28(sp)
 200d3b8:	dc800615 	stw	r18,24(sp)
 200d3bc:	dc400515 	stw	r17,20(sp)
 200d3c0:	2021883a 	mov	r16,r4
 200d3c4:	d8800215 	stw	r2,8(sp)
 200d3c8:	d8800315 	stw	r2,12(sp)
 200d3cc:	10001626 	beq	r2,zero,200d428 <_Unwind_SjLj_RaiseException+0x80>
 200d3d0:	dc400304 	addi	r17,sp,12
 200d3d4:	04800184 	movi	r18,6
 200d3d8:	00000106 	br	200d3e0 <_Unwind_SjLj_RaiseException+0x38>
 200d3dc:	d8800315 	stw	r2,12(sp)
 200d3e0:	12000617 	ldw	r8,24(r2)
 200d3e4:	40000d26 	beq	r8,zero,200d41c <_Unwind_SjLj_RaiseException+0x74>
 200d3e8:	80800017 	ldw	r2,0(r16)
 200d3ec:	dc000015 	stw	r16,0(sp)
 200d3f0:	80c00117 	ldw	r3,4(r16)
 200d3f4:	01000044 	movi	r4,1
 200d3f8:	dc400115 	stw	r17,4(sp)
 200d3fc:	180f883a 	mov	r7,r3
 200d400:	200b883a 	mov	r5,r4
 200d404:	100d883a 	mov	r6,r2
 200d408:	403ee83a 	callr	r8
 200d40c:	1007883a 	mov	r3,r2
 200d410:	14800d26 	beq	r2,r18,200d448 <_Unwind_SjLj_RaiseException+0xa0>
 200d414:	00800204 	movi	r2,8
 200d418:	1880191e 	bne	r3,r2,200d480 <_Unwind_SjLj_RaiseException+0xd8>
 200d41c:	d8800317 	ldw	r2,12(sp)
 200d420:	10800017 	ldw	r2,0(r2)
 200d424:	103fed1e 	bne	r2,zero,200d3dc <_Unwind_SjLj_RaiseException+0x34>
 200d428:	00c00144 	movi	r3,5
 200d42c:	1805883a 	mov	r2,r3
 200d430:	dfc00717 	ldw	ra,28(sp)
 200d434:	dc800617 	ldw	r18,24(sp)
 200d438:	dc400517 	ldw	r17,20(sp)
 200d43c:	dc000417 	ldw	r16,16(sp)
 200d440:	dec00804 	addi	sp,sp,32
 200d444:	f800283a 	ret
 200d448:	d8800317 	ldw	r2,12(sp)
 200d44c:	80000315 	stw	zero,12(r16)
 200d450:	8009883a 	mov	r4,r16
 200d454:	80800415 	stw	r2,16(r16)
 200d458:	d8800217 	ldw	r2,8(sp)
 200d45c:	880b883a 	mov	r5,r17
 200d460:	d8800315 	stw	r2,12(sp)
 200d464:	200d2580 	call	200d258 <_Unwind_RaiseException_Phase2>
 200d468:	1007883a 	mov	r3,r2
 200d46c:	008001c4 	movi	r2,7
 200d470:	18bfee1e 	bne	r3,r2,200d42c <_Unwind_SjLj_RaiseException+0x84>
 200d474:	880b883a 	mov	r5,r17
 200d478:	d9000204 	addi	r4,sp,8
 200d47c:	200d3240 	call	200d324 <uw_install_context>
 200d480:	00c000c4 	movi	r3,3
 200d484:	1805883a 	mov	r2,r3
 200d488:	dfc00717 	ldw	ra,28(sp)
 200d48c:	dc800617 	ldw	r18,24(sp)
 200d490:	dc400517 	ldw	r17,20(sp)
 200d494:	dc000417 	ldw	r16,16(sp)
 200d498:	dec00804 	addi	sp,sp,32
 200d49c:	f800283a 	ret

0200d4a0 <_Unwind_SjLj_ForcedUnwind>:
 200d4a0:	defffc04 	addi	sp,sp,-16
 200d4a4:	d0a70617 	ldw	r2,-25576(gp)
 200d4a8:	dc000215 	stw	r16,8(sp)
 200d4ac:	dc000104 	addi	r16,sp,4
 200d4b0:	21400315 	stw	r5,12(r4)
 200d4b4:	21800415 	stw	r6,16(r4)
 200d4b8:	800b883a 	mov	r5,r16
 200d4bc:	dfc00315 	stw	ra,12(sp)
 200d4c0:	d8800015 	stw	r2,0(sp)
 200d4c4:	d8800115 	stw	r2,4(sp)
 200d4c8:	200d1400 	call	200d140 <_Unwind_ForcedUnwind_Phase2>
 200d4cc:	00c001c4 	movi	r3,7
 200d4d0:	10c00426 	beq	r2,r3,200d4e4 <_Unwind_SjLj_ForcedUnwind+0x44>
 200d4d4:	dfc00317 	ldw	ra,12(sp)
 200d4d8:	dc000217 	ldw	r16,8(sp)
 200d4dc:	dec00404 	addi	sp,sp,16
 200d4e0:	f800283a 	ret
 200d4e4:	800b883a 	mov	r5,r16
 200d4e8:	d809883a 	mov	r4,sp
 200d4ec:	200d3240 	call	200d324 <uw_install_context>

0200d4f0 <_Unwind_Backtrace>:
 200d4f0:	d0a70617 	ldw	r2,-25576(gp)
 200d4f4:	defffa04 	addi	sp,sp,-24
 200d4f8:	dcc00415 	stw	r19,16(sp)
 200d4fc:	dc800315 	stw	r18,12(sp)
 200d500:	dc400215 	stw	r17,8(sp)
 200d504:	2025883a 	mov	r18,r4
 200d508:	2823883a 	mov	r17,r5
 200d50c:	04c00144 	movi	r19,5
 200d510:	dfc00515 	stw	ra,20(sp)
 200d514:	dc000115 	stw	r16,4(sp)
 200d518:	d8800015 	stw	r2,0(sp)
 200d51c:	00000406 	br	200d530 <_Unwind_Backtrace+0x40>
 200d520:	84c00b26 	beq	r16,r19,200d550 <_Unwind_Backtrace+0x60>
 200d524:	d8800017 	ldw	r2,0(sp)
 200d528:	10800017 	ldw	r2,0(r2)
 200d52c:	d8800015 	stw	r2,0(sp)
 200d530:	04000144 	movi	r16,5
 200d534:	10000126 	beq	r2,zero,200d53c <_Unwind_Backtrace+0x4c>
 200d538:	0021883a 	mov	r16,zero
 200d53c:	d809883a 	mov	r4,sp
 200d540:	880b883a 	mov	r5,r17
 200d544:	903ee83a 	callr	r18
 200d548:	103ff526 	beq	r2,zero,200d520 <_Unwind_Backtrace+0x30>
 200d54c:	040000c4 	movi	r16,3
 200d550:	8005883a 	mov	r2,r16
 200d554:	dfc00517 	ldw	ra,20(sp)
 200d558:	dcc00417 	ldw	r19,16(sp)
 200d55c:	dc800317 	ldw	r18,12(sp)
 200d560:	dc400217 	ldw	r17,8(sp)
 200d564:	dc000117 	ldw	r16,4(sp)
 200d568:	dec00604 	addi	sp,sp,24
 200d56c:	f800283a 	ret

0200d570 <_Unwind_SjLj_Resume_or_Rethrow>:
 200d570:	20800317 	ldw	r2,12(r4)
 200d574:	defffc04 	addi	sp,sp,-16
 200d578:	dfc00315 	stw	ra,12(sp)
 200d57c:	dc000215 	stw	r16,8(sp)
 200d580:	10000926 	beq	r2,zero,200d5a8 <_Unwind_SjLj_Resume_or_Rethrow+0x38>
 200d584:	d0a70617 	ldw	r2,-25576(gp)
 200d588:	dc000104 	addi	r16,sp,4
 200d58c:	800b883a 	mov	r5,r16
 200d590:	d8800015 	stw	r2,0(sp)
 200d594:	d8800115 	stw	r2,4(sp)
 200d598:	200d1400 	call	200d140 <_Unwind_ForcedUnwind_Phase2>
 200d59c:	00c001c4 	movi	r3,7
 200d5a0:	10c00626 	beq	r2,r3,200d5bc <_Unwind_SjLj_Resume_or_Rethrow+0x4c>
 200d5a4:	200d5c80 	call	200d5c8 <abort>
 200d5a8:	200d3a80 	call	200d3a8 <_Unwind_SjLj_RaiseException>
 200d5ac:	dfc00317 	ldw	ra,12(sp)
 200d5b0:	dc000217 	ldw	r16,8(sp)
 200d5b4:	dec00404 	addi	sp,sp,16
 200d5b8:	f800283a 	ret
 200d5bc:	800b883a 	mov	r5,r16
 200d5c0:	d809883a 	mov	r4,sp
 200d5c4:	200d3240 	call	200d324 <uw_install_context>

0200d5c8 <abort>:
 200d5c8:	deffff04 	addi	sp,sp,-4
 200d5cc:	01000184 	movi	r4,6
 200d5d0:	dfc00015 	stw	ra,0(sp)
 200d5d4:	200df1c0 	call	200df1c <raise>
 200d5d8:	01000044 	movi	r4,1
 200d5dc:	200e6200 	call	200e620 <_exit>

0200d5e0 <free>:
 200d5e0:	00808074 	movhi	r2,513
 200d5e4:	1091be04 	addi	r2,r2,18168
 200d5e8:	200b883a 	mov	r5,r4
 200d5ec:	11000017 	ldw	r4,0(r2)
 200d5f0:	200e2cc1 	jmpi	200e2cc <_free_r>

0200d5f4 <malloc>:
 200d5f4:	00808074 	movhi	r2,513
 200d5f8:	1091be04 	addi	r2,r2,18168
 200d5fc:	200b883a 	mov	r5,r4
 200d600:	11000017 	ldw	r4,0(r2)
 200d604:	200d6081 	jmpi	200d608 <_malloc_r>

0200d608 <_malloc_r>:
 200d608:	defff604 	addi	sp,sp,-40
 200d60c:	28c002c4 	addi	r3,r5,11
 200d610:	00800584 	movi	r2,22
 200d614:	dc800215 	stw	r18,8(sp)
 200d618:	dfc00915 	stw	ra,36(sp)
 200d61c:	df000815 	stw	fp,32(sp)
 200d620:	ddc00715 	stw	r23,28(sp)
 200d624:	dd800615 	stw	r22,24(sp)
 200d628:	dd400515 	stw	r21,20(sp)
 200d62c:	dd000415 	stw	r20,16(sp)
 200d630:	dcc00315 	stw	r19,12(sp)
 200d634:	dc400115 	stw	r17,4(sp)
 200d638:	dc000015 	stw	r16,0(sp)
 200d63c:	2025883a 	mov	r18,r4
 200d640:	10c01236 	bltu	r2,r3,200d68c <_malloc_r+0x84>
 200d644:	04400404 	movi	r17,16
 200d648:	8940142e 	bgeu	r17,r5,200d69c <_malloc_r+0x94>
 200d64c:	00800304 	movi	r2,12
 200d650:	0007883a 	mov	r3,zero
 200d654:	90800015 	stw	r2,0(r18)
 200d658:	1805883a 	mov	r2,r3
 200d65c:	dfc00917 	ldw	ra,36(sp)
 200d660:	df000817 	ldw	fp,32(sp)
 200d664:	ddc00717 	ldw	r23,28(sp)
 200d668:	dd800617 	ldw	r22,24(sp)
 200d66c:	dd400517 	ldw	r21,20(sp)
 200d670:	dd000417 	ldw	r20,16(sp)
 200d674:	dcc00317 	ldw	r19,12(sp)
 200d678:	dc800217 	ldw	r18,8(sp)
 200d67c:	dc400117 	ldw	r17,4(sp)
 200d680:	dc000017 	ldw	r16,0(sp)
 200d684:	dec00a04 	addi	sp,sp,40
 200d688:	f800283a 	ret
 200d68c:	00bffe04 	movi	r2,-8
 200d690:	18a2703a 	and	r17,r3,r2
 200d694:	883fed16 	blt	r17,zero,200d64c <_malloc_r+0x44>
 200d698:	897fec36 	bltu	r17,r5,200d64c <_malloc_r+0x44>
 200d69c:	9009883a 	mov	r4,r18
 200d6a0:	200e9580 	call	200e958 <__malloc_lock>
 200d6a4:	00807dc4 	movi	r2,503
 200d6a8:	14402b2e 	bgeu	r2,r17,200d758 <_malloc_r+0x150>
 200d6ac:	8806d27a 	srli	r3,r17,9
 200d6b0:	18003f1e 	bne	r3,zero,200d7b0 <_malloc_r+0x1a8>
 200d6b4:	880cd0fa 	srli	r6,r17,3
 200d6b8:	300490fa 	slli	r2,r6,3
 200d6bc:	02c08074 	movhi	r11,513
 200d6c0:	5acaef04 	addi	r11,r11,11196
 200d6c4:	12cb883a 	add	r5,r2,r11
 200d6c8:	2c000317 	ldw	r16,12(r5)
 200d6cc:	580f883a 	mov	r7,r11
 200d6d0:	2c00041e 	bne	r5,r16,200d6e4 <_malloc_r+0xdc>
 200d6d4:	00000a06 	br	200d700 <_malloc_r+0xf8>
 200d6d8:	1800860e 	bge	r3,zero,200d8f4 <_malloc_r+0x2ec>
 200d6dc:	84000317 	ldw	r16,12(r16)
 200d6e0:	2c000726 	beq	r5,r16,200d700 <_malloc_r+0xf8>
 200d6e4:	80800117 	ldw	r2,4(r16)
 200d6e8:	00ffff04 	movi	r3,-4
 200d6ec:	10c8703a 	and	r4,r2,r3
 200d6f0:	2447c83a 	sub	r3,r4,r17
 200d6f4:	008003c4 	movi	r2,15
 200d6f8:	10fff70e 	bge	r2,r3,200d6d8 <_malloc_r+0xd0>
 200d6fc:	31bfffc4 	addi	r6,r6,-1
 200d700:	32400044 	addi	r9,r6,1
 200d704:	02808074 	movhi	r10,513
 200d708:	528af104 	addi	r10,r10,11204
 200d70c:	54000217 	ldw	r16,8(r10)
 200d710:	8280a026 	beq	r16,r10,200d994 <_malloc_r+0x38c>
 200d714:	80800117 	ldw	r2,4(r16)
 200d718:	00ffff04 	movi	r3,-4
 200d71c:	10ca703a 	and	r5,r2,r3
 200d720:	2c4dc83a 	sub	r6,r5,r17
 200d724:	008003c4 	movi	r2,15
 200d728:	11808316 	blt	r2,r6,200d938 <_malloc_r+0x330>
 200d72c:	52800315 	stw	r10,12(r10)
 200d730:	52800215 	stw	r10,8(r10)
 200d734:	30002916 	blt	r6,zero,200d7dc <_malloc_r+0x1d4>
 200d738:	8147883a 	add	r3,r16,r5
 200d73c:	18800117 	ldw	r2,4(r3)
 200d740:	9009883a 	mov	r4,r18
 200d744:	10800054 	ori	r2,r2,1
 200d748:	18800115 	stw	r2,4(r3)
 200d74c:	200e9780 	call	200e978 <__malloc_unlock>
 200d750:	80c00204 	addi	r3,r16,8
 200d754:	003fc006 	br	200d658 <_malloc_r+0x50>
 200d758:	02c08074 	movhi	r11,513
 200d75c:	5acaef04 	addi	r11,r11,11196
 200d760:	8ac5883a 	add	r2,r17,r11
 200d764:	14000317 	ldw	r16,12(r2)
 200d768:	580f883a 	mov	r7,r11
 200d76c:	8806d0fa 	srli	r3,r17,3
 200d770:	14006c26 	beq	r2,r16,200d924 <_malloc_r+0x31c>
 200d774:	80c00117 	ldw	r3,4(r16)
 200d778:	00bfff04 	movi	r2,-4
 200d77c:	81800317 	ldw	r6,12(r16)
 200d780:	1886703a 	and	r3,r3,r2
 200d784:	80c7883a 	add	r3,r16,r3
 200d788:	18800117 	ldw	r2,4(r3)
 200d78c:	81400217 	ldw	r5,8(r16)
 200d790:	9009883a 	mov	r4,r18
 200d794:	10800054 	ori	r2,r2,1
 200d798:	18800115 	stw	r2,4(r3)
 200d79c:	31400215 	stw	r5,8(r6)
 200d7a0:	29800315 	stw	r6,12(r5)
 200d7a4:	200e9780 	call	200e978 <__malloc_unlock>
 200d7a8:	80c00204 	addi	r3,r16,8
 200d7ac:	003faa06 	br	200d658 <_malloc_r+0x50>
 200d7b0:	00800104 	movi	r2,4
 200d7b4:	10c0052e 	bgeu	r2,r3,200d7cc <_malloc_r+0x1c4>
 200d7b8:	00800504 	movi	r2,20
 200d7bc:	10c07836 	bltu	r2,r3,200d9a0 <_malloc_r+0x398>
 200d7c0:	198016c4 	addi	r6,r3,91
 200d7c4:	300490fa 	slli	r2,r6,3
 200d7c8:	003fbc06 	br	200d6bc <_malloc_r+0xb4>
 200d7cc:	8804d1ba 	srli	r2,r17,6
 200d7d0:	11800e04 	addi	r6,r2,56
 200d7d4:	300490fa 	slli	r2,r6,3
 200d7d8:	003fb806 	br	200d6bc <_malloc_r+0xb4>
 200d7dc:	00807fc4 	movi	r2,511
 200d7e0:	1140bb36 	bltu	r2,r5,200dad0 <_malloc_r+0x4c8>
 200d7e4:	2806d0fa 	srli	r3,r5,3
 200d7e8:	573ffe04 	addi	fp,r10,-8
 200d7ec:	00800044 	movi	r2,1
 200d7f0:	180890fa 	slli	r4,r3,3
 200d7f4:	1807d0ba 	srai	r3,r3,2
 200d7f8:	e1c00117 	ldw	r7,4(fp)
 200d7fc:	5909883a 	add	r4,r11,r4
 200d800:	21400217 	ldw	r5,8(r4)
 200d804:	10c4983a 	sll	r2,r2,r3
 200d808:	81000315 	stw	r4,12(r16)
 200d80c:	81400215 	stw	r5,8(r16)
 200d810:	388eb03a 	or	r7,r7,r2
 200d814:	2c000315 	stw	r16,12(r5)
 200d818:	24000215 	stw	r16,8(r4)
 200d81c:	e1c00115 	stw	r7,4(fp)
 200d820:	4807883a 	mov	r3,r9
 200d824:	4800cd16 	blt	r9,zero,200db5c <_malloc_r+0x554>
 200d828:	1807d0ba 	srai	r3,r3,2
 200d82c:	00800044 	movi	r2,1
 200d830:	10c8983a 	sll	r4,r2,r3
 200d834:	39004436 	bltu	r7,r4,200d948 <_malloc_r+0x340>
 200d838:	21c4703a 	and	r2,r4,r7
 200d83c:	10000a1e 	bne	r2,zero,200d868 <_malloc_r+0x260>
 200d840:	2109883a 	add	r4,r4,r4
 200d844:	00bfff04 	movi	r2,-4
 200d848:	4884703a 	and	r2,r9,r2
 200d84c:	3906703a 	and	r3,r7,r4
 200d850:	12400104 	addi	r9,r2,4
 200d854:	1800041e 	bne	r3,zero,200d868 <_malloc_r+0x260>
 200d858:	2109883a 	add	r4,r4,r4
 200d85c:	3904703a 	and	r2,r7,r4
 200d860:	4a400104 	addi	r9,r9,4
 200d864:	103ffc26 	beq	r2,zero,200d858 <_malloc_r+0x250>
 200d868:	480490fa 	slli	r2,r9,3
 200d86c:	4819883a 	mov	r12,r9
 200d870:	023fff04 	movi	r8,-4
 200d874:	589b883a 	add	r13,r11,r2
 200d878:	6807883a 	mov	r3,r13
 200d87c:	014003c4 	movi	r5,15
 200d880:	1c000317 	ldw	r16,12(r3)
 200d884:	1c00041e 	bne	r3,r16,200d898 <_malloc_r+0x290>
 200d888:	0000a706 	br	200db28 <_malloc_r+0x520>
 200d88c:	3000ab0e 	bge	r6,zero,200db3c <_malloc_r+0x534>
 200d890:	84000317 	ldw	r16,12(r16)
 200d894:	1c00a426 	beq	r3,r16,200db28 <_malloc_r+0x520>
 200d898:	80800117 	ldw	r2,4(r16)
 200d89c:	1204703a 	and	r2,r2,r8
 200d8a0:	144dc83a 	sub	r6,r2,r17
 200d8a4:	29bff90e 	bge	r5,r6,200d88c <_malloc_r+0x284>
 200d8a8:	81000317 	ldw	r4,12(r16)
 200d8ac:	80c00217 	ldw	r3,8(r16)
 200d8b0:	89400054 	ori	r5,r17,1
 200d8b4:	8445883a 	add	r2,r16,r17
 200d8b8:	20c00215 	stw	r3,8(r4)
 200d8bc:	19000315 	stw	r4,12(r3)
 200d8c0:	81400115 	stw	r5,4(r16)
 200d8c4:	1187883a 	add	r3,r2,r6
 200d8c8:	31000054 	ori	r4,r6,1
 200d8cc:	50800315 	stw	r2,12(r10)
 200d8d0:	50800215 	stw	r2,8(r10)
 200d8d4:	19800015 	stw	r6,0(r3)
 200d8d8:	11000115 	stw	r4,4(r2)
 200d8dc:	12800215 	stw	r10,8(r2)
 200d8e0:	12800315 	stw	r10,12(r2)
 200d8e4:	9009883a 	mov	r4,r18
 200d8e8:	200e9780 	call	200e978 <__malloc_unlock>
 200d8ec:	80c00204 	addi	r3,r16,8
 200d8f0:	003f5906 	br	200d658 <_malloc_r+0x50>
 200d8f4:	8109883a 	add	r4,r16,r4
 200d8f8:	20800117 	ldw	r2,4(r4)
 200d8fc:	80c00217 	ldw	r3,8(r16)
 200d900:	81400317 	ldw	r5,12(r16)
 200d904:	10800054 	ori	r2,r2,1
 200d908:	20800115 	stw	r2,4(r4)
 200d90c:	28c00215 	stw	r3,8(r5)
 200d910:	19400315 	stw	r5,12(r3)
 200d914:	9009883a 	mov	r4,r18
 200d918:	200e9780 	call	200e978 <__malloc_unlock>
 200d91c:	80c00204 	addi	r3,r16,8
 200d920:	003f4d06 	br	200d658 <_malloc_r+0x50>
 200d924:	80800204 	addi	r2,r16,8
 200d928:	14000317 	ldw	r16,12(r2)
 200d92c:	143f911e 	bne	r2,r16,200d774 <_malloc_r+0x16c>
 200d930:	1a400084 	addi	r9,r3,2
 200d934:	003f7306 	br	200d704 <_malloc_r+0xfc>
 200d938:	88c00054 	ori	r3,r17,1
 200d93c:	8445883a 	add	r2,r16,r17
 200d940:	80c00115 	stw	r3,4(r16)
 200d944:	003fdf06 	br	200d8c4 <_malloc_r+0x2bc>
 200d948:	e4000217 	ldw	r16,8(fp)
 200d94c:	00bfff04 	movi	r2,-4
 200d950:	80c00117 	ldw	r3,4(r16)
 200d954:	802d883a 	mov	r22,r16
 200d958:	18aa703a 	and	r21,r3,r2
 200d95c:	ac401636 	bltu	r21,r17,200d9b8 <_malloc_r+0x3b0>
 200d960:	ac49c83a 	sub	r4,r21,r17
 200d964:	008003c4 	movi	r2,15
 200d968:	1100130e 	bge	r2,r4,200d9b8 <_malloc_r+0x3b0>
 200d96c:	88800054 	ori	r2,r17,1
 200d970:	8447883a 	add	r3,r16,r17
 200d974:	80800115 	stw	r2,4(r16)
 200d978:	20800054 	ori	r2,r4,1
 200d97c:	18800115 	stw	r2,4(r3)
 200d980:	e0c00215 	stw	r3,8(fp)
 200d984:	9009883a 	mov	r4,r18
 200d988:	200e9780 	call	200e978 <__malloc_unlock>
 200d98c:	80c00204 	addi	r3,r16,8
 200d990:	003f3106 	br	200d658 <_malloc_r+0x50>
 200d994:	39c00117 	ldw	r7,4(r7)
 200d998:	573ffe04 	addi	fp,r10,-8
 200d99c:	003fa006 	br	200d820 <_malloc_r+0x218>
 200d9a0:	00801504 	movi	r2,84
 200d9a4:	10c06736 	bltu	r2,r3,200db44 <_malloc_r+0x53c>
 200d9a8:	8804d33a 	srli	r2,r17,12
 200d9ac:	11801b84 	addi	r6,r2,110
 200d9b0:	300490fa 	slli	r2,r6,3
 200d9b4:	003f4106 	br	200d6bc <_malloc_r+0xb4>
 200d9b8:	d0a70717 	ldw	r2,-25572(gp)
 200d9bc:	d0e00d17 	ldw	r3,-32716(gp)
 200d9c0:	053fffc4 	movi	r20,-1
 200d9c4:	10800404 	addi	r2,r2,16
 200d9c8:	88a7883a 	add	r19,r17,r2
 200d9cc:	1d000326 	beq	r3,r20,200d9dc <_malloc_r+0x3d4>
 200d9d0:	98c3ffc4 	addi	r3,r19,4095
 200d9d4:	00bc0004 	movi	r2,-4096
 200d9d8:	18a6703a 	and	r19,r3,r2
 200d9dc:	9009883a 	mov	r4,r18
 200d9e0:	980b883a 	mov	r5,r19
 200d9e4:	200dde00 	call	200dde0 <_sbrk_r>
 200d9e8:	1009883a 	mov	r4,r2
 200d9ec:	15000426 	beq	r2,r20,200da00 <_malloc_r+0x3f8>
 200d9f0:	854b883a 	add	r5,r16,r21
 200d9f4:	1029883a 	mov	r20,r2
 200d9f8:	11405a2e 	bgeu	r2,r5,200db64 <_malloc_r+0x55c>
 200d9fc:	87000c26 	beq	r16,fp,200da30 <_malloc_r+0x428>
 200da00:	e4000217 	ldw	r16,8(fp)
 200da04:	80c00117 	ldw	r3,4(r16)
 200da08:	00bfff04 	movi	r2,-4
 200da0c:	1884703a 	and	r2,r3,r2
 200da10:	14400336 	bltu	r2,r17,200da20 <_malloc_r+0x418>
 200da14:	1449c83a 	sub	r4,r2,r17
 200da18:	008003c4 	movi	r2,15
 200da1c:	113fd316 	blt	r2,r4,200d96c <_malloc_r+0x364>
 200da20:	9009883a 	mov	r4,r18
 200da24:	200e9780 	call	200e978 <__malloc_unlock>
 200da28:	0007883a 	mov	r3,zero
 200da2c:	003f0a06 	br	200d658 <_malloc_r+0x50>
 200da30:	05c08074 	movhi	r23,513
 200da34:	bddac104 	addi	r23,r23,27396
 200da38:	b8800017 	ldw	r2,0(r23)
 200da3c:	988d883a 	add	r6,r19,r2
 200da40:	b9800015 	stw	r6,0(r23)
 200da44:	d0e00d17 	ldw	r3,-32716(gp)
 200da48:	00bfffc4 	movi	r2,-1
 200da4c:	18808e26 	beq	r3,r2,200dc88 <_malloc_r+0x680>
 200da50:	2145c83a 	sub	r2,r4,r5
 200da54:	3085883a 	add	r2,r6,r2
 200da58:	b8800015 	stw	r2,0(r23)
 200da5c:	20c001cc 	andi	r3,r4,7
 200da60:	18005f1e 	bne	r3,zero,200dbe0 <_malloc_r+0x5d8>
 200da64:	000b883a 	mov	r5,zero
 200da68:	a4c5883a 	add	r2,r20,r19
 200da6c:	1083ffcc 	andi	r2,r2,4095
 200da70:	00c40004 	movi	r3,4096
 200da74:	1887c83a 	sub	r3,r3,r2
 200da78:	28e7883a 	add	r19,r5,r3
 200da7c:	9009883a 	mov	r4,r18
 200da80:	980b883a 	mov	r5,r19
 200da84:	200dde00 	call	200dde0 <_sbrk_r>
 200da88:	1007883a 	mov	r3,r2
 200da8c:	00bfffc4 	movi	r2,-1
 200da90:	18807a26 	beq	r3,r2,200dc7c <_malloc_r+0x674>
 200da94:	1d05c83a 	sub	r2,r3,r20
 200da98:	9885883a 	add	r2,r19,r2
 200da9c:	10c00054 	ori	r3,r2,1
 200daa0:	b8800017 	ldw	r2,0(r23)
 200daa4:	a021883a 	mov	r16,r20
 200daa8:	a0c00115 	stw	r3,4(r20)
 200daac:	9885883a 	add	r2,r19,r2
 200dab0:	b8800015 	stw	r2,0(r23)
 200dab4:	e5000215 	stw	r20,8(fp)
 200dab8:	b7003626 	beq	r22,fp,200db94 <_malloc_r+0x58c>
 200dabc:	018003c4 	movi	r6,15
 200dac0:	35404b36 	bltu	r6,r21,200dbf0 <_malloc_r+0x5e8>
 200dac4:	00800044 	movi	r2,1
 200dac8:	a0800115 	stw	r2,4(r20)
 200dacc:	003fcd06 	br	200da04 <_malloc_r+0x3fc>
 200dad0:	2808d27a 	srli	r4,r5,9
 200dad4:	2000371e 	bne	r4,zero,200dbb4 <_malloc_r+0x5ac>
 200dad8:	2808d0fa 	srli	r4,r5,3
 200dadc:	200690fa 	slli	r3,r4,3
 200dae0:	1ad1883a 	add	r8,r3,r11
 200dae4:	41800217 	ldw	r6,8(r8)
 200dae8:	41805b26 	beq	r8,r6,200dc58 <_malloc_r+0x650>
 200daec:	30800117 	ldw	r2,4(r6)
 200daf0:	00ffff04 	movi	r3,-4
 200daf4:	10c4703a 	and	r2,r2,r3
 200daf8:	2880022e 	bgeu	r5,r2,200db04 <_malloc_r+0x4fc>
 200dafc:	31800217 	ldw	r6,8(r6)
 200db00:	41bffa1e 	bne	r8,r6,200daec <_malloc_r+0x4e4>
 200db04:	32000317 	ldw	r8,12(r6)
 200db08:	39c00117 	ldw	r7,4(r7)
 200db0c:	82000315 	stw	r8,12(r16)
 200db10:	81800215 	stw	r6,8(r16)
 200db14:	07008074 	movhi	fp,513
 200db18:	e70aef04 	addi	fp,fp,11196
 200db1c:	34000315 	stw	r16,12(r6)
 200db20:	44000215 	stw	r16,8(r8)
 200db24:	003f3e06 	br	200d820 <_malloc_r+0x218>
 200db28:	63000044 	addi	r12,r12,1
 200db2c:	608000cc 	andi	r2,r12,3
 200db30:	10005d26 	beq	r2,zero,200dca8 <_malloc_r+0x6a0>
 200db34:	18c00204 	addi	r3,r3,8
 200db38:	003f5106 	br	200d880 <_malloc_r+0x278>
 200db3c:	8089883a 	add	r4,r16,r2
 200db40:	003f6d06 	br	200d8f8 <_malloc_r+0x2f0>
 200db44:	00805504 	movi	r2,340
 200db48:	10c02036 	bltu	r2,r3,200dbcc <_malloc_r+0x5c4>
 200db4c:	8804d3fa 	srli	r2,r17,15
 200db50:	11801dc4 	addi	r6,r2,119
 200db54:	300490fa 	slli	r2,r6,3
 200db58:	003ed806 	br	200d6bc <_malloc_r+0xb4>
 200db5c:	48c000c4 	addi	r3,r9,3
 200db60:	003f3106 	br	200d828 <_malloc_r+0x220>
 200db64:	05c08074 	movhi	r23,513
 200db68:	bddac104 	addi	r23,r23,27396
 200db6c:	b8800017 	ldw	r2,0(r23)
 200db70:	988d883a 	add	r6,r19,r2
 200db74:	b9800015 	stw	r6,0(r23)
 200db78:	293fb21e 	bne	r5,r4,200da44 <_malloc_r+0x43c>
 200db7c:	2083ffcc 	andi	r2,r4,4095
 200db80:	103fb01e 	bne	r2,zero,200da44 <_malloc_r+0x43c>
 200db84:	e4000217 	ldw	r16,8(fp)
 200db88:	9d45883a 	add	r2,r19,r21
 200db8c:	10800054 	ori	r2,r2,1
 200db90:	80800115 	stw	r2,4(r16)
 200db94:	b8c00017 	ldw	r3,0(r23)
 200db98:	d0a70817 	ldw	r2,-25568(gp)
 200db9c:	10c0012e 	bgeu	r2,r3,200dba4 <_malloc_r+0x59c>
 200dba0:	d0e70815 	stw	r3,-25568(gp)
 200dba4:	d0a70917 	ldw	r2,-25564(gp)
 200dba8:	10ff962e 	bgeu	r2,r3,200da04 <_malloc_r+0x3fc>
 200dbac:	d0e70915 	stw	r3,-25564(gp)
 200dbb0:	003f9406 	br	200da04 <_malloc_r+0x3fc>
 200dbb4:	00800104 	movi	r2,4
 200dbb8:	11001e36 	bltu	r2,r4,200dc34 <_malloc_r+0x62c>
 200dbbc:	2804d1ba 	srli	r2,r5,6
 200dbc0:	11000e04 	addi	r4,r2,56
 200dbc4:	200690fa 	slli	r3,r4,3
 200dbc8:	003fc506 	br	200dae0 <_malloc_r+0x4d8>
 200dbcc:	00815504 	movi	r2,1364
 200dbd0:	10c01d2e 	bgeu	r2,r3,200dc48 <_malloc_r+0x640>
 200dbd4:	01801f84 	movi	r6,126
 200dbd8:	0080fc04 	movi	r2,1008
 200dbdc:	003eb706 	br	200d6bc <_malloc_r+0xb4>
 200dbe0:	00800204 	movi	r2,8
 200dbe4:	10cbc83a 	sub	r5,r2,r3
 200dbe8:	2169883a 	add	r20,r4,r5
 200dbec:	003f9e06 	br	200da68 <_malloc_r+0x460>
 200dbf0:	00bffe04 	movi	r2,-8
 200dbf4:	a93ffd04 	addi	r4,r21,-12
 200dbf8:	2088703a 	and	r4,r4,r2
 200dbfc:	b10b883a 	add	r5,r22,r4
 200dc00:	00c00144 	movi	r3,5
 200dc04:	28c00215 	stw	r3,8(r5)
 200dc08:	28c00115 	stw	r3,4(r5)
 200dc0c:	b0800117 	ldw	r2,4(r22)
 200dc10:	1080004c 	andi	r2,r2,1
 200dc14:	2084b03a 	or	r2,r4,r2
 200dc18:	b0800115 	stw	r2,4(r22)
 200dc1c:	313fdd2e 	bgeu	r6,r4,200db94 <_malloc_r+0x58c>
 200dc20:	b1400204 	addi	r5,r22,8
 200dc24:	9009883a 	mov	r4,r18
 200dc28:	200e2cc0 	call	200e2cc <_free_r>
 200dc2c:	e4000217 	ldw	r16,8(fp)
 200dc30:	003fd806 	br	200db94 <_malloc_r+0x58c>
 200dc34:	00800504 	movi	r2,20
 200dc38:	11001536 	bltu	r2,r4,200dc90 <_malloc_r+0x688>
 200dc3c:	210016c4 	addi	r4,r4,91
 200dc40:	200690fa 	slli	r3,r4,3
 200dc44:	003fa606 	br	200dae0 <_malloc_r+0x4d8>
 200dc48:	8804d4ba 	srli	r2,r17,18
 200dc4c:	11801f04 	addi	r6,r2,124
 200dc50:	300490fa 	slli	r2,r6,3
 200dc54:	003e9906 	br	200d6bc <_malloc_r+0xb4>
 200dc58:	2009d0ba 	srai	r4,r4,2
 200dc5c:	01408074 	movhi	r5,513
 200dc60:	294aef04 	addi	r5,r5,11196
 200dc64:	00c00044 	movi	r3,1
 200dc68:	28800117 	ldw	r2,4(r5)
 200dc6c:	1906983a 	sll	r3,r3,r4
 200dc70:	10c4b03a 	or	r2,r2,r3
 200dc74:	28800115 	stw	r2,4(r5)
 200dc78:	003fa306 	br	200db08 <_malloc_r+0x500>
 200dc7c:	0027883a 	mov	r19,zero
 200dc80:	00c00044 	movi	r3,1
 200dc84:	003f8606 	br	200daa0 <_malloc_r+0x498>
 200dc88:	d1200d15 	stw	r4,-32716(gp)
 200dc8c:	003f7306 	br	200da5c <_malloc_r+0x454>
 200dc90:	00801504 	movi	r2,84
 200dc94:	11001936 	bltu	r2,r4,200dcfc <_malloc_r+0x6f4>
 200dc98:	2804d33a 	srli	r2,r5,12
 200dc9c:	11001b84 	addi	r4,r2,110
 200dca0:	200690fa 	slli	r3,r4,3
 200dca4:	003f8e06 	br	200dae0 <_malloc_r+0x4d8>
 200dca8:	480b883a 	mov	r5,r9
 200dcac:	6807883a 	mov	r3,r13
 200dcb0:	288000cc 	andi	r2,r5,3
 200dcb4:	18fffe04 	addi	r3,r3,-8
 200dcb8:	297fffc4 	addi	r5,r5,-1
 200dcbc:	10001526 	beq	r2,zero,200dd14 <_malloc_r+0x70c>
 200dcc0:	18800217 	ldw	r2,8(r3)
 200dcc4:	10fffa26 	beq	r2,r3,200dcb0 <_malloc_r+0x6a8>
 200dcc8:	2109883a 	add	r4,r4,r4
 200dccc:	393f1e36 	bltu	r7,r4,200d948 <_malloc_r+0x340>
 200dcd0:	203f1d26 	beq	r4,zero,200d948 <_malloc_r+0x340>
 200dcd4:	21c4703a 	and	r2,r4,r7
 200dcd8:	10000226 	beq	r2,zero,200dce4 <_malloc_r+0x6dc>
 200dcdc:	6013883a 	mov	r9,r12
 200dce0:	003ee106 	br	200d868 <_malloc_r+0x260>
 200dce4:	2109883a 	add	r4,r4,r4
 200dce8:	3904703a 	and	r2,r7,r4
 200dcec:	63000104 	addi	r12,r12,4
 200dcf0:	103ffc26 	beq	r2,zero,200dce4 <_malloc_r+0x6dc>
 200dcf4:	6013883a 	mov	r9,r12
 200dcf8:	003edb06 	br	200d868 <_malloc_r+0x260>
 200dcfc:	00805504 	movi	r2,340
 200dd00:	11000836 	bltu	r2,r4,200dd24 <_malloc_r+0x71c>
 200dd04:	2804d3fa 	srli	r2,r5,15
 200dd08:	11001dc4 	addi	r4,r2,119
 200dd0c:	200690fa 	slli	r3,r4,3
 200dd10:	003f7306 	br	200dae0 <_malloc_r+0x4d8>
 200dd14:	0104303a 	nor	r2,zero,r4
 200dd18:	388e703a 	and	r7,r7,r2
 200dd1c:	e1c00115 	stw	r7,4(fp)
 200dd20:	003fe906 	br	200dcc8 <_malloc_r+0x6c0>
 200dd24:	00815504 	movi	r2,1364
 200dd28:	1100032e 	bgeu	r2,r4,200dd38 <_malloc_r+0x730>
 200dd2c:	01001f84 	movi	r4,126
 200dd30:	00c0fc04 	movi	r3,1008
 200dd34:	003f6a06 	br	200dae0 <_malloc_r+0x4d8>
 200dd38:	2804d4ba 	srli	r2,r5,18
 200dd3c:	11001f04 	addi	r4,r2,124
 200dd40:	200690fa 	slli	r3,r4,3
 200dd44:	003f6606 	br	200dae0 <_malloc_r+0x4d8>

0200dd48 <memset>:
 200dd48:	008000c4 	movi	r2,3
 200dd4c:	29403fcc 	andi	r5,r5,255
 200dd50:	2007883a 	mov	r3,r4
 200dd54:	1180022e 	bgeu	r2,r6,200dd60 <memset+0x18>
 200dd58:	2084703a 	and	r2,r4,r2
 200dd5c:	10000826 	beq	r2,zero,200dd80 <memset+0x38>
 200dd60:	30000526 	beq	r6,zero,200dd78 <memset+0x30>
 200dd64:	2805883a 	mov	r2,r5
 200dd68:	30cd883a 	add	r6,r6,r3
 200dd6c:	18800005 	stb	r2,0(r3)
 200dd70:	18c00044 	addi	r3,r3,1
 200dd74:	19bffd1e 	bne	r3,r6,200dd6c <memset+0x24>
 200dd78:	2005883a 	mov	r2,r4
 200dd7c:	f800283a 	ret
 200dd80:	2804923a 	slli	r2,r5,8
 200dd84:	020003c4 	movi	r8,15
 200dd88:	200f883a 	mov	r7,r4
 200dd8c:	2884b03a 	or	r2,r5,r2
 200dd90:	1006943a 	slli	r3,r2,16
 200dd94:	10c6b03a 	or	r3,r2,r3
 200dd98:	41800a2e 	bgeu	r8,r6,200ddc4 <memset+0x7c>
 200dd9c:	4005883a 	mov	r2,r8
 200dda0:	31bffc04 	addi	r6,r6,-16
 200dda4:	38c00015 	stw	r3,0(r7)
 200dda8:	38c00115 	stw	r3,4(r7)
 200ddac:	38c00215 	stw	r3,8(r7)
 200ddb0:	38c00315 	stw	r3,12(r7)
 200ddb4:	39c00404 	addi	r7,r7,16
 200ddb8:	11bff936 	bltu	r2,r6,200dda0 <memset+0x58>
 200ddbc:	008000c4 	movi	r2,3
 200ddc0:	1180052e 	bgeu	r2,r6,200ddd8 <memset+0x90>
 200ddc4:	31bfff04 	addi	r6,r6,-4
 200ddc8:	008000c4 	movi	r2,3
 200ddcc:	38c00015 	stw	r3,0(r7)
 200ddd0:	39c00104 	addi	r7,r7,4
 200ddd4:	11bffb36 	bltu	r2,r6,200ddc4 <memset+0x7c>
 200ddd8:	3807883a 	mov	r3,r7
 200dddc:	003fe006 	br	200dd60 <memset+0x18>

0200dde0 <_sbrk_r>:
 200dde0:	defffd04 	addi	sp,sp,-12
 200dde4:	dc000015 	stw	r16,0(sp)
 200dde8:	04008074 	movhi	r16,513
 200ddec:	8418ba04 	addi	r16,r16,25320
 200ddf0:	dc400115 	stw	r17,4(sp)
 200ddf4:	80000015 	stw	zero,0(r16)
 200ddf8:	2023883a 	mov	r17,r4
 200ddfc:	2809883a 	mov	r4,r5
 200de00:	dfc00215 	stw	ra,8(sp)
 200de04:	200e9980 	call	200e998 <sbrk>
 200de08:	1007883a 	mov	r3,r2
 200de0c:	00bfffc4 	movi	r2,-1
 200de10:	18800626 	beq	r3,r2,200de2c <_sbrk_r+0x4c>
 200de14:	1805883a 	mov	r2,r3
 200de18:	dfc00217 	ldw	ra,8(sp)
 200de1c:	dc400117 	ldw	r17,4(sp)
 200de20:	dc000017 	ldw	r16,0(sp)
 200de24:	dec00304 	addi	sp,sp,12
 200de28:	f800283a 	ret
 200de2c:	80800017 	ldw	r2,0(r16)
 200de30:	103ff826 	beq	r2,zero,200de14 <_sbrk_r+0x34>
 200de34:	88800015 	stw	r2,0(r17)
 200de38:	1805883a 	mov	r2,r3
 200de3c:	dfc00217 	ldw	ra,8(sp)
 200de40:	dc400117 	ldw	r17,4(sp)
 200de44:	dc000017 	ldw	r16,0(sp)
 200de48:	dec00304 	addi	sp,sp,12
 200de4c:	f800283a 	ret

0200de50 <_raise_r>:
 200de50:	defffd04 	addi	sp,sp,-12
 200de54:	008007c4 	movi	r2,31
 200de58:	dc400115 	stw	r17,4(sp)
 200de5c:	dc000015 	stw	r16,0(sp)
 200de60:	dfc00215 	stw	ra,8(sp)
 200de64:	2821883a 	mov	r16,r5
 200de68:	2023883a 	mov	r17,r4
 200de6c:	11402736 	bltu	r2,r5,200df0c <_raise_r+0xbc>
 200de70:	20c0b717 	ldw	r3,732(r4)
 200de74:	18001326 	beq	r3,zero,200dec4 <_raise_r+0x74>
 200de78:	2945883a 	add	r2,r5,r5
 200de7c:	1085883a 	add	r2,r2,r2
 200de80:	188b883a 	add	r5,r3,r2
 200de84:	28c00017 	ldw	r3,0(r5)
 200de88:	18000e26 	beq	r3,zero,200dec4 <_raise_r+0x74>
 200de8c:	01000044 	movi	r4,1
 200de90:	19000526 	beq	r3,r4,200dea8 <_raise_r+0x58>
 200de94:	00bfffc4 	movi	r2,-1
 200de98:	18801326 	beq	r3,r2,200dee8 <_raise_r+0x98>
 200de9c:	28000015 	stw	zero,0(r5)
 200dea0:	8009883a 	mov	r4,r16
 200dea4:	183ee83a 	callr	r3
 200dea8:	0007883a 	mov	r3,zero
 200deac:	1805883a 	mov	r2,r3
 200deb0:	dfc00217 	ldw	ra,8(sp)
 200deb4:	dc400117 	ldw	r17,4(sp)
 200deb8:	dc000017 	ldw	r16,0(sp)
 200debc:	dec00304 	addi	sp,sp,12
 200dec0:	f800283a 	ret
 200dec4:	200e1280 	call	200e128 <_getpid_r>
 200dec8:	100b883a 	mov	r5,r2
 200decc:	8809883a 	mov	r4,r17
 200ded0:	800d883a 	mov	r6,r16
 200ded4:	dfc00217 	ldw	ra,8(sp)
 200ded8:	dc400117 	ldw	r17,4(sp)
 200dedc:	dc000017 	ldw	r16,0(sp)
 200dee0:	dec00304 	addi	sp,sp,12
 200dee4:	200e12c1 	jmpi	200e12c <_kill_r>
 200dee8:	2007883a 	mov	r3,r4
 200deec:	00800584 	movi	r2,22
 200def0:	88800015 	stw	r2,0(r17)
 200def4:	1805883a 	mov	r2,r3
 200def8:	dfc00217 	ldw	ra,8(sp)
 200defc:	dc400117 	ldw	r17,4(sp)
 200df00:	dc000017 	ldw	r16,0(sp)
 200df04:	dec00304 	addi	sp,sp,12
 200df08:	f800283a 	ret
 200df0c:	00800584 	movi	r2,22
 200df10:	00ffffc4 	movi	r3,-1
 200df14:	20800015 	stw	r2,0(r4)
 200df18:	003fe406 	br	200deac <_raise_r+0x5c>

0200df1c <raise>:
 200df1c:	00808074 	movhi	r2,513
 200df20:	1091be04 	addi	r2,r2,18168
 200df24:	200b883a 	mov	r5,r4
 200df28:	11000017 	ldw	r4,0(r2)
 200df2c:	200de501 	jmpi	200de50 <_raise_r>

0200df30 <_init_signal_r>:
 200df30:	2080b717 	ldw	r2,732(r4)
 200df34:	defffe04 	addi	sp,sp,-8
 200df38:	dc000015 	stw	r16,0(sp)
 200df3c:	dfc00115 	stw	ra,4(sp)
 200df40:	2021883a 	mov	r16,r4
 200df44:	10000526 	beq	r2,zero,200df5c <_init_signal_r+0x2c>
 200df48:	0005883a 	mov	r2,zero
 200df4c:	dfc00117 	ldw	ra,4(sp)
 200df50:	dc000017 	ldw	r16,0(sp)
 200df54:	dec00204 	addi	sp,sp,8
 200df58:	f800283a 	ret
 200df5c:	01402004 	movi	r5,128
 200df60:	200d6080 	call	200d608 <_malloc_r>
 200df64:	1009883a 	mov	r4,r2
 200df68:	8080b715 	stw	r2,732(r16)
 200df6c:	10000726 	beq	r2,zero,200df8c <_init_signal_r+0x5c>
 200df70:	0007883a 	mov	r3,zero
 200df74:	01402004 	movi	r5,128
 200df78:	20c5883a 	add	r2,r4,r3
 200df7c:	18c00104 	addi	r3,r3,4
 200df80:	10000015 	stw	zero,0(r2)
 200df84:	197ffc1e 	bne	r3,r5,200df78 <_init_signal_r+0x48>
 200df88:	003fef06 	br	200df48 <_init_signal_r+0x18>
 200df8c:	00bfffc4 	movi	r2,-1
 200df90:	003fee06 	br	200df4c <_init_signal_r+0x1c>

0200df94 <_init_signal>:
 200df94:	00808074 	movhi	r2,513
 200df98:	1091be04 	addi	r2,r2,18168
 200df9c:	11000017 	ldw	r4,0(r2)
 200dfa0:	200df301 	jmpi	200df30 <_init_signal_r>

0200dfa4 <__sigtramp_r>:
 200dfa4:	defffd04 	addi	sp,sp,-12
 200dfa8:	008007c4 	movi	r2,31
 200dfac:	dc000115 	stw	r16,4(sp)
 200dfb0:	dfc00215 	stw	ra,8(sp)
 200dfb4:	2021883a 	mov	r16,r4
 200dfb8:	11401336 	bltu	r2,r5,200e008 <__sigtramp_r+0x64>
 200dfbc:	20c0b717 	ldw	r3,732(r4)
 200dfc0:	18001f26 	beq	r3,zero,200e040 <__sigtramp_r+0x9c>
 200dfc4:	2945883a 	add	r2,r5,r5
 200dfc8:	1085883a 	add	r2,r2,r2
 200dfcc:	10c9883a 	add	r4,r2,r3
 200dfd0:	20c00017 	ldw	r3,0(r4)
 200dfd4:	18001626 	beq	r3,zero,200e030 <__sigtramp_r+0x8c>
 200dfd8:	00bfffc4 	movi	r2,-1
 200dfdc:	18801626 	beq	r3,r2,200e038 <__sigtramp_r+0x94>
 200dfe0:	00800044 	movi	r2,1
 200dfe4:	18800d26 	beq	r3,r2,200e01c <__sigtramp_r+0x78>
 200dfe8:	20000015 	stw	zero,0(r4)
 200dfec:	2809883a 	mov	r4,r5
 200dff0:	183ee83a 	callr	r3
 200dff4:	0005883a 	mov	r2,zero
 200dff8:	dfc00217 	ldw	ra,8(sp)
 200dffc:	dc000117 	ldw	r16,4(sp)
 200e000:	dec00304 	addi	sp,sp,12
 200e004:	f800283a 	ret
 200e008:	00bfffc4 	movi	r2,-1
 200e00c:	dfc00217 	ldw	ra,8(sp)
 200e010:	dc000117 	ldw	r16,4(sp)
 200e014:	dec00304 	addi	sp,sp,12
 200e018:	f800283a 	ret
 200e01c:	008000c4 	movi	r2,3
 200e020:	dfc00217 	ldw	ra,8(sp)
 200e024:	dc000117 	ldw	r16,4(sp)
 200e028:	dec00304 	addi	sp,sp,12
 200e02c:	f800283a 	ret
 200e030:	00800044 	movi	r2,1
 200e034:	003ff006 	br	200dff8 <__sigtramp_r+0x54>
 200e038:	00800084 	movi	r2,2
 200e03c:	003fee06 	br	200dff8 <__sigtramp_r+0x54>
 200e040:	d9400015 	stw	r5,0(sp)
 200e044:	200df300 	call	200df30 <_init_signal_r>
 200e048:	d9400017 	ldw	r5,0(sp)
 200e04c:	103fee1e 	bne	r2,zero,200e008 <__sigtramp_r+0x64>
 200e050:	80c0b717 	ldw	r3,732(r16)
 200e054:	003fdb06 	br	200dfc4 <__sigtramp_r+0x20>

0200e058 <__sigtramp>:
 200e058:	00808074 	movhi	r2,513
 200e05c:	1091be04 	addi	r2,r2,18168
 200e060:	200b883a 	mov	r5,r4
 200e064:	11000017 	ldw	r4,0(r2)
 200e068:	200dfa41 	jmpi	200dfa4 <__sigtramp_r>

0200e06c <_signal_r>:
 200e06c:	defffc04 	addi	sp,sp,-16
 200e070:	008007c4 	movi	r2,31
 200e074:	dc800215 	stw	r18,8(sp)
 200e078:	dc400115 	stw	r17,4(sp)
 200e07c:	dc000015 	stw	r16,0(sp)
 200e080:	dfc00315 	stw	ra,12(sp)
 200e084:	2823883a 	mov	r17,r5
 200e088:	00ffffc4 	movi	r3,-1
 200e08c:	3025883a 	mov	r18,r6
 200e090:	2021883a 	mov	r16,r4
 200e094:	1140092e 	bgeu	r2,r5,200e0bc <_signal_r+0x50>
 200e098:	00800584 	movi	r2,22
 200e09c:	20800015 	stw	r2,0(r4)
 200e0a0:	1805883a 	mov	r2,r3
 200e0a4:	dfc00317 	ldw	ra,12(sp)
 200e0a8:	dc800217 	ldw	r18,8(sp)
 200e0ac:	dc400117 	ldw	r17,4(sp)
 200e0b0:	dc000017 	ldw	r16,0(sp)
 200e0b4:	dec00404 	addi	sp,sp,16
 200e0b8:	f800283a 	ret
 200e0bc:	2140b717 	ldw	r5,732(r4)
 200e0c0:	28000c26 	beq	r5,zero,200e0f4 <_signal_r+0x88>
 200e0c4:	8c45883a 	add	r2,r17,r17
 200e0c8:	1085883a 	add	r2,r2,r2
 200e0cc:	1145883a 	add	r2,r2,r5
 200e0d0:	10c00017 	ldw	r3,0(r2)
 200e0d4:	14800015 	stw	r18,0(r2)
 200e0d8:	1805883a 	mov	r2,r3
 200e0dc:	dfc00317 	ldw	ra,12(sp)
 200e0e0:	dc800217 	ldw	r18,8(sp)
 200e0e4:	dc400117 	ldw	r17,4(sp)
 200e0e8:	dc000017 	ldw	r16,0(sp)
 200e0ec:	dec00404 	addi	sp,sp,16
 200e0f0:	f800283a 	ret
 200e0f4:	200df300 	call	200df30 <_init_signal_r>
 200e0f8:	1000021e 	bne	r2,zero,200e104 <_signal_r+0x98>
 200e0fc:	8140b717 	ldw	r5,732(r16)
 200e100:	003ff006 	br	200e0c4 <_signal_r+0x58>
 200e104:	00ffffc4 	movi	r3,-1
 200e108:	003fe506 	br	200e0a0 <_signal_r+0x34>

0200e10c <signal>:
 200e10c:	01808074 	movhi	r6,513
 200e110:	3191be04 	addi	r6,r6,18168
 200e114:	2007883a 	mov	r3,r4
 200e118:	31000017 	ldw	r4,0(r6)
 200e11c:	280d883a 	mov	r6,r5
 200e120:	180b883a 	mov	r5,r3
 200e124:	200e06c1 	jmpi	200e06c <_signal_r>

0200e128 <_getpid_r>:
 200e128:	200e6401 	jmpi	200e640 <getpid>

0200e12c <_kill_r>:
 200e12c:	defffd04 	addi	sp,sp,-12
 200e130:	dc000015 	stw	r16,0(sp)
 200e134:	04008074 	movhi	r16,513
 200e138:	8418ba04 	addi	r16,r16,25320
 200e13c:	dc400115 	stw	r17,4(sp)
 200e140:	80000015 	stw	zero,0(r16)
 200e144:	2023883a 	mov	r17,r4
 200e148:	2809883a 	mov	r4,r5
 200e14c:	300b883a 	mov	r5,r6
 200e150:	dfc00215 	stw	ra,8(sp)
 200e154:	200e6600 	call	200e660 <kill>
 200e158:	1007883a 	mov	r3,r2
 200e15c:	00bfffc4 	movi	r2,-1
 200e160:	18800626 	beq	r3,r2,200e17c <_kill_r+0x50>
 200e164:	1805883a 	mov	r2,r3
 200e168:	dfc00217 	ldw	ra,8(sp)
 200e16c:	dc400117 	ldw	r17,4(sp)
 200e170:	dc000017 	ldw	r16,0(sp)
 200e174:	dec00304 	addi	sp,sp,12
 200e178:	f800283a 	ret
 200e17c:	80800017 	ldw	r2,0(r16)
 200e180:	103ff826 	beq	r2,zero,200e164 <_kill_r+0x38>
 200e184:	88800015 	stw	r2,0(r17)
 200e188:	1805883a 	mov	r2,r3
 200e18c:	dfc00217 	ldw	ra,8(sp)
 200e190:	dc400117 	ldw	r17,4(sp)
 200e194:	dc000017 	ldw	r16,0(sp)
 200e198:	dec00304 	addi	sp,sp,12
 200e19c:	f800283a 	ret

0200e1a0 <_malloc_trim_r>:
 200e1a0:	defffb04 	addi	sp,sp,-20
 200e1a4:	dcc00315 	stw	r19,12(sp)
 200e1a8:	04c08074 	movhi	r19,513
 200e1ac:	9ccaef04 	addi	r19,r19,11196
 200e1b0:	dc800215 	stw	r18,8(sp)
 200e1b4:	dc400115 	stw	r17,4(sp)
 200e1b8:	dc000015 	stw	r16,0(sp)
 200e1bc:	2823883a 	mov	r17,r5
 200e1c0:	2025883a 	mov	r18,r4
 200e1c4:	dfc00415 	stw	ra,16(sp)
 200e1c8:	200e9580 	call	200e958 <__malloc_lock>
 200e1cc:	98800217 	ldw	r2,8(r19)
 200e1d0:	9009883a 	mov	r4,r18
 200e1d4:	000b883a 	mov	r5,zero
 200e1d8:	10c00117 	ldw	r3,4(r2)
 200e1dc:	00bfff04 	movi	r2,-4
 200e1e0:	18a0703a 	and	r16,r3,r2
 200e1e4:	8463c83a 	sub	r17,r16,r17
 200e1e8:	8c43fbc4 	addi	r17,r17,4079
 200e1ec:	8822d33a 	srli	r17,r17,12
 200e1f0:	0083ffc4 	movi	r2,4095
 200e1f4:	8c7fffc4 	addi	r17,r17,-1
 200e1f8:	8822933a 	slli	r17,r17,12
 200e1fc:	1440060e 	bge	r2,r17,200e218 <_malloc_trim_r+0x78>
 200e200:	200dde00 	call	200dde0 <_sbrk_r>
 200e204:	98c00217 	ldw	r3,8(r19)
 200e208:	9009883a 	mov	r4,r18
 200e20c:	044bc83a 	sub	r5,zero,r17
 200e210:	80c7883a 	add	r3,r16,r3
 200e214:	10c00926 	beq	r2,r3,200e23c <_malloc_trim_r+0x9c>
 200e218:	200e9780 	call	200e978 <__malloc_unlock>
 200e21c:	0005883a 	mov	r2,zero
 200e220:	dfc00417 	ldw	ra,16(sp)
 200e224:	dcc00317 	ldw	r19,12(sp)
 200e228:	dc800217 	ldw	r18,8(sp)
 200e22c:	dc400117 	ldw	r17,4(sp)
 200e230:	dc000017 	ldw	r16,0(sp)
 200e234:	dec00504 	addi	sp,sp,20
 200e238:	f800283a 	ret
 200e23c:	9009883a 	mov	r4,r18
 200e240:	200dde00 	call	200dde0 <_sbrk_r>
 200e244:	844dc83a 	sub	r6,r16,r17
 200e248:	00ffffc4 	movi	r3,-1
 200e24c:	9009883a 	mov	r4,r18
 200e250:	000b883a 	mov	r5,zero
 200e254:	01c08074 	movhi	r7,513
 200e258:	39dac104 	addi	r7,r7,27396
 200e25c:	31800054 	ori	r6,r6,1
 200e260:	10c00926 	beq	r2,r3,200e288 <_malloc_trim_r+0xe8>
 200e264:	38800017 	ldw	r2,0(r7)
 200e268:	98c00217 	ldw	r3,8(r19)
 200e26c:	9009883a 	mov	r4,r18
 200e270:	1445c83a 	sub	r2,r2,r17
 200e274:	38800015 	stw	r2,0(r7)
 200e278:	19800115 	stw	r6,4(r3)
 200e27c:	200e9780 	call	200e978 <__malloc_unlock>
 200e280:	00800044 	movi	r2,1
 200e284:	003fe606 	br	200e220 <_malloc_trim_r+0x80>
 200e288:	200dde00 	call	200dde0 <_sbrk_r>
 200e28c:	99800217 	ldw	r6,8(r19)
 200e290:	100f883a 	mov	r7,r2
 200e294:	9009883a 	mov	r4,r18
 200e298:	1187c83a 	sub	r3,r2,r6
 200e29c:	008003c4 	movi	r2,15
 200e2a0:	19400054 	ori	r5,r3,1
 200e2a4:	10ffdc0e 	bge	r2,r3,200e218 <_malloc_trim_r+0x78>
 200e2a8:	00808074 	movhi	r2,513
 200e2ac:	1091bd04 	addi	r2,r2,18164
 200e2b0:	10c00017 	ldw	r3,0(r2)
 200e2b4:	00808074 	movhi	r2,513
 200e2b8:	109ac104 	addi	r2,r2,27396
 200e2bc:	31400115 	stw	r5,4(r6)
 200e2c0:	38c7c83a 	sub	r3,r7,r3
 200e2c4:	10c00015 	stw	r3,0(r2)
 200e2c8:	003fd306 	br	200e218 <_malloc_trim_r+0x78>

0200e2cc <_free_r>:
 200e2cc:	defffd04 	addi	sp,sp,-12
 200e2d0:	dc400115 	stw	r17,4(sp)
 200e2d4:	dc000015 	stw	r16,0(sp)
 200e2d8:	dfc00215 	stw	ra,8(sp)
 200e2dc:	2821883a 	mov	r16,r5
 200e2e0:	2023883a 	mov	r17,r4
 200e2e4:	28005a26 	beq	r5,zero,200e450 <_free_r+0x184>
 200e2e8:	200e9580 	call	200e958 <__malloc_lock>
 200e2ec:	823ffe04 	addi	r8,r16,-8
 200e2f0:	41400117 	ldw	r5,4(r8)
 200e2f4:	00bfff84 	movi	r2,-2
 200e2f8:	02808074 	movhi	r10,513
 200e2fc:	528aef04 	addi	r10,r10,11196
 200e300:	288e703a 	and	r7,r5,r2
 200e304:	41cd883a 	add	r6,r8,r7
 200e308:	30c00117 	ldw	r3,4(r6)
 200e30c:	51000217 	ldw	r4,8(r10)
 200e310:	00bfff04 	movi	r2,-4
 200e314:	1892703a 	and	r9,r3,r2
 200e318:	5017883a 	mov	r11,r10
 200e31c:	31006726 	beq	r6,r4,200e4bc <_free_r+0x1f0>
 200e320:	2880004c 	andi	r2,r5,1
 200e324:	1005003a 	cmpeq	r2,r2,zero
 200e328:	32400115 	stw	r9,4(r6)
 200e32c:	10001a1e 	bne	r2,zero,200e398 <_free_r+0xcc>
 200e330:	000b883a 	mov	r5,zero
 200e334:	3247883a 	add	r3,r6,r9
 200e338:	18800117 	ldw	r2,4(r3)
 200e33c:	1080004c 	andi	r2,r2,1
 200e340:	1000231e 	bne	r2,zero,200e3d0 <_free_r+0x104>
 200e344:	280ac03a 	cmpne	r5,r5,zero
 200e348:	3a4f883a 	add	r7,r7,r9
 200e34c:	2800451e 	bne	r5,zero,200e464 <_free_r+0x198>
 200e350:	31000217 	ldw	r4,8(r6)
 200e354:	00808074 	movhi	r2,513
 200e358:	108af104 	addi	r2,r2,11204
 200e35c:	20807b26 	beq	r4,r2,200e54c <_free_r+0x280>
 200e360:	30800317 	ldw	r2,12(r6)
 200e364:	3a07883a 	add	r3,r7,r8
 200e368:	19c00015 	stw	r7,0(r3)
 200e36c:	11000215 	stw	r4,8(r2)
 200e370:	20800315 	stw	r2,12(r4)
 200e374:	38800054 	ori	r2,r7,1
 200e378:	40800115 	stw	r2,4(r8)
 200e37c:	28001a26 	beq	r5,zero,200e3e8 <_free_r+0x11c>
 200e380:	8809883a 	mov	r4,r17
 200e384:	dfc00217 	ldw	ra,8(sp)
 200e388:	dc400117 	ldw	r17,4(sp)
 200e38c:	dc000017 	ldw	r16,0(sp)
 200e390:	dec00304 	addi	sp,sp,12
 200e394:	200e9781 	jmpi	200e978 <__malloc_unlock>
 200e398:	80bffe17 	ldw	r2,-8(r16)
 200e39c:	50c00204 	addi	r3,r10,8
 200e3a0:	4091c83a 	sub	r8,r8,r2
 200e3a4:	41000217 	ldw	r4,8(r8)
 200e3a8:	388f883a 	add	r7,r7,r2
 200e3ac:	20c06126 	beq	r4,r3,200e534 <_free_r+0x268>
 200e3b0:	40800317 	ldw	r2,12(r8)
 200e3b4:	3247883a 	add	r3,r6,r9
 200e3b8:	000b883a 	mov	r5,zero
 200e3bc:	11000215 	stw	r4,8(r2)
 200e3c0:	20800315 	stw	r2,12(r4)
 200e3c4:	18800117 	ldw	r2,4(r3)
 200e3c8:	1080004c 	andi	r2,r2,1
 200e3cc:	103fdd26 	beq	r2,zero,200e344 <_free_r+0x78>
 200e3d0:	38800054 	ori	r2,r7,1
 200e3d4:	3a07883a 	add	r3,r7,r8
 200e3d8:	280ac03a 	cmpne	r5,r5,zero
 200e3dc:	40800115 	stw	r2,4(r8)
 200e3e0:	19c00015 	stw	r7,0(r3)
 200e3e4:	283fe61e 	bne	r5,zero,200e380 <_free_r+0xb4>
 200e3e8:	00807fc4 	movi	r2,511
 200e3ec:	11c01f2e 	bgeu	r2,r7,200e46c <_free_r+0x1a0>
 200e3f0:	3806d27a 	srli	r3,r7,9
 200e3f4:	1800481e 	bne	r3,zero,200e518 <_free_r+0x24c>
 200e3f8:	3804d0fa 	srli	r2,r7,3
 200e3fc:	100690fa 	slli	r3,r2,3
 200e400:	1acd883a 	add	r6,r3,r11
 200e404:	31400217 	ldw	r5,8(r6)
 200e408:	31405926 	beq	r6,r5,200e570 <_free_r+0x2a4>
 200e40c:	28800117 	ldw	r2,4(r5)
 200e410:	00ffff04 	movi	r3,-4
 200e414:	10c4703a 	and	r2,r2,r3
 200e418:	3880022e 	bgeu	r7,r2,200e424 <_free_r+0x158>
 200e41c:	29400217 	ldw	r5,8(r5)
 200e420:	317ffa1e 	bne	r6,r5,200e40c <_free_r+0x140>
 200e424:	29800317 	ldw	r6,12(r5)
 200e428:	41800315 	stw	r6,12(r8)
 200e42c:	41400215 	stw	r5,8(r8)
 200e430:	8809883a 	mov	r4,r17
 200e434:	2a000315 	stw	r8,12(r5)
 200e438:	32000215 	stw	r8,8(r6)
 200e43c:	dfc00217 	ldw	ra,8(sp)
 200e440:	dc400117 	ldw	r17,4(sp)
 200e444:	dc000017 	ldw	r16,0(sp)
 200e448:	dec00304 	addi	sp,sp,12
 200e44c:	200e9781 	jmpi	200e978 <__malloc_unlock>
 200e450:	dfc00217 	ldw	ra,8(sp)
 200e454:	dc400117 	ldw	r17,4(sp)
 200e458:	dc000017 	ldw	r16,0(sp)
 200e45c:	dec00304 	addi	sp,sp,12
 200e460:	f800283a 	ret
 200e464:	31000217 	ldw	r4,8(r6)
 200e468:	003fbd06 	br	200e360 <_free_r+0x94>
 200e46c:	3806d0fa 	srli	r3,r7,3
 200e470:	00800044 	movi	r2,1
 200e474:	51400117 	ldw	r5,4(r10)
 200e478:	180890fa 	slli	r4,r3,3
 200e47c:	1807d0ba 	srai	r3,r3,2
 200e480:	22c9883a 	add	r4,r4,r11
 200e484:	21800217 	ldw	r6,8(r4)
 200e488:	10c4983a 	sll	r2,r2,r3
 200e48c:	41000315 	stw	r4,12(r8)
 200e490:	41800215 	stw	r6,8(r8)
 200e494:	288ab03a 	or	r5,r5,r2
 200e498:	22000215 	stw	r8,8(r4)
 200e49c:	8809883a 	mov	r4,r17
 200e4a0:	51400115 	stw	r5,4(r10)
 200e4a4:	32000315 	stw	r8,12(r6)
 200e4a8:	dfc00217 	ldw	ra,8(sp)
 200e4ac:	dc400117 	ldw	r17,4(sp)
 200e4b0:	dc000017 	ldw	r16,0(sp)
 200e4b4:	dec00304 	addi	sp,sp,12
 200e4b8:	200e9781 	jmpi	200e978 <__malloc_unlock>
 200e4bc:	2880004c 	andi	r2,r5,1
 200e4c0:	3a4d883a 	add	r6,r7,r9
 200e4c4:	1000071e 	bne	r2,zero,200e4e4 <_free_r+0x218>
 200e4c8:	80bffe17 	ldw	r2,-8(r16)
 200e4cc:	4091c83a 	sub	r8,r8,r2
 200e4d0:	41000317 	ldw	r4,12(r8)
 200e4d4:	40c00217 	ldw	r3,8(r8)
 200e4d8:	308d883a 	add	r6,r6,r2
 200e4dc:	20c00215 	stw	r3,8(r4)
 200e4e0:	19000315 	stw	r4,12(r3)
 200e4e4:	00808074 	movhi	r2,513
 200e4e8:	1091bc04 	addi	r2,r2,18160
 200e4ec:	11000017 	ldw	r4,0(r2)
 200e4f0:	30c00054 	ori	r3,r6,1
 200e4f4:	52000215 	stw	r8,8(r10)
 200e4f8:	40c00115 	stw	r3,4(r8)
 200e4fc:	313fa036 	bltu	r6,r4,200e380 <_free_r+0xb4>
 200e500:	00808074 	movhi	r2,513
 200e504:	1098b704 	addi	r2,r2,25308
 200e508:	11400017 	ldw	r5,0(r2)
 200e50c:	8809883a 	mov	r4,r17
 200e510:	200e1a00 	call	200e1a0 <_malloc_trim_r>
 200e514:	003f9a06 	br	200e380 <_free_r+0xb4>
 200e518:	00800104 	movi	r2,4
 200e51c:	10c0072e 	bgeu	r2,r3,200e53c <_free_r+0x270>
 200e520:	00800504 	movi	r2,20
 200e524:	10c01936 	bltu	r2,r3,200e58c <_free_r+0x2c0>
 200e528:	188016c4 	addi	r2,r3,91
 200e52c:	100690fa 	slli	r3,r2,3
 200e530:	003fb306 	br	200e400 <_free_r+0x134>
 200e534:	01400044 	movi	r5,1
 200e538:	003f7e06 	br	200e334 <_free_r+0x68>
 200e53c:	3804d1ba 	srli	r2,r7,6
 200e540:	10800e04 	addi	r2,r2,56
 200e544:	100690fa 	slli	r3,r2,3
 200e548:	003fad06 	br	200e400 <_free_r+0x134>
 200e54c:	22000315 	stw	r8,12(r4)
 200e550:	22000215 	stw	r8,8(r4)
 200e554:	3a05883a 	add	r2,r7,r8
 200e558:	38c00054 	ori	r3,r7,1
 200e55c:	11c00015 	stw	r7,0(r2)
 200e560:	41000215 	stw	r4,8(r8)
 200e564:	40c00115 	stw	r3,4(r8)
 200e568:	41000315 	stw	r4,12(r8)
 200e56c:	003f8406 	br	200e380 <_free_r+0xb4>
 200e570:	1005d0ba 	srai	r2,r2,2
 200e574:	00c00044 	movi	r3,1
 200e578:	51000117 	ldw	r4,4(r10)
 200e57c:	1886983a 	sll	r3,r3,r2
 200e580:	20c8b03a 	or	r4,r4,r3
 200e584:	51000115 	stw	r4,4(r10)
 200e588:	003fa706 	br	200e428 <_free_r+0x15c>
 200e58c:	00801504 	movi	r2,84
 200e590:	10c00436 	bltu	r2,r3,200e5a4 <_free_r+0x2d8>
 200e594:	3804d33a 	srli	r2,r7,12
 200e598:	10801b84 	addi	r2,r2,110
 200e59c:	100690fa 	slli	r3,r2,3
 200e5a0:	003f9706 	br	200e400 <_free_r+0x134>
 200e5a4:	00805504 	movi	r2,340
 200e5a8:	10c00436 	bltu	r2,r3,200e5bc <_free_r+0x2f0>
 200e5ac:	3804d3fa 	srli	r2,r7,15
 200e5b0:	10801dc4 	addi	r2,r2,119
 200e5b4:	100690fa 	slli	r3,r2,3
 200e5b8:	003f9106 	br	200e400 <_free_r+0x134>
 200e5bc:	00815504 	movi	r2,1364
 200e5c0:	10c0032e 	bgeu	r2,r3,200e5d0 <_free_r+0x304>
 200e5c4:	00801f84 	movi	r2,126
 200e5c8:	00c0fc04 	movi	r3,1008
 200e5cc:	003f8c06 	br	200e400 <_free_r+0x134>
 200e5d0:	3804d4ba 	srli	r2,r7,18
 200e5d4:	10801f04 	addi	r2,r2,124
 200e5d8:	100690fa 	slli	r3,r2,3
 200e5dc:	003f8806 	br	200e400 <_free_r+0x134>

0200e5e0 <alt_sim_halt>:
 200e5e0:	defffd04 	addi	sp,sp,-12
 200e5e4:	df000215 	stw	fp,8(sp)
 200e5e8:	df000204 	addi	fp,sp,8
 200e5ec:	e13fff15 	stw	r4,-4(fp)
 200e5f0:	e0bfff17 	ldw	r2,-4(fp)
 200e5f4:	e0bffe15 	stw	r2,-8(fp)
 200e5f8:	e0bffe17 	ldw	r2,-8(fp)
 200e5fc:	1005003a 	cmpeq	r2,r2,zero
 200e600:	1000021e 	bne	r2,zero,200e60c <alt_sim_halt+0x2c>
 200e604:	002af070 	cmpltui	zero,zero,43969
 200e608:	00000106 	br	200e610 <alt_sim_halt+0x30>
 200e60c:	002af0b0 	cmpltui	zero,zero,43970
 200e610:	e037883a 	mov	sp,fp
 200e614:	df000017 	ldw	fp,0(sp)
 200e618:	dec00104 	addi	sp,sp,4
 200e61c:	f800283a 	ret

0200e620 <_exit>:
 200e620:	defffd04 	addi	sp,sp,-12
 200e624:	dfc00215 	stw	ra,8(sp)
 200e628:	df000115 	stw	fp,4(sp)
 200e62c:	df000104 	addi	fp,sp,4
 200e630:	e13fff15 	stw	r4,-4(fp)
 200e634:	e13fff17 	ldw	r4,-4(fp)
 200e638:	200e5e00 	call	200e5e0 <alt_sim_halt>
 200e63c:	003fff06 	br	200e63c <_exit+0x1c>

0200e640 <getpid>:
 200e640:	deffff04 	addi	sp,sp,-4
 200e644:	df000015 	stw	fp,0(sp)
 200e648:	d839883a 	mov	fp,sp
 200e64c:	0005883a 	mov	r2,zero
 200e650:	e037883a 	mov	sp,fp
 200e654:	df000017 	ldw	fp,0(sp)
 200e658:	dec00104 	addi	sp,sp,4
 200e65c:	f800283a 	ret

0200e660 <kill>:
 200e660:	defffa04 	addi	sp,sp,-24
 200e664:	dfc00515 	stw	ra,20(sp)
 200e668:	df000415 	stw	fp,16(sp)
 200e66c:	df000404 	addi	fp,sp,16
 200e670:	e13ffd15 	stw	r4,-12(fp)
 200e674:	e17ffe15 	stw	r5,-8(fp)
 200e678:	e03ffc15 	stw	zero,-16(fp)
 200e67c:	e0bffd17 	ldw	r2,-12(fp)
 200e680:	10800048 	cmpgei	r2,r2,1
 200e684:	1000301e 	bne	r2,zero,200e748 <kill+0xe8>
 200e688:	e0bffe17 	ldw	r2,-8(fp)
 200e68c:	10800828 	cmpgeui	r2,r2,32
 200e690:	10002a1e 	bne	r2,zero,200e73c <kill+0xdc>
 200e694:	e0bffe17 	ldw	r2,-8(fp)
 200e698:	1085883a 	add	r2,r2,r2
 200e69c:	1087883a 	add	r3,r2,r2
 200e6a0:	00808074 	movhi	r2,513
 200e6a4:	10b9ad04 	addi	r2,r2,-6476
 200e6a8:	1885883a 	add	r2,r3,r2
 200e6ac:	10800017 	ldw	r2,0(r2)
 200e6b0:	1000683a 	jmp	r2
 200e6b4:	0200e75c 	xori	r8,zero,925
 200e6b8:	0200e73c 	xorhi	r8,zero,924
 200e6bc:	0200e73c 	xorhi	r8,zero,924
 200e6c0:	0200e734 	movhi	r8,924
 200e6c4:	0200e734 	movhi	r8,924
 200e6c8:	0200e734 	movhi	r8,924
 200e6cc:	0200e734 	movhi	r8,924
 200e6d0:	0200e73c 	xorhi	r8,zero,924
 200e6d4:	0200e734 	movhi	r8,924
 200e6d8:	0200e734 	movhi	r8,924
 200e6dc:	0200e734 	movhi	r8,924
 200e6e0:	0200e734 	movhi	r8,924
 200e6e4:	0200e734 	movhi	r8,924
 200e6e8:	0200e734 	movhi	r8,924
 200e6ec:	0200e734 	movhi	r8,924
 200e6f0:	0200e734 	movhi	r8,924
 200e6f4:	0200e75c 	xori	r8,zero,925
 200e6f8:	0200e73c 	xorhi	r8,zero,924
 200e6fc:	0200e73c 	xorhi	r8,zero,924
 200e700:	0200e73c 	xorhi	r8,zero,924
 200e704:	0200e75c 	xori	r8,zero,925
 200e708:	0200e73c 	xorhi	r8,zero,924
 200e70c:	0200e73c 	xorhi	r8,zero,924
 200e710:	0200e734 	movhi	r8,924
 200e714:	0200e734 	movhi	r8,924
 200e718:	0200e734 	movhi	r8,924
 200e71c:	0200e734 	movhi	r8,924
 200e720:	0200e734 	movhi	r8,924
 200e724:	0200e73c 	xorhi	r8,zero,924
 200e728:	0200e73c 	xorhi	r8,zero,924
 200e72c:	0200e734 	movhi	r8,924
 200e730:	0200e734 	movhi	r8,924
 200e734:	0009883a 	mov	r4,zero
 200e738:	200e6200 	call	200e620 <_exit>
 200e73c:	00800584 	movi	r2,22
 200e740:	e0bffc15 	stw	r2,-16(fp)
 200e744:	00000506 	br	200e75c <kill+0xfc>
 200e748:	e0bffd17 	ldw	r2,-12(fp)
 200e74c:	10800050 	cmplti	r2,r2,1
 200e750:	1000021e 	bne	r2,zero,200e75c <kill+0xfc>
 200e754:	008000c4 	movi	r2,3
 200e758:	e0bffc15 	stw	r2,-16(fp)
 200e75c:	e0bffc17 	ldw	r2,-16(fp)
 200e760:	1005003a 	cmpeq	r2,r2,zero
 200e764:	1000071e 	bne	r2,zero,200e784 <kill+0x124>
 200e768:	200e7a00 	call	200e7a0 <alt_get_errno>
 200e76c:	1007883a 	mov	r3,r2
 200e770:	e0bffc17 	ldw	r2,-16(fp)
 200e774:	18800015 	stw	r2,0(r3)
 200e778:	00bfffc4 	movi	r2,-1
 200e77c:	e0bfff15 	stw	r2,-4(fp)
 200e780:	00000106 	br	200e788 <kill+0x128>
 200e784:	e03fff15 	stw	zero,-4(fp)
 200e788:	e0bfff17 	ldw	r2,-4(fp)
 200e78c:	e037883a 	mov	sp,fp
 200e790:	dfc00117 	ldw	ra,4(sp)
 200e794:	df000017 	ldw	fp,0(sp)
 200e798:	dec00204 	addi	sp,sp,8
 200e79c:	f800283a 	ret

0200e7a0 <alt_get_errno>:
 200e7a0:	defffd04 	addi	sp,sp,-12
 200e7a4:	dfc00215 	stw	ra,8(sp)
 200e7a8:	df000115 	stw	fp,4(sp)
 200e7ac:	df000104 	addi	fp,sp,4
 200e7b0:	00808074 	movhi	r2,513
 200e7b4:	1091c804 	addi	r2,r2,18208
 200e7b8:	10800017 	ldw	r2,0(r2)
 200e7bc:	1005003a 	cmpeq	r2,r2,zero
 200e7c0:	1000061e 	bne	r2,zero,200e7dc <alt_get_errno+0x3c>
 200e7c4:	00808074 	movhi	r2,513
 200e7c8:	1091c804 	addi	r2,r2,18208
 200e7cc:	10800017 	ldw	r2,0(r2)
 200e7d0:	103ee83a 	callr	r2
 200e7d4:	e0bfff15 	stw	r2,-4(fp)
 200e7d8:	00000306 	br	200e7e8 <alt_get_errno+0x48>
 200e7dc:	00808074 	movhi	r2,513
 200e7e0:	1098ba04 	addi	r2,r2,25320
 200e7e4:	e0bfff15 	stw	r2,-4(fp)
 200e7e8:	e0bfff17 	ldw	r2,-4(fp)
 200e7ec:	e037883a 	mov	sp,fp
 200e7f0:	dfc00117 	ldw	ra,4(sp)
 200e7f4:	df000017 	ldw	fp,0(sp)
 200e7f8:	dec00204 	addi	sp,sp,8
 200e7fc:	f800283a 	ret

0200e800 <alt_load>:
 200e800:	defffe04 	addi	sp,sp,-8
 200e804:	dfc00115 	stw	ra,4(sp)
 200e808:	df000015 	stw	fp,0(sp)
 200e80c:	d839883a 	mov	fp,sp
 200e810:	01008074 	movhi	r4,513
 200e814:	2111cc04 	addi	r4,r4,18224
 200e818:	01408074 	movhi	r5,513
 200e81c:	294aef04 	addi	r5,r5,11196
 200e820:	01808074 	movhi	r6,513
 200e824:	3191cc04 	addi	r6,r6,18224
 200e828:	200e8800 	call	200e880 <alt_load_section>
 200e82c:	01008034 	movhi	r4,512
 200e830:	21000804 	addi	r4,r4,32
 200e834:	01408034 	movhi	r5,512
 200e838:	29400804 	addi	r5,r5,32
 200e83c:	01808034 	movhi	r6,512
 200e840:	31806e04 	addi	r6,r6,440
 200e844:	200e8800 	call	200e880 <alt_load_section>
 200e848:	01008074 	movhi	r4,513
 200e84c:	21096904 	addi	r4,r4,9636
 200e850:	01408074 	movhi	r5,513
 200e854:	29496904 	addi	r5,r5,9636
 200e858:	01808074 	movhi	r6,513
 200e85c:	318aef04 	addi	r6,r6,11196
 200e860:	200e8800 	call	200e880 <alt_load_section>
 200e864:	20111080 	call	2011108 <alt_dcache_flush_all>
 200e868:	20114900 	call	2011490 <alt_icache_flush_all>
 200e86c:	e037883a 	mov	sp,fp
 200e870:	dfc00117 	ldw	ra,4(sp)
 200e874:	df000017 	ldw	fp,0(sp)
 200e878:	dec00204 	addi	sp,sp,8
 200e87c:	f800283a 	ret

0200e880 <alt_load_section>:
 200e880:	defffc04 	addi	sp,sp,-16
 200e884:	df000315 	stw	fp,12(sp)
 200e888:	df000304 	addi	fp,sp,12
 200e88c:	e13ffd15 	stw	r4,-12(fp)
 200e890:	e17ffe15 	stw	r5,-8(fp)
 200e894:	e1bfff15 	stw	r6,-4(fp)
 200e898:	e0fffe17 	ldw	r3,-8(fp)
 200e89c:	e0bffd17 	ldw	r2,-12(fp)
 200e8a0:	18800e26 	beq	r3,r2,200e8dc <alt_load_section+0x5c>
 200e8a4:	00000a06 	br	200e8d0 <alt_load_section+0x50>
 200e8a8:	e0bffd17 	ldw	r2,-12(fp)
 200e8ac:	10c00017 	ldw	r3,0(r2)
 200e8b0:	e0bffe17 	ldw	r2,-8(fp)
 200e8b4:	10c00015 	stw	r3,0(r2)
 200e8b8:	e0bffe17 	ldw	r2,-8(fp)
 200e8bc:	10800104 	addi	r2,r2,4
 200e8c0:	e0bffe15 	stw	r2,-8(fp)
 200e8c4:	e0bffd17 	ldw	r2,-12(fp)
 200e8c8:	10800104 	addi	r2,r2,4
 200e8cc:	e0bffd15 	stw	r2,-12(fp)
 200e8d0:	e0fffe17 	ldw	r3,-8(fp)
 200e8d4:	e0bfff17 	ldw	r2,-4(fp)
 200e8d8:	18bff31e 	bne	r3,r2,200e8a8 <alt_load_section+0x28>
 200e8dc:	e037883a 	mov	sp,fp
 200e8e0:	df000017 	ldw	fp,0(sp)
 200e8e4:	dec00104 	addi	sp,sp,4
 200e8e8:	f800283a 	ret

0200e8ec <alt_main>:
 200e8ec:	defffd04 	addi	sp,sp,-12
 200e8f0:	dfc00215 	stw	ra,8(sp)
 200e8f4:	df000115 	stw	fp,4(sp)
 200e8f8:	df000104 	addi	fp,sp,4
 200e8fc:	0009883a 	mov	r4,zero
 200e900:	200ec280 	call	200ec28 <alt_irq_init>
 200e904:	200ec5c0 	call	200ec5c <alt_sys_init>
 200e908:	01008074 	movhi	r4,513
 200e90c:	210ade04 	addi	r4,r4,11128
 200e910:	01408074 	movhi	r5,513
 200e914:	294ade04 	addi	r5,r5,11128
 200e918:	01808074 	movhi	r6,513
 200e91c:	318ade04 	addi	r6,r6,11128
 200e920:	20115840 	call	2011584 <alt_io_redirect>
 200e924:	20112640 	call	2011264 <_do_ctors>
 200e928:	01008074 	movhi	r4,513
 200e92c:	2104b204 	addi	r4,r4,4808
 200e930:	2011f600 	call	2011f60 <atexit>
 200e934:	d1270b17 	ldw	r4,-25556(gp)
 200e938:	d1670c17 	ldw	r5,-25552(gp)
 200e93c:	d1a70d17 	ldw	r6,-25548(gp)
 200e940:	2001dd80 	call	2001dd8 <main>
 200e944:	e0bfff15 	stw	r2,-4(fp)
 200e948:	01000044 	movi	r4,1
 200e94c:	2010fa80 	call	2010fa8 <close>
 200e950:	e13fff17 	ldw	r4,-4(fp)
 200e954:	2011f740 	call	2011f74 <exit>

0200e958 <__malloc_lock>:
 200e958:	defffe04 	addi	sp,sp,-8
 200e95c:	df000115 	stw	fp,4(sp)
 200e960:	df000104 	addi	fp,sp,4
 200e964:	e13fff15 	stw	r4,-4(fp)
 200e968:	e037883a 	mov	sp,fp
 200e96c:	df000017 	ldw	fp,0(sp)
 200e970:	dec00104 	addi	sp,sp,4
 200e974:	f800283a 	ret

0200e978 <__malloc_unlock>:
 200e978:	defffe04 	addi	sp,sp,-8
 200e97c:	df000115 	stw	fp,4(sp)
 200e980:	df000104 	addi	fp,sp,4
 200e984:	e13fff15 	stw	r4,-4(fp)
 200e988:	e037883a 	mov	sp,fp
 200e98c:	df000017 	ldw	fp,0(sp)
 200e990:	dec00104 	addi	sp,sp,4
 200e994:	f800283a 	ret

0200e998 <sbrk>:
 200e998:	defff804 	addi	sp,sp,-32
 200e99c:	df000715 	stw	fp,28(sp)
 200e9a0:	df000704 	addi	fp,sp,28
 200e9a4:	e13ffe15 	stw	r4,-8(fp)
 200e9a8:	0005303a 	rdctl	r2,status
 200e9ac:	e0bffb15 	stw	r2,-20(fp)
 200e9b0:	e0fffb17 	ldw	r3,-20(fp)
 200e9b4:	00bfff84 	movi	r2,-2
 200e9b8:	1884703a 	and	r2,r3,r2
 200e9bc:	1001703a 	wrctl	status,r2
 200e9c0:	e0bffb17 	ldw	r2,-20(fp)
 200e9c4:	e0bffd15 	stw	r2,-12(fp)
 200e9c8:	d0a01017 	ldw	r2,-32704(gp)
 200e9cc:	10c000c4 	addi	r3,r2,3
 200e9d0:	00bfff04 	movi	r2,-4
 200e9d4:	1884703a 	and	r2,r3,r2
 200e9d8:	d0a01015 	stw	r2,-32704(gp)
 200e9dc:	d0e01017 	ldw	r3,-32704(gp)
 200e9e0:	e0bffe17 	ldw	r2,-8(fp)
 200e9e4:	1887883a 	add	r3,r3,r2
 200e9e8:	00810034 	movhi	r2,1024
 200e9ec:	10800004 	addi	r2,r2,0
 200e9f0:	10c0072e 	bgeu	r2,r3,200ea10 <sbrk+0x78>
 200e9f4:	e0bffd17 	ldw	r2,-12(fp)
 200e9f8:	e0bffa15 	stw	r2,-24(fp)
 200e9fc:	e0bffa17 	ldw	r2,-24(fp)
 200ea00:	1001703a 	wrctl	status,r2
 200ea04:	00bfffc4 	movi	r2,-1
 200ea08:	e0bfff15 	stw	r2,-4(fp)
 200ea0c:	00000c06 	br	200ea40 <sbrk+0xa8>
 200ea10:	d0a01017 	ldw	r2,-32704(gp)
 200ea14:	e0bffc15 	stw	r2,-16(fp)
 200ea18:	d0e01017 	ldw	r3,-32704(gp)
 200ea1c:	e0bffe17 	ldw	r2,-8(fp)
 200ea20:	1885883a 	add	r2,r3,r2
 200ea24:	d0a01015 	stw	r2,-32704(gp)
 200ea28:	e0bffd17 	ldw	r2,-12(fp)
 200ea2c:	e0bff915 	stw	r2,-28(fp)
 200ea30:	e0bff917 	ldw	r2,-28(fp)
 200ea34:	1001703a 	wrctl	status,r2
 200ea38:	e0bffc17 	ldw	r2,-16(fp)
 200ea3c:	e0bfff15 	stw	r2,-4(fp)
 200ea40:	e0bfff17 	ldw	r2,-4(fp)
 200ea44:	e037883a 	mov	sp,fp
 200ea48:	df000017 	ldw	fp,0(sp)
 200ea4c:	dec00104 	addi	sp,sp,4
 200ea50:	f800283a 	ret

0200ea54 <alt_alarm_stop>:
 200ea54:	defffa04 	addi	sp,sp,-24
 200ea58:	df000515 	stw	fp,20(sp)
 200ea5c:	df000504 	addi	fp,sp,20
 200ea60:	e13fff15 	stw	r4,-4(fp)
 200ea64:	0005303a 	rdctl	r2,status
 200ea68:	e0bffd15 	stw	r2,-12(fp)
 200ea6c:	e0fffd17 	ldw	r3,-12(fp)
 200ea70:	00bfff84 	movi	r2,-2
 200ea74:	1884703a 	and	r2,r3,r2
 200ea78:	1001703a 	wrctl	status,r2
 200ea7c:	e0bffd17 	ldw	r2,-12(fp)
 200ea80:	e0bffe15 	stw	r2,-8(fp)
 200ea84:	e0bfff17 	ldw	r2,-4(fp)
 200ea88:	e0bffc15 	stw	r2,-16(fp)
 200ea8c:	e0bffc17 	ldw	r2,-16(fp)
 200ea90:	10c00017 	ldw	r3,0(r2)
 200ea94:	e0bffc17 	ldw	r2,-16(fp)
 200ea98:	10800117 	ldw	r2,4(r2)
 200ea9c:	18800115 	stw	r2,4(r3)
 200eaa0:	e0bffc17 	ldw	r2,-16(fp)
 200eaa4:	10c00117 	ldw	r3,4(r2)
 200eaa8:	e0bffc17 	ldw	r2,-16(fp)
 200eaac:	10800017 	ldw	r2,0(r2)
 200eab0:	18800015 	stw	r2,0(r3)
 200eab4:	e0fffc17 	ldw	r3,-16(fp)
 200eab8:	e0bffc17 	ldw	r2,-16(fp)
 200eabc:	18800115 	stw	r2,4(r3)
 200eac0:	e0fffc17 	ldw	r3,-16(fp)
 200eac4:	e0bffc17 	ldw	r2,-16(fp)
 200eac8:	18800015 	stw	r2,0(r3)
 200eacc:	e0bffe17 	ldw	r2,-8(fp)
 200ead0:	e0bffb15 	stw	r2,-20(fp)
 200ead4:	e0bffb17 	ldw	r2,-20(fp)
 200ead8:	1001703a 	wrctl	status,r2
 200eadc:	e037883a 	mov	sp,fp
 200eae0:	df000017 	ldw	fp,0(sp)
 200eae4:	dec00104 	addi	sp,sp,4
 200eae8:	f800283a 	ret

0200eaec <alt_tick>:
 200eaec:	defffb04 	addi	sp,sp,-20
 200eaf0:	dfc00415 	stw	ra,16(sp)
 200eaf4:	df000315 	stw	fp,12(sp)
 200eaf8:	df000304 	addi	fp,sp,12
 200eafc:	d0a01117 	ldw	r2,-32700(gp)
 200eb00:	e0bffe15 	stw	r2,-8(fp)
 200eb04:	d0a70f17 	ldw	r2,-25540(gp)
 200eb08:	10800044 	addi	r2,r2,1
 200eb0c:	d0a70f15 	stw	r2,-25540(gp)
 200eb10:	00003106 	br	200ebd8 <alt_tick+0xec>
 200eb14:	e0bffe17 	ldw	r2,-8(fp)
 200eb18:	10800017 	ldw	r2,0(r2)
 200eb1c:	e0bfff15 	stw	r2,-4(fp)
 200eb20:	e0bffe17 	ldw	r2,-8(fp)
 200eb24:	10800403 	ldbu	r2,16(r2)
 200eb28:	10803fcc 	andi	r2,r2,255
 200eb2c:	1005003a 	cmpeq	r2,r2,zero
 200eb30:	1000051e 	bne	r2,zero,200eb48 <alt_tick+0x5c>
 200eb34:	d0a70f17 	ldw	r2,-25540(gp)
 200eb38:	1004c03a 	cmpne	r2,r2,zero
 200eb3c:	1000021e 	bne	r2,zero,200eb48 <alt_tick+0x5c>
 200eb40:	e0bffe17 	ldw	r2,-8(fp)
 200eb44:	10000405 	stb	zero,16(r2)
 200eb48:	e0bffe17 	ldw	r2,-8(fp)
 200eb4c:	10c00217 	ldw	r3,8(r2)
 200eb50:	d0a70f17 	ldw	r2,-25540(gp)
 200eb54:	10c01e36 	bltu	r2,r3,200ebd0 <alt_tick+0xe4>
 200eb58:	e0bffe17 	ldw	r2,-8(fp)
 200eb5c:	10800403 	ldbu	r2,16(r2)
 200eb60:	10803fcc 	andi	r2,r2,255
 200eb64:	1004c03a 	cmpne	r2,r2,zero
 200eb68:	1000191e 	bne	r2,zero,200ebd0 <alt_tick+0xe4>
 200eb6c:	e0bffe17 	ldw	r2,-8(fp)
 200eb70:	10c00317 	ldw	r3,12(r2)
 200eb74:	e0bffe17 	ldw	r2,-8(fp)
 200eb78:	11000517 	ldw	r4,20(r2)
 200eb7c:	183ee83a 	callr	r3
 200eb80:	e0bffd15 	stw	r2,-12(fp)
 200eb84:	e0bffd17 	ldw	r2,-12(fp)
 200eb88:	1004c03a 	cmpne	r2,r2,zero
 200eb8c:	1000031e 	bne	r2,zero,200eb9c <alt_tick+0xb0>
 200eb90:	e13ffe17 	ldw	r4,-8(fp)
 200eb94:	200ea540 	call	200ea54 <alt_alarm_stop>
 200eb98:	00000d06 	br	200ebd0 <alt_tick+0xe4>
 200eb9c:	e0bffe17 	ldw	r2,-8(fp)
 200eba0:	10c00217 	ldw	r3,8(r2)
 200eba4:	e0bffd17 	ldw	r2,-12(fp)
 200eba8:	1887883a 	add	r3,r3,r2
 200ebac:	e0bffe17 	ldw	r2,-8(fp)
 200ebb0:	10c00215 	stw	r3,8(r2)
 200ebb4:	e0bffe17 	ldw	r2,-8(fp)
 200ebb8:	10c00217 	ldw	r3,8(r2)
 200ebbc:	d0a70f17 	ldw	r2,-25540(gp)
 200ebc0:	1880032e 	bgeu	r3,r2,200ebd0 <alt_tick+0xe4>
 200ebc4:	e0fffe17 	ldw	r3,-8(fp)
 200ebc8:	00800044 	movi	r2,1
 200ebcc:	18800405 	stb	r2,16(r3)
 200ebd0:	e0bfff17 	ldw	r2,-4(fp)
 200ebd4:	e0bffe15 	stw	r2,-8(fp)
 200ebd8:	d0e01104 	addi	r3,gp,-32700
 200ebdc:	e0bffe17 	ldw	r2,-8(fp)
 200ebe0:	10ffcc1e 	bne	r2,r3,200eb14 <alt_tick+0x28>
 200ebe4:	e037883a 	mov	sp,fp
 200ebe8:	dfc00117 	ldw	ra,4(sp)
 200ebec:	df000017 	ldw	fp,0(sp)
 200ebf0:	dec00204 	addi	sp,sp,8
 200ebf4:	f800283a 	ret

0200ebf8 <usleep>:
 200ebf8:	defffd04 	addi	sp,sp,-12
 200ebfc:	dfc00215 	stw	ra,8(sp)
 200ec00:	df000115 	stw	fp,4(sp)
 200ec04:	df000104 	addi	fp,sp,4
 200ec08:	e13fff15 	stw	r4,-4(fp)
 200ec0c:	e13fff17 	ldw	r4,-4(fp)
 200ec10:	2010e4c0 	call	2010e4c <alt_busy_sleep>
 200ec14:	e037883a 	mov	sp,fp
 200ec18:	dfc00117 	ldw	ra,4(sp)
 200ec1c:	df000017 	ldw	fp,0(sp)
 200ec20:	dec00204 	addi	sp,sp,8
 200ec24:	f800283a 	ret

0200ec28 <alt_irq_init>:
 200ec28:	defffd04 	addi	sp,sp,-12
 200ec2c:	dfc00215 	stw	ra,8(sp)
 200ec30:	df000115 	stw	fp,4(sp)
 200ec34:	df000104 	addi	fp,sp,4
 200ec38:	e13fff15 	stw	r4,-4(fp)
 200ec3c:	2011b180 	call	2011b18 <altera_nios2_irq_init>
 200ec40:	00800044 	movi	r2,1
 200ec44:	1001703a 	wrctl	status,r2
 200ec48:	e037883a 	mov	sp,fp
 200ec4c:	dfc00117 	ldw	ra,4(sp)
 200ec50:	df000017 	ldw	fp,0(sp)
 200ec54:	dec00204 	addi	sp,sp,8
 200ec58:	f800283a 	ret

0200ec5c <alt_sys_init>:
 200ec5c:	defffe04 	addi	sp,sp,-8
 200ec60:	dfc00115 	stw	ra,4(sp)
 200ec64:	df000015 	stw	fp,0(sp)
 200ec68:	d839883a 	mov	fp,sp
 200ec6c:	01014034 	movhi	r4,1280
 200ec70:	000b883a 	mov	r5,zero
 200ec74:	000d883a 	mov	r6,zero
 200ec78:	01c0fa04 	movi	r7,1000
 200ec7c:	20102040 	call	2010204 <alt_avalon_timer_sc_init>
 200ec80:	01008074 	movhi	r4,513
 200ec84:	210cf104 	addi	r4,r4,13252
 200ec88:	200ed040 	call	200ed04 <alt_epcs_flash_init>
 200ec8c:	01008074 	movhi	r4,513
 200ec90:	210d2d04 	addi	r4,r4,13492
 200ec94:	000b883a 	mov	r5,zero
 200ec98:	01800144 	movi	r6,5
 200ec9c:	200f8300 	call	200f830 <altera_avalon_jtag_uart_init>
 200eca0:	01008074 	movhi	r4,513
 200eca4:	210d2304 	addi	r4,r4,13452
 200eca8:	200eccc0 	call	200eccc <alt_dev_reg>
 200ecac:	01008074 	movhi	r4,513
 200ecb0:	21113b04 	addi	r4,r4,17644
 200ecb4:	200eccc0 	call	200eccc <alt_dev_reg>
 200ecb8:	e037883a 	mov	sp,fp
 200ecbc:	dfc00117 	ldw	ra,4(sp)
 200ecc0:	df000017 	ldw	fp,0(sp)
 200ecc4:	dec00204 	addi	sp,sp,8
 200ecc8:	f800283a 	ret

0200eccc <alt_dev_reg>:
 200eccc:	defffd04 	addi	sp,sp,-12
 200ecd0:	dfc00215 	stw	ra,8(sp)
 200ecd4:	df000115 	stw	fp,4(sp)
 200ecd8:	df000104 	addi	fp,sp,4
 200ecdc:	e13fff15 	stw	r4,-4(fp)
 200ece0:	e13fff17 	ldw	r4,-4(fp)
 200ece4:	01408074 	movhi	r5,513
 200ece8:	2951c504 	addi	r5,r5,18196
 200ecec:	20111500 	call	2011150 <alt_dev_llist_insert>
 200ecf0:	e037883a 	mov	sp,fp
 200ecf4:	dfc00117 	ldw	ra,4(sp)
 200ecf8:	df000017 	ldw	fp,0(sp)
 200ecfc:	dec00204 	addi	sp,sp,8
 200ed00:	f800283a 	ret

0200ed04 <alt_epcs_flash_init>:
 200ed04:	defffc04 	addi	sp,sp,-16
 200ed08:	dfc00315 	stw	ra,12(sp)
 200ed0c:	df000215 	stw	fp,8(sp)
 200ed10:	df000204 	addi	fp,sp,8
 200ed14:	e13fff15 	stw	r4,-4(fp)
 200ed18:	e03ffe15 	stw	zero,-8(fp)
 200ed1c:	e13fff17 	ldw	r4,-4(fp)
 200ed20:	200ed900 	call	200ed90 <alt_epcs_flash_query>
 200ed24:	e0bffe15 	stw	r2,-8(fp)
 200ed28:	e0bffe17 	ldw	r2,-8(fp)
 200ed2c:	1004c03a 	cmpne	r2,r2,zero
 200ed30:	1000031e 	bne	r2,zero,200ed40 <alt_epcs_flash_init+0x3c>
 200ed34:	e13fff17 	ldw	r4,-4(fp)
 200ed38:	200ed580 	call	200ed58 <alt_flash_device_register>
 200ed3c:	e0bffe15 	stw	r2,-8(fp)
 200ed40:	e0bffe17 	ldw	r2,-8(fp)
 200ed44:	e037883a 	mov	sp,fp
 200ed48:	dfc00117 	ldw	ra,4(sp)
 200ed4c:	df000017 	ldw	fp,0(sp)
 200ed50:	dec00204 	addi	sp,sp,8
 200ed54:	f800283a 	ret

0200ed58 <alt_flash_device_register>:
 200ed58:	defffd04 	addi	sp,sp,-12
 200ed5c:	dfc00215 	stw	ra,8(sp)
 200ed60:	df000115 	stw	fp,4(sp)
 200ed64:	df000104 	addi	fp,sp,4
 200ed68:	e13fff15 	stw	r4,-4(fp)
 200ed6c:	e13fff17 	ldw	r4,-4(fp)
 200ed70:	01408074 	movhi	r5,513
 200ed74:	2951c904 	addi	r5,r5,18212
 200ed78:	20111500 	call	2011150 <alt_dev_llist_insert>
 200ed7c:	e037883a 	mov	sp,fp
 200ed80:	dfc00117 	ldw	ra,4(sp)
 200ed84:	df000017 	ldw	fp,0(sp)
 200ed88:	dec00204 	addi	sp,sp,8
 200ed8c:	f800283a 	ret

0200ed90 <alt_epcs_flash_query>:
 200ed90:	defffc04 	addi	sp,sp,-16
 200ed94:	dfc00315 	stw	ra,12(sp)
 200ed98:	df000215 	stw	fp,8(sp)
 200ed9c:	df000204 	addi	fp,sp,8
 200eda0:	e13fff15 	stw	r4,-4(fp)
 200eda4:	e03ffe15 	stw	zero,-8(fp)
 200eda8:	e0bfff17 	ldw	r2,-4(fp)
 200edac:	10003115 	stw	zero,196(r2)
 200edb0:	e0bfff17 	ldw	r2,-4(fp)
 200edb4:	11002d17 	ldw	r4,180(r2)
 200edb8:	2010b5c0 	call	2010b5c <epcs_read_electronic_signature>
 200edbc:	10c03fcc 	andi	r3,r2,255
 200edc0:	e0bfff17 	ldw	r2,-4(fp)
 200edc4:	10c02f15 	stw	r3,188(r2)
 200edc8:	e0bfff17 	ldw	r2,-4(fp)
 200edcc:	10802f17 	ldw	r2,188(r2)
 200edd0:	10800598 	cmpnei	r2,r2,22
 200edd4:	10000a1e 	bne	r2,zero,200ee00 <alt_epcs_flash_query+0x70>
 200edd8:	e0ffff17 	ldw	r3,-4(fp)
 200eddc:	00802034 	movhi	r2,128
 200ede0:	18800e15 	stw	r2,56(r3)
 200ede4:	e0ffff17 	ldw	r3,-4(fp)
 200ede8:	00802004 	movi	r2,128
 200edec:	18800f15 	stw	r2,60(r3)
 200edf0:	e0ffff17 	ldw	r3,-4(fp)
 200edf4:	00800074 	movhi	r2,1
 200edf8:	18801015 	stw	r2,64(r3)
 200edfc:	00007306 	br	200efcc <alt_epcs_flash_query+0x23c>
 200ee00:	e0bfff17 	ldw	r2,-4(fp)
 200ee04:	10802f17 	ldw	r2,188(r2)
 200ee08:	10800518 	cmpnei	r2,r2,20
 200ee0c:	10000a1e 	bne	r2,zero,200ee38 <alt_epcs_flash_query+0xa8>
 200ee10:	e0ffff17 	ldw	r3,-4(fp)
 200ee14:	00800834 	movhi	r2,32
 200ee18:	18800e15 	stw	r2,56(r3)
 200ee1c:	e0ffff17 	ldw	r3,-4(fp)
 200ee20:	00800804 	movi	r2,32
 200ee24:	18800f15 	stw	r2,60(r3)
 200ee28:	e0ffff17 	ldw	r3,-4(fp)
 200ee2c:	00800074 	movhi	r2,1
 200ee30:	18801015 	stw	r2,64(r3)
 200ee34:	00006506 	br	200efcc <alt_epcs_flash_query+0x23c>
 200ee38:	e0bfff17 	ldw	r2,-4(fp)
 200ee3c:	10802f17 	ldw	r2,188(r2)
 200ee40:	108004d8 	cmpnei	r2,r2,19
 200ee44:	10000a1e 	bne	r2,zero,200ee70 <alt_epcs_flash_query+0xe0>
 200ee48:	e0ffff17 	ldw	r3,-4(fp)
 200ee4c:	00800434 	movhi	r2,16
 200ee50:	18800e15 	stw	r2,56(r3)
 200ee54:	e0ffff17 	ldw	r3,-4(fp)
 200ee58:	00800404 	movi	r2,16
 200ee5c:	18800f15 	stw	r2,60(r3)
 200ee60:	e0ffff17 	ldw	r3,-4(fp)
 200ee64:	00800074 	movhi	r2,1
 200ee68:	18801015 	stw	r2,64(r3)
 200ee6c:	00005706 	br	200efcc <alt_epcs_flash_query+0x23c>
 200ee70:	e0bfff17 	ldw	r2,-4(fp)
 200ee74:	10802f17 	ldw	r2,188(r2)
 200ee78:	10800498 	cmpnei	r2,r2,18
 200ee7c:	10000a1e 	bne	r2,zero,200eea8 <alt_epcs_flash_query+0x118>
 200ee80:	e0ffff17 	ldw	r3,-4(fp)
 200ee84:	00800234 	movhi	r2,8
 200ee88:	18800e15 	stw	r2,56(r3)
 200ee8c:	e0ffff17 	ldw	r3,-4(fp)
 200ee90:	00800204 	movi	r2,8
 200ee94:	18800f15 	stw	r2,60(r3)
 200ee98:	e0ffff17 	ldw	r3,-4(fp)
 200ee9c:	00800074 	movhi	r2,1
 200eea0:	18801015 	stw	r2,64(r3)
 200eea4:	00004906 	br	200efcc <alt_epcs_flash_query+0x23c>
 200eea8:	e0bfff17 	ldw	r2,-4(fp)
 200eeac:	10802f17 	ldw	r2,188(r2)
 200eeb0:	10800418 	cmpnei	r2,r2,16
 200eeb4:	10000a1e 	bne	r2,zero,200eee0 <alt_epcs_flash_query+0x150>
 200eeb8:	e0ffff17 	ldw	r3,-4(fp)
 200eebc:	008000b4 	movhi	r2,2
 200eec0:	18800e15 	stw	r2,56(r3)
 200eec4:	e0ffff17 	ldw	r3,-4(fp)
 200eec8:	00800104 	movi	r2,4
 200eecc:	18800f15 	stw	r2,60(r3)
 200eed0:	e0ffff17 	ldw	r3,-4(fp)
 200eed4:	00a00014 	movui	r2,32768
 200eed8:	18801015 	stw	r2,64(r3)
 200eedc:	00003b06 	br	200efcc <alt_epcs_flash_query+0x23c>
 200eee0:	e0bfff17 	ldw	r2,-4(fp)
 200eee4:	11002d17 	ldw	r4,180(r2)
 200eee8:	2010bc80 	call	2010bc8 <epcs_read_device_id>
 200eeec:	1007883a 	mov	r3,r2
 200eef0:	e0bfff17 	ldw	r2,-4(fp)
 200eef4:	10c02f15 	stw	r3,188(r2)
 200eef8:	e0bfff17 	ldw	r2,-4(fp)
 200eefc:	10c02f17 	ldw	r3,188(r2)
 200ef00:	00804034 	movhi	r2,256
 200ef04:	10bfffc4 	addi	r2,r2,-1
 200ef08:	1886703a 	and	r3,r3,r2
 200ef0c:	00800874 	movhi	r2,33
 200ef10:	10ae8604 	addi	r2,r2,-17896
 200ef14:	18800a1e 	bne	r3,r2,200ef40 <alt_epcs_flash_query+0x1b0>
 200ef18:	e0ffff17 	ldw	r3,-4(fp)
 200ef1c:	00804034 	movhi	r2,256
 200ef20:	18800e15 	stw	r2,56(r3)
 200ef24:	e0ffff17 	ldw	r3,-4(fp)
 200ef28:	00804004 	movi	r2,256
 200ef2c:	18800f15 	stw	r2,60(r3)
 200ef30:	e0ffff17 	ldw	r3,-4(fp)
 200ef34:	00800074 	movhi	r2,1
 200ef38:	18801015 	stw	r2,64(r3)
 200ef3c:	00002306 	br	200efcc <alt_epcs_flash_query+0x23c>
 200ef40:	e0bfff17 	ldw	r2,-4(fp)
 200ef44:	10802f17 	ldw	r2,188(r2)
 200ef48:	10803fcc 	andi	r2,r2,255
 200ef4c:	10800618 	cmpnei	r2,r2,24
 200ef50:	10000a1e 	bne	r2,zero,200ef7c <alt_epcs_flash_query+0x1ec>
 200ef54:	e0ffff17 	ldw	r3,-4(fp)
 200ef58:	00804034 	movhi	r2,256
 200ef5c:	18800e15 	stw	r2,56(r3)
 200ef60:	e0ffff17 	ldw	r3,-4(fp)
 200ef64:	00801004 	movi	r2,64
 200ef68:	18800f15 	stw	r2,60(r3)
 200ef6c:	e0ffff17 	ldw	r3,-4(fp)
 200ef70:	00800134 	movhi	r2,4
 200ef74:	18801015 	stw	r2,64(r3)
 200ef78:	00001406 	br	200efcc <alt_epcs_flash_query+0x23c>
 200ef7c:	e0bfff17 	ldw	r2,-4(fp)
 200ef80:	10802f17 	ldw	r2,188(r2)
 200ef84:	10803fcc 	andi	r2,r2,255
 200ef88:	10800658 	cmpnei	r2,r2,25
 200ef8c:	10000d1e 	bne	r2,zero,200efc4 <alt_epcs_flash_query+0x234>
 200ef90:	e0ffff17 	ldw	r3,-4(fp)
 200ef94:	00808034 	movhi	r2,512
 200ef98:	18800e15 	stw	r2,56(r3)
 200ef9c:	e0ffff17 	ldw	r3,-4(fp)
 200efa0:	00808004 	movi	r2,512
 200efa4:	18800f15 	stw	r2,60(r3)
 200efa8:	e0ffff17 	ldw	r3,-4(fp)
 200efac:	00800074 	movhi	r2,1
 200efb0:	18801015 	stw	r2,64(r3)
 200efb4:	e0ffff17 	ldw	r3,-4(fp)
 200efb8:	00800044 	movi	r2,1
 200efbc:	18803115 	stw	r2,196(r3)
 200efc0:	00000206 	br	200efcc <alt_epcs_flash_query+0x23c>
 200efc4:	00bffb44 	movi	r2,-19
 200efc8:	e0bffe15 	stw	r2,-8(fp)
 200efcc:	e0bfff17 	ldw	r2,-4(fp)
 200efd0:	10800e17 	ldw	r2,56(r2)
 200efd4:	1007883a 	mov	r3,r2
 200efd8:	e0bfff17 	ldw	r2,-4(fp)
 200efdc:	10c02e15 	stw	r3,184(r2)
 200efe0:	e0ffff17 	ldw	r3,-4(fp)
 200efe4:	00800044 	movi	r2,1
 200efe8:	18800c15 	stw	r2,48(r3)
 200efec:	e0bfff17 	ldw	r2,-4(fp)
 200eff0:	10000d15 	stw	zero,52(r2)
 200eff4:	e0ffff17 	ldw	r3,-4(fp)
 200eff8:	00804004 	movi	r2,256
 200effc:	18803015 	stw	r2,192(r3)
 200f000:	e0bffe17 	ldw	r2,-8(fp)
 200f004:	e037883a 	mov	sp,fp
 200f008:	dfc00117 	ldw	ra,4(sp)
 200f00c:	df000017 	ldw	fp,0(sp)
 200f010:	dec00204 	addi	sp,sp,8
 200f014:	f800283a 	ret

0200f018 <alt_epcs_flash_memcmp>:
 200f018:	deffeb04 	addi	sp,sp,-84
 200f01c:	dfc01415 	stw	ra,80(sp)
 200f020:	df001315 	stw	fp,76(sp)
 200f024:	df001304 	addi	fp,sp,76
 200f028:	e13ff915 	stw	r4,-28(fp)
 200f02c:	e17ffa15 	stw	r5,-24(fp)
 200f030:	e1bffb15 	stw	r6,-20(fp)
 200f034:	e1fffc15 	stw	r7,-16(fp)
 200f038:	00800804 	movi	r2,32
 200f03c:	e0bff015 	stw	r2,-64(fp)
 200f040:	e03fef15 	stw	zero,-68(fp)
 200f044:	00002c06 	br	200f0f8 <alt_epcs_flash_memcmp+0xe0>
 200f048:	e0bff017 	ldw	r2,-64(fp)
 200f04c:	e0bfff15 	stw	r2,-4(fp)
 200f050:	e0fffc17 	ldw	r3,-16(fp)
 200f054:	e0fffe15 	stw	r3,-8(fp)
 200f058:	e0bfff17 	ldw	r2,-4(fp)
 200f05c:	e0fffe17 	ldw	r3,-8(fp)
 200f060:	10c0022e 	bgeu	r2,r3,200f06c <alt_epcs_flash_memcmp+0x54>
 200f064:	e0bfff17 	ldw	r2,-4(fp)
 200f068:	e0bffe15 	stw	r2,-8(fp)
 200f06c:	e0fffe17 	ldw	r3,-8(fp)
 200f070:	e0ffee15 	stw	r3,-72(fp)
 200f074:	e0fffb17 	ldw	r3,-20(fp)
 200f078:	e0bfef17 	ldw	r2,-68(fp)
 200f07c:	188b883a 	add	r5,r3,r2
 200f080:	e1bff104 	addi	r6,fp,-60
 200f084:	e13ff917 	ldw	r4,-28(fp)
 200f088:	e1ffee17 	ldw	r7,-72(fp)
 200f08c:	200f6500 	call	200f650 <alt_epcs_flash_read>
 200f090:	1004403a 	cmpge	r2,r2,zero
 200f094:	1000031e 	bne	r2,zero,200f0a4 <alt_epcs_flash_memcmp+0x8c>
 200f098:	00bfffc4 	movi	r2,-1
 200f09c:	e0bffd15 	stw	r2,-12(fp)
 200f0a0:	00001906 	br	200f108 <alt_epcs_flash_memcmp+0xf0>
 200f0a4:	e0fffa17 	ldw	r3,-24(fp)
 200f0a8:	e0bfef17 	ldw	r2,-68(fp)
 200f0ac:	1889883a 	add	r4,r3,r2
 200f0b0:	e1bfee17 	ldw	r6,-72(fp)
 200f0b4:	e17ff104 	addi	r5,fp,-60
 200f0b8:	2011fac0 	call	2011fac <memcmp>
 200f0bc:	e0bfed15 	stw	r2,-76(fp)
 200f0c0:	e0bfed17 	ldw	r2,-76(fp)
 200f0c4:	1005003a 	cmpeq	r2,r2,zero
 200f0c8:	1000031e 	bne	r2,zero,200f0d8 <alt_epcs_flash_memcmp+0xc0>
 200f0cc:	e0ffed17 	ldw	r3,-76(fp)
 200f0d0:	e0fffd15 	stw	r3,-12(fp)
 200f0d4:	00000c06 	br	200f108 <alt_epcs_flash_memcmp+0xf0>
 200f0d8:	e0ffee17 	ldw	r3,-72(fp)
 200f0dc:	e0bffc17 	ldw	r2,-16(fp)
 200f0e0:	10c5c83a 	sub	r2,r2,r3
 200f0e4:	e0bffc15 	stw	r2,-16(fp)
 200f0e8:	e0ffef17 	ldw	r3,-68(fp)
 200f0ec:	e0bfee17 	ldw	r2,-72(fp)
 200f0f0:	1885883a 	add	r2,r3,r2
 200f0f4:	e0bfef15 	stw	r2,-68(fp)
 200f0f8:	e0bffc17 	ldw	r2,-16(fp)
 200f0fc:	1004c03a 	cmpne	r2,r2,zero
 200f100:	103fd11e 	bne	r2,zero,200f048 <alt_epcs_flash_memcmp+0x30>
 200f104:	e03ffd15 	stw	zero,-12(fp)
 200f108:	e0bffd17 	ldw	r2,-12(fp)
 200f10c:	e037883a 	mov	sp,fp
 200f110:	dfc00117 	ldw	ra,4(sp)
 200f114:	df000017 	ldw	fp,0(sp)
 200f118:	dec00204 	addi	sp,sp,8
 200f11c:	f800283a 	ret

0200f120 <alt_epcs_flash_write>:
 200f120:	defff204 	addi	sp,sp,-56
 200f124:	dfc00d15 	stw	ra,52(sp)
 200f128:	df000c15 	stw	fp,48(sp)
 200f12c:	df000c04 	addi	fp,sp,48
 200f130:	e13ffa15 	stw	r4,-24(fp)
 200f134:	e17ffb15 	stw	r5,-20(fp)
 200f138:	e1bffc15 	stw	r6,-16(fp)
 200f13c:	e1fffd15 	stw	r7,-12(fp)
 200f140:	e03ff915 	stw	zero,-28(fp)
 200f144:	e03ff815 	stw	zero,-32(fp)
 200f148:	00008b06 	br	200f378 <alt_epcs_flash_write+0x258>
 200f14c:	e0bff817 	ldw	r2,-32(fp)
 200f150:	e0fffa17 	ldw	r3,-24(fp)
 200f154:	1004913a 	slli	r2,r2,4
 200f158:	10c5883a 	add	r2,r2,r3
 200f15c:	10800d04 	addi	r2,r2,52
 200f160:	10c00017 	ldw	r3,0(r2)
 200f164:	e0bffb17 	ldw	r2,-20(fp)
 200f168:	10c08016 	blt	r2,r3,200f36c <alt_epcs_flash_write+0x24c>
 200f16c:	e0bff817 	ldw	r2,-32(fp)
 200f170:	e0fffa17 	ldw	r3,-24(fp)
 200f174:	1004913a 	slli	r2,r2,4
 200f178:	10c5883a 	add	r2,r2,r3
 200f17c:	10800d04 	addi	r2,r2,52
 200f180:	11000017 	ldw	r4,0(r2)
 200f184:	e0bff817 	ldw	r2,-32(fp)
 200f188:	e0fffa17 	ldw	r3,-24(fp)
 200f18c:	1004913a 	slli	r2,r2,4
 200f190:	10c5883a 	add	r2,r2,r3
 200f194:	10800e04 	addi	r2,r2,56
 200f198:	10800017 	ldw	r2,0(r2)
 200f19c:	2087883a 	add	r3,r4,r2
 200f1a0:	e0bffb17 	ldw	r2,-20(fp)
 200f1a4:	10c0710e 	bge	r2,r3,200f36c <alt_epcs_flash_write+0x24c>
 200f1a8:	e0bff817 	ldw	r2,-32(fp)
 200f1ac:	e0fffa17 	ldw	r3,-24(fp)
 200f1b0:	1004913a 	slli	r2,r2,4
 200f1b4:	10c5883a 	add	r2,r2,r3
 200f1b8:	10800d04 	addi	r2,r2,52
 200f1bc:	10800017 	ldw	r2,0(r2)
 200f1c0:	e0bff515 	stw	r2,-44(fp)
 200f1c4:	e03ff715 	stw	zero,-36(fp)
 200f1c8:	00006006 	br	200f34c <alt_epcs_flash_write+0x22c>
 200f1cc:	e0fffb17 	ldw	r3,-20(fp)
 200f1d0:	e0bff517 	ldw	r2,-44(fp)
 200f1d4:	18805116 	blt	r3,r2,200f31c <alt_epcs_flash_write+0x1fc>
 200f1d8:	e0bff817 	ldw	r2,-32(fp)
 200f1dc:	e0fffa17 	ldw	r3,-24(fp)
 200f1e0:	1004913a 	slli	r2,r2,4
 200f1e4:	10c5883a 	add	r2,r2,r3
 200f1e8:	10801004 	addi	r2,r2,64
 200f1ec:	10c00017 	ldw	r3,0(r2)
 200f1f0:	e0bff517 	ldw	r2,-44(fp)
 200f1f4:	1887883a 	add	r3,r3,r2
 200f1f8:	e0bffb17 	ldw	r2,-20(fp)
 200f1fc:	10c0470e 	bge	r2,r3,200f31c <alt_epcs_flash_write+0x1fc>
 200f200:	e0bff817 	ldw	r2,-32(fp)
 200f204:	e0fffa17 	ldw	r3,-24(fp)
 200f208:	1004913a 	slli	r2,r2,4
 200f20c:	10c5883a 	add	r2,r2,r3
 200f210:	10801004 	addi	r2,r2,64
 200f214:	10c00017 	ldw	r3,0(r2)
 200f218:	e0bff517 	ldw	r2,-44(fp)
 200f21c:	1887883a 	add	r3,r3,r2
 200f220:	e0bffb17 	ldw	r2,-20(fp)
 200f224:	1885c83a 	sub	r2,r3,r2
 200f228:	e0bff615 	stw	r2,-40(fp)
 200f22c:	e0bff617 	ldw	r2,-40(fp)
 200f230:	e0bfff15 	stw	r2,-4(fp)
 200f234:	e0fffd17 	ldw	r3,-12(fp)
 200f238:	e0fffe15 	stw	r3,-8(fp)
 200f23c:	e0bfff17 	ldw	r2,-4(fp)
 200f240:	e0fffe17 	ldw	r3,-8(fp)
 200f244:	10c0020e 	bge	r2,r3,200f250 <alt_epcs_flash_write+0x130>
 200f248:	e0bfff17 	ldw	r2,-4(fp)
 200f24c:	e0bffe15 	stw	r2,-8(fp)
 200f250:	e0fffe17 	ldw	r3,-8(fp)
 200f254:	e0fff615 	stw	r3,-40(fp)
 200f258:	e1fff617 	ldw	r7,-40(fp)
 200f25c:	e13ffa17 	ldw	r4,-24(fp)
 200f260:	e17ffc17 	ldw	r5,-16(fp)
 200f264:	e1bffb17 	ldw	r6,-20(fp)
 200f268:	200f0180 	call	200f018 <alt_epcs_flash_memcmp>
 200f26c:	1005003a 	cmpeq	r2,r2,zero
 200f270:	1000131e 	bne	r2,zero,200f2c0 <alt_epcs_flash_write+0x1a0>
 200f274:	e0bffa17 	ldw	r2,-24(fp)
 200f278:	10800817 	ldw	r2,32(r2)
 200f27c:	e13ffa17 	ldw	r4,-24(fp)
 200f280:	e17ff517 	ldw	r5,-44(fp)
 200f284:	103ee83a 	callr	r2
 200f288:	e0bff915 	stw	r2,-28(fp)
 200f28c:	e0bff917 	ldw	r2,-28(fp)
 200f290:	1004c03a 	cmpne	r2,r2,zero
 200f294:	10000a1e 	bne	r2,zero,200f2c0 <alt_epcs_flash_write+0x1a0>
 200f298:	e0bffa17 	ldw	r2,-24(fp)
 200f29c:	10c00917 	ldw	r3,36(r2)
 200f2a0:	e0bff617 	ldw	r2,-40(fp)
 200f2a4:	d8800015 	stw	r2,0(sp)
 200f2a8:	e13ffa17 	ldw	r4,-24(fp)
 200f2ac:	e17ff517 	ldw	r5,-44(fp)
 200f2b0:	e1bffb17 	ldw	r6,-20(fp)
 200f2b4:	e1fffc17 	ldw	r7,-16(fp)
 200f2b8:	183ee83a 	callr	r3
 200f2bc:	e0bff915 	stw	r2,-28(fp)
 200f2c0:	e0fffd17 	ldw	r3,-12(fp)
 200f2c4:	e0bff617 	ldw	r2,-40(fp)
 200f2c8:	18802f26 	beq	r3,r2,200f388 <alt_epcs_flash_write+0x268>
 200f2cc:	e0bff917 	ldw	r2,-28(fp)
 200f2d0:	1004c03a 	cmpne	r2,r2,zero
 200f2d4:	10002c1e 	bne	r2,zero,200f388 <alt_epcs_flash_write+0x268>
 200f2d8:	e0fffd17 	ldw	r3,-12(fp)
 200f2dc:	e0bff617 	ldw	r2,-40(fp)
 200f2e0:	1885c83a 	sub	r2,r3,r2
 200f2e4:	e0bffd15 	stw	r2,-12(fp)
 200f2e8:	e0bff817 	ldw	r2,-32(fp)
 200f2ec:	e0fffa17 	ldw	r3,-24(fp)
 200f2f0:	1004913a 	slli	r2,r2,4
 200f2f4:	10c5883a 	add	r2,r2,r3
 200f2f8:	10801004 	addi	r2,r2,64
 200f2fc:	10c00017 	ldw	r3,0(r2)
 200f300:	e0bff517 	ldw	r2,-44(fp)
 200f304:	1885883a 	add	r2,r3,r2
 200f308:	e0bffb15 	stw	r2,-20(fp)
 200f30c:	e0fffc17 	ldw	r3,-16(fp)
 200f310:	e0bff617 	ldw	r2,-40(fp)
 200f314:	1885883a 	add	r2,r3,r2
 200f318:	e0bffc15 	stw	r2,-16(fp)
 200f31c:	e0bff817 	ldw	r2,-32(fp)
 200f320:	e0fffa17 	ldw	r3,-24(fp)
 200f324:	1004913a 	slli	r2,r2,4
 200f328:	10c5883a 	add	r2,r2,r3
 200f32c:	10801004 	addi	r2,r2,64
 200f330:	10c00017 	ldw	r3,0(r2)
 200f334:	e0bff517 	ldw	r2,-44(fp)
 200f338:	10c5883a 	add	r2,r2,r3
 200f33c:	e0bff515 	stw	r2,-44(fp)
 200f340:	e0bff717 	ldw	r2,-36(fp)
 200f344:	10800044 	addi	r2,r2,1
 200f348:	e0bff715 	stw	r2,-36(fp)
 200f34c:	e0bff817 	ldw	r2,-32(fp)
 200f350:	e0fffa17 	ldw	r3,-24(fp)
 200f354:	1004913a 	slli	r2,r2,4
 200f358:	10c5883a 	add	r2,r2,r3
 200f35c:	10800f04 	addi	r2,r2,60
 200f360:	10c00017 	ldw	r3,0(r2)
 200f364:	e0bff717 	ldw	r2,-36(fp)
 200f368:	10ff9816 	blt	r2,r3,200f1cc <alt_epcs_flash_write+0xac>
 200f36c:	e0bff817 	ldw	r2,-32(fp)
 200f370:	10800044 	addi	r2,r2,1
 200f374:	e0bff815 	stw	r2,-32(fp)
 200f378:	e0bffa17 	ldw	r2,-24(fp)
 200f37c:	10c00c17 	ldw	r3,48(r2)
 200f380:	e0bff817 	ldw	r2,-32(fp)
 200f384:	10ff7116 	blt	r2,r3,200f14c <alt_epcs_flash_write+0x2c>
 200f388:	e0bff917 	ldw	r2,-28(fp)
 200f38c:	e037883a 	mov	sp,fp
 200f390:	dfc00117 	ldw	ra,4(sp)
 200f394:	df000017 	ldw	fp,0(sp)
 200f398:	dec00204 	addi	sp,sp,8
 200f39c:	f800283a 	ret

0200f3a0 <alt_epcs_flash_get_info>:
 200f3a0:	defffa04 	addi	sp,sp,-24
 200f3a4:	df000515 	stw	fp,20(sp)
 200f3a8:	df000504 	addi	fp,sp,20
 200f3ac:	e13ffd15 	stw	r4,-12(fp)
 200f3b0:	e17ffe15 	stw	r5,-8(fp)
 200f3b4:	e1bfff15 	stw	r6,-4(fp)
 200f3b8:	e03ffc15 	stw	zero,-16(fp)
 200f3bc:	e0bffd17 	ldw	r2,-12(fp)
 200f3c0:	e0bffb15 	stw	r2,-20(fp)
 200f3c4:	e0bffb17 	ldw	r2,-20(fp)
 200f3c8:	10c00c17 	ldw	r3,48(r2)
 200f3cc:	e0bfff17 	ldw	r2,-4(fp)
 200f3d0:	10c00015 	stw	r3,0(r2)
 200f3d4:	e0bffb17 	ldw	r2,-20(fp)
 200f3d8:	10800c17 	ldw	r2,48(r2)
 200f3dc:	1004c03a 	cmpne	r2,r2,zero
 200f3e0:	1000031e 	bne	r2,zero,200f3f0 <alt_epcs_flash_get_info+0x50>
 200f3e4:	00bffec4 	movi	r2,-5
 200f3e8:	e0bffc15 	stw	r2,-16(fp)
 200f3ec:	00000b06 	br	200f41c <alt_epcs_flash_get_info+0x7c>
 200f3f0:	e0bffb17 	ldw	r2,-20(fp)
 200f3f4:	10800c17 	ldw	r2,48(r2)
 200f3f8:	10800250 	cmplti	r2,r2,9
 200f3fc:	1000031e 	bne	r2,zero,200f40c <alt_epcs_flash_get_info+0x6c>
 200f400:	00bffd04 	movi	r2,-12
 200f404:	e0bffc15 	stw	r2,-16(fp)
 200f408:	00000406 	br	200f41c <alt_epcs_flash_get_info+0x7c>
 200f40c:	e0bffb17 	ldw	r2,-20(fp)
 200f410:	10c00d04 	addi	r3,r2,52
 200f414:	e0bffe17 	ldw	r2,-8(fp)
 200f418:	10c00015 	stw	r3,0(r2)
 200f41c:	e0bffc17 	ldw	r2,-16(fp)
 200f420:	e037883a 	mov	sp,fp
 200f424:	df000017 	ldw	fp,0(sp)
 200f428:	dec00104 	addi	sp,sp,4
 200f42c:	f800283a 	ret

0200f430 <alt_epcs_flash_erase_block>:
 200f430:	defffa04 	addi	sp,sp,-24
 200f434:	dfc00515 	stw	ra,20(sp)
 200f438:	df000415 	stw	fp,16(sp)
 200f43c:	df000404 	addi	fp,sp,16
 200f440:	e13ffe15 	stw	r4,-8(fp)
 200f444:	e17fff15 	stw	r5,-4(fp)
 200f448:	e03ffd15 	stw	zero,-12(fp)
 200f44c:	e0bffe17 	ldw	r2,-8(fp)
 200f450:	e0bffc15 	stw	r2,-16(fp)
 200f454:	e13ffe17 	ldw	r4,-8(fp)
 200f458:	e17fff17 	ldw	r5,-4(fp)
 200f45c:	200f4a00 	call	200f4a0 <alt_epcs_test_address>
 200f460:	e0bffd15 	stw	r2,-12(fp)
 200f464:	e0bffd17 	ldw	r2,-12(fp)
 200f468:	1004803a 	cmplt	r2,r2,zero
 200f46c:	1000061e 	bne	r2,zero,200f488 <alt_epcs_flash_erase_block+0x58>
 200f470:	e0bffc17 	ldw	r2,-16(fp)
 200f474:	11002d17 	ldw	r4,180(r2)
 200f478:	e17fff17 	ldw	r5,-4(fp)
 200f47c:	e0bffc17 	ldw	r2,-16(fp)
 200f480:	11803117 	ldw	r6,196(r2)
 200f484:	20106840 	call	2010684 <epcs_sector_erase>
 200f488:	e0bffd17 	ldw	r2,-12(fp)
 200f48c:	e037883a 	mov	sp,fp
 200f490:	dfc00117 	ldw	ra,4(sp)
 200f494:	df000017 	ldw	fp,0(sp)
 200f498:	dec00204 	addi	sp,sp,8
 200f49c:	f800283a 	ret

0200f4a0 <alt_epcs_test_address>:
 200f4a0:	defff904 	addi	sp,sp,-28
 200f4a4:	df000615 	stw	fp,24(sp)
 200f4a8:	df000604 	addi	fp,sp,24
 200f4ac:	e13ffe15 	stw	r4,-8(fp)
 200f4b0:	e17fff15 	stw	r5,-4(fp)
 200f4b4:	e03ffd15 	stw	zero,-12(fp)
 200f4b8:	e0bffe17 	ldw	r2,-8(fp)
 200f4bc:	e0bffc15 	stw	r2,-16(fp)
 200f4c0:	e0bffc17 	ldw	r2,-16(fp)
 200f4c4:	10800c17 	ldw	r2,48(r2)
 200f4c8:	10bfffc4 	addi	r2,r2,-1
 200f4cc:	e0bffb15 	stw	r2,-20(fp)
 200f4d0:	e0bffb17 	ldw	r2,-20(fp)
 200f4d4:	e0fffc17 	ldw	r3,-16(fp)
 200f4d8:	1004913a 	slli	r2,r2,4
 200f4dc:	10c5883a 	add	r2,r2,r3
 200f4e0:	10800d04 	addi	r2,r2,52
 200f4e4:	11000017 	ldw	r4,0(r2)
 200f4e8:	e0bffb17 	ldw	r2,-20(fp)
 200f4ec:	e0fffc17 	ldw	r3,-16(fp)
 200f4f0:	1004913a 	slli	r2,r2,4
 200f4f4:	10c5883a 	add	r2,r2,r3
 200f4f8:	10800e04 	addi	r2,r2,56
 200f4fc:	10800017 	ldw	r2,0(r2)
 200f500:	2085883a 	add	r2,r4,r2
 200f504:	10bfffc4 	addi	r2,r2,-1
 200f508:	e0bffa15 	stw	r2,-24(fp)
 200f50c:	e0ffff17 	ldw	r3,-4(fp)
 200f510:	e0bffa17 	ldw	r2,-24(fp)
 200f514:	10c0022e 	bgeu	r2,r3,200f520 <alt_epcs_test_address+0x80>
 200f518:	00bffec4 	movi	r2,-5
 200f51c:	e0bffd15 	stw	r2,-12(fp)
 200f520:	e0bffd17 	ldw	r2,-12(fp)
 200f524:	e037883a 	mov	sp,fp
 200f528:	df000017 	ldw	fp,0(sp)
 200f52c:	dec00104 	addi	sp,sp,4
 200f530:	f800283a 	ret

0200f534 <alt_epcs_flash_write_block>:
 200f534:	defff204 	addi	sp,sp,-56
 200f538:	dfc00d15 	stw	ra,52(sp)
 200f53c:	df000c15 	stw	fp,48(sp)
 200f540:	df000c04 	addi	fp,sp,48
 200f544:	e13ffa15 	stw	r4,-24(fp)
 200f548:	e17ffb15 	stw	r5,-20(fp)
 200f54c:	e1bffc15 	stw	r6,-16(fp)
 200f550:	e1fffd15 	stw	r7,-12(fp)
 200f554:	e0bffa17 	ldw	r2,-24(fp)
 200f558:	e0bff815 	stw	r2,-32(fp)
 200f55c:	e03ff715 	stw	zero,-36(fp)
 200f560:	e13ffa17 	ldw	r4,-24(fp)
 200f564:	e17ffc17 	ldw	r5,-16(fp)
 200f568:	200f4a00 	call	200f4a0 <alt_epcs_test_address>
 200f56c:	e0bff915 	stw	r2,-28(fp)
 200f570:	e0bff917 	ldw	r2,-28(fp)
 200f574:	1004803a 	cmplt	r2,r2,zero
 200f578:	10002f1e 	bne	r2,zero,200f638 <alt_epcs_flash_write_block+0x104>
 200f57c:	00002b06 	br	200f62c <alt_epcs_flash_write_block+0xf8>
 200f580:	e0bff817 	ldw	r2,-32(fp)
 200f584:	10c03017 	ldw	r3,192(r2)
 200f588:	e0bffc17 	ldw	r2,-16(fp)
 200f58c:	1887883a 	add	r3,r3,r2
 200f590:	e0bff817 	ldw	r2,-32(fp)
 200f594:	10803017 	ldw	r2,192(r2)
 200f598:	0085c83a 	sub	r2,zero,r2
 200f59c:	1884703a 	and	r2,r3,r2
 200f5a0:	e0bff515 	stw	r2,-44(fp)
 200f5a4:	e0fff517 	ldw	r3,-44(fp)
 200f5a8:	e0bffc17 	ldw	r2,-16(fp)
 200f5ac:	1885c83a 	sub	r2,r3,r2
 200f5b0:	e0c00217 	ldw	r3,8(fp)
 200f5b4:	e0ffff15 	stw	r3,-4(fp)
 200f5b8:	e0bffe15 	stw	r2,-8(fp)
 200f5bc:	e0bfff17 	ldw	r2,-4(fp)
 200f5c0:	e0fffe17 	ldw	r3,-8(fp)
 200f5c4:	10c0020e 	bge	r2,r3,200f5d0 <alt_epcs_flash_write_block+0x9c>
 200f5c8:	e0bfff17 	ldw	r2,-4(fp)
 200f5cc:	e0bffe15 	stw	r2,-8(fp)
 200f5d0:	e0fffe17 	ldw	r3,-8(fp)
 200f5d4:	e0fff615 	stw	r3,-40(fp)
 200f5d8:	e0bff817 	ldw	r2,-32(fp)
 200f5dc:	11002d17 	ldw	r4,180(r2)
 200f5e0:	e0fffd17 	ldw	r3,-12(fp)
 200f5e4:	e0bff717 	ldw	r2,-36(fp)
 200f5e8:	188d883a 	add	r6,r3,r2
 200f5ec:	e0bff817 	ldw	r2,-32(fp)
 200f5f0:	10803117 	ldw	r2,196(r2)
 200f5f4:	d8800015 	stw	r2,0(sp)
 200f5f8:	e17ffc17 	ldw	r5,-16(fp)
 200f5fc:	e1fff617 	ldw	r7,-40(fp)
 200f600:	20109ec0 	call	20109ec <epcs_write_buffer>
 200f604:	e0c00217 	ldw	r3,8(fp)
 200f608:	e0bff617 	ldw	r2,-40(fp)
 200f60c:	1885c83a 	sub	r2,r3,r2
 200f610:	e0800215 	stw	r2,8(fp)
 200f614:	e0fff717 	ldw	r3,-36(fp)
 200f618:	e0bff617 	ldw	r2,-40(fp)
 200f61c:	1885883a 	add	r2,r3,r2
 200f620:	e0bff715 	stw	r2,-36(fp)
 200f624:	e0bff517 	ldw	r2,-44(fp)
 200f628:	e0bffc15 	stw	r2,-16(fp)
 200f62c:	e0800217 	ldw	r2,8(fp)
 200f630:	1004c03a 	cmpne	r2,r2,zero
 200f634:	103fd21e 	bne	r2,zero,200f580 <alt_epcs_flash_write_block+0x4c>
 200f638:	e0bff917 	ldw	r2,-28(fp)
 200f63c:	e037883a 	mov	sp,fp
 200f640:	dfc00117 	ldw	ra,4(sp)
 200f644:	df000017 	ldw	fp,0(sp)
 200f648:	dec00204 	addi	sp,sp,8
 200f64c:	f800283a 	ret

0200f650 <alt_epcs_flash_read>:
 200f650:	defff704 	addi	sp,sp,-36
 200f654:	dfc00815 	stw	ra,32(sp)
 200f658:	df000715 	stw	fp,28(sp)
 200f65c:	df000704 	addi	fp,sp,28
 200f660:	e13ffc15 	stw	r4,-16(fp)
 200f664:	e17ffd15 	stw	r5,-12(fp)
 200f668:	e1bffe15 	stw	r6,-8(fp)
 200f66c:	e1ffff15 	stw	r7,-4(fp)
 200f670:	e03ffb15 	stw	zero,-20(fp)
 200f674:	e0bffc17 	ldw	r2,-16(fp)
 200f678:	e0bffa15 	stw	r2,-24(fp)
 200f67c:	e13ffc17 	ldw	r4,-16(fp)
 200f680:	e17ffd17 	ldw	r5,-12(fp)
 200f684:	200f4a00 	call	200f4a0 <alt_epcs_test_address>
 200f688:	e0bffb15 	stw	r2,-20(fp)
 200f68c:	e0bffb17 	ldw	r2,-20(fp)
 200f690:	1004803a 	cmplt	r2,r2,zero
 200f694:	10000e1e 	bne	r2,zero,200f6d0 <alt_epcs_flash_read+0x80>
 200f698:	e0bffa17 	ldw	r2,-24(fp)
 200f69c:	11002d17 	ldw	r4,180(r2)
 200f6a0:	e1bffe17 	ldw	r6,-8(fp)
 200f6a4:	e0bffa17 	ldw	r2,-24(fp)
 200f6a8:	10803117 	ldw	r2,196(r2)
 200f6ac:	d8800015 	stw	r2,0(sp)
 200f6b0:	e17ffd17 	ldw	r5,-12(fp)
 200f6b4:	e1ffff17 	ldw	r7,-4(fp)
 200f6b8:	20107ec0 	call	20107ec <epcs_read_buffer>
 200f6bc:	e0bffb15 	stw	r2,-20(fp)
 200f6c0:	e0fffb17 	ldw	r3,-20(fp)
 200f6c4:	e0bfff17 	ldw	r2,-4(fp)
 200f6c8:	1880011e 	bne	r3,r2,200f6d0 <alt_epcs_flash_read+0x80>
 200f6cc:	e03ffb15 	stw	zero,-20(fp)
 200f6d0:	e0bffb17 	ldw	r2,-20(fp)
 200f6d4:	e037883a 	mov	sp,fp
 200f6d8:	dfc00117 	ldw	ra,4(sp)
 200f6dc:	df000017 	ldw	fp,0(sp)
 200f6e0:	dec00204 	addi	sp,sp,8
 200f6e4:	f800283a 	ret

0200f6e8 <altera_avalon_jtag_uart_read_fd>:
 200f6e8:	defffa04 	addi	sp,sp,-24
 200f6ec:	dfc00515 	stw	ra,20(sp)
 200f6f0:	df000415 	stw	fp,16(sp)
 200f6f4:	df000404 	addi	fp,sp,16
 200f6f8:	e13ffd15 	stw	r4,-12(fp)
 200f6fc:	e17ffe15 	stw	r5,-8(fp)
 200f700:	e1bfff15 	stw	r6,-4(fp)
 200f704:	e0bffd17 	ldw	r2,-12(fp)
 200f708:	10800017 	ldw	r2,0(r2)
 200f70c:	e0bffc15 	stw	r2,-16(fp)
 200f710:	e0bffc17 	ldw	r2,-16(fp)
 200f714:	11000a04 	addi	r4,r2,40
 200f718:	e0bffd17 	ldw	r2,-12(fp)
 200f71c:	11c00217 	ldw	r7,8(r2)
 200f720:	e17ffe17 	ldw	r5,-8(fp)
 200f724:	e1bfff17 	ldw	r6,-4(fp)
 200f728:	200fd2c0 	call	200fd2c <altera_avalon_jtag_uart_read>
 200f72c:	e037883a 	mov	sp,fp
 200f730:	dfc00117 	ldw	ra,4(sp)
 200f734:	df000017 	ldw	fp,0(sp)
 200f738:	dec00204 	addi	sp,sp,8
 200f73c:	f800283a 	ret

0200f740 <altera_avalon_jtag_uart_write_fd>:
 200f740:	defffa04 	addi	sp,sp,-24
 200f744:	dfc00515 	stw	ra,20(sp)
 200f748:	df000415 	stw	fp,16(sp)
 200f74c:	df000404 	addi	fp,sp,16
 200f750:	e13ffd15 	stw	r4,-12(fp)
 200f754:	e17ffe15 	stw	r5,-8(fp)
 200f758:	e1bfff15 	stw	r6,-4(fp)
 200f75c:	e0bffd17 	ldw	r2,-12(fp)
 200f760:	10800017 	ldw	r2,0(r2)
 200f764:	e0bffc15 	stw	r2,-16(fp)
 200f768:	e0bffc17 	ldw	r2,-16(fp)
 200f76c:	11000a04 	addi	r4,r2,40
 200f770:	e0bffd17 	ldw	r2,-12(fp)
 200f774:	11c00217 	ldw	r7,8(r2)
 200f778:	e17ffe17 	ldw	r5,-8(fp)
 200f77c:	e1bfff17 	ldw	r6,-4(fp)
 200f780:	200ff500 	call	200ff50 <altera_avalon_jtag_uart_write>
 200f784:	e037883a 	mov	sp,fp
 200f788:	dfc00117 	ldw	ra,4(sp)
 200f78c:	df000017 	ldw	fp,0(sp)
 200f790:	dec00204 	addi	sp,sp,8
 200f794:	f800283a 	ret

0200f798 <altera_avalon_jtag_uart_close_fd>:
 200f798:	defffc04 	addi	sp,sp,-16
 200f79c:	dfc00315 	stw	ra,12(sp)
 200f7a0:	df000215 	stw	fp,8(sp)
 200f7a4:	df000204 	addi	fp,sp,8
 200f7a8:	e13fff15 	stw	r4,-4(fp)
 200f7ac:	e0bfff17 	ldw	r2,-4(fp)
 200f7b0:	10800017 	ldw	r2,0(r2)
 200f7b4:	e0bffe15 	stw	r2,-8(fp)
 200f7b8:	e0bffe17 	ldw	r2,-8(fp)
 200f7bc:	11000a04 	addi	r4,r2,40
 200f7c0:	e0bfff17 	ldw	r2,-4(fp)
 200f7c4:	11400217 	ldw	r5,8(r2)
 200f7c8:	200fbc40 	call	200fbc4 <altera_avalon_jtag_uart_close>
 200f7cc:	e037883a 	mov	sp,fp
 200f7d0:	dfc00117 	ldw	ra,4(sp)
 200f7d4:	df000017 	ldw	fp,0(sp)
 200f7d8:	dec00204 	addi	sp,sp,8
 200f7dc:	f800283a 	ret

0200f7e0 <altera_avalon_jtag_uart_ioctl_fd>:
 200f7e0:	defffa04 	addi	sp,sp,-24
 200f7e4:	dfc00515 	stw	ra,20(sp)
 200f7e8:	df000415 	stw	fp,16(sp)
 200f7ec:	df000404 	addi	fp,sp,16
 200f7f0:	e13ffd15 	stw	r4,-12(fp)
 200f7f4:	e17ffe15 	stw	r5,-8(fp)
 200f7f8:	e1bfff15 	stw	r6,-4(fp)
 200f7fc:	e0bffd17 	ldw	r2,-12(fp)
 200f800:	10800017 	ldw	r2,0(r2)
 200f804:	e0bffc15 	stw	r2,-16(fp)
 200f808:	e0bffc17 	ldw	r2,-16(fp)
 200f80c:	11000a04 	addi	r4,r2,40
 200f810:	e17ffe17 	ldw	r5,-8(fp)
 200f814:	e1bfff17 	ldw	r6,-4(fp)
 200f818:	200fc380 	call	200fc38 <altera_avalon_jtag_uart_ioctl>
 200f81c:	e037883a 	mov	sp,fp
 200f820:	dfc00117 	ldw	ra,4(sp)
 200f824:	df000017 	ldw	fp,0(sp)
 200f828:	dec00204 	addi	sp,sp,8
 200f82c:	f800283a 	ret

0200f830 <altera_avalon_jtag_uart_init>:
 200f830:	defffb04 	addi	sp,sp,-20
 200f834:	dfc00415 	stw	ra,16(sp)
 200f838:	df000315 	stw	fp,12(sp)
 200f83c:	df000304 	addi	fp,sp,12
 200f840:	e13ffd15 	stw	r4,-12(fp)
 200f844:	e17ffe15 	stw	r5,-8(fp)
 200f848:	e1bfff15 	stw	r6,-4(fp)
 200f84c:	e0fffd17 	ldw	r3,-12(fp)
 200f850:	00800044 	movi	r2,1
 200f854:	18800815 	stw	r2,32(r3)
 200f858:	e0bffd17 	ldw	r2,-12(fp)
 200f85c:	10800017 	ldw	r2,0(r2)
 200f860:	11000104 	addi	r4,r2,4
 200f864:	e0bffd17 	ldw	r2,-12(fp)
 200f868:	10800817 	ldw	r2,32(r2)
 200f86c:	1007883a 	mov	r3,r2
 200f870:	2005883a 	mov	r2,r4
 200f874:	10c00035 	stwio	r3,0(r2)
 200f878:	e13fff17 	ldw	r4,-4(fp)
 200f87c:	e17ffd17 	ldw	r5,-12(fp)
 200f880:	01808074 	movhi	r6,513
 200f884:	31be3a04 	addi	r6,r6,-1816
 200f888:	20115fc0 	call	20115fc <alt_irq_register>
 200f88c:	e0bffd17 	ldw	r2,-12(fp)
 200f890:	10000915 	stw	zero,36(r2)
 200f894:	e0bffd17 	ldw	r2,-12(fp)
 200f898:	11000204 	addi	r4,r2,8
 200f89c:	00808074 	movhi	r2,513
 200f8a0:	1098be04 	addi	r2,r2,25336
 200f8a4:	10800017 	ldw	r2,0(r2)
 200f8a8:	100b883a 	mov	r5,r2
 200f8ac:	01808074 	movhi	r6,513
 200f8b0:	31bec504 	addi	r6,r6,-1260
 200f8b4:	e1fffd17 	ldw	r7,-12(fp)
 200f8b8:	2010cf80 	call	2010cf8 <alt_alarm_start>
 200f8bc:	1004403a 	cmpge	r2,r2,zero
 200f8c0:	1000041e 	bne	r2,zero,200f8d4 <altera_avalon_jtag_uart_init+0xa4>
 200f8c4:	e0fffd17 	ldw	r3,-12(fp)
 200f8c8:	00a00034 	movhi	r2,32768
 200f8cc:	10bfffc4 	addi	r2,r2,-1
 200f8d0:	18800115 	stw	r2,4(r3)
 200f8d4:	e037883a 	mov	sp,fp
 200f8d8:	dfc00117 	ldw	ra,4(sp)
 200f8dc:	df000017 	ldw	fp,0(sp)
 200f8e0:	dec00204 	addi	sp,sp,8
 200f8e4:	f800283a 	ret

0200f8e8 <altera_avalon_jtag_uart_irq>:
 200f8e8:	defff704 	addi	sp,sp,-36
 200f8ec:	df000815 	stw	fp,32(sp)
 200f8f0:	df000804 	addi	fp,sp,32
 200f8f4:	e13ffe15 	stw	r4,-8(fp)
 200f8f8:	e17fff15 	stw	r5,-4(fp)
 200f8fc:	e0bffe17 	ldw	r2,-8(fp)
 200f900:	e0bffd15 	stw	r2,-12(fp)
 200f904:	e0bffd17 	ldw	r2,-12(fp)
 200f908:	10800017 	ldw	r2,0(r2)
 200f90c:	e0bffc15 	stw	r2,-16(fp)
 200f910:	00000006 	br	200f914 <altera_avalon_jtag_uart_irq+0x2c>
 200f914:	e0bffc17 	ldw	r2,-16(fp)
 200f918:	10800104 	addi	r2,r2,4
 200f91c:	10800037 	ldwio	r2,0(r2)
 200f920:	e0bffb15 	stw	r2,-20(fp)
 200f924:	e0bffb17 	ldw	r2,-20(fp)
 200f928:	1080c00c 	andi	r2,r2,768
 200f92c:	1005003a 	cmpeq	r2,r2,zero
 200f930:	1000741e 	bne	r2,zero,200fb04 <altera_avalon_jtag_uart_irq+0x21c>
 200f934:	e0bffb17 	ldw	r2,-20(fp)
 200f938:	1080400c 	andi	r2,r2,256
 200f93c:	1005003a 	cmpeq	r2,r2,zero
 200f940:	1000351e 	bne	r2,zero,200fa18 <altera_avalon_jtag_uart_irq+0x130>
 200f944:	00800074 	movhi	r2,1
 200f948:	e0bffa15 	stw	r2,-24(fp)
 200f94c:	e0bffd17 	ldw	r2,-12(fp)
 200f950:	10800a17 	ldw	r2,40(r2)
 200f954:	10800044 	addi	r2,r2,1
 200f958:	1081ffcc 	andi	r2,r2,2047
 200f95c:	e0bff915 	stw	r2,-28(fp)
 200f960:	e0bffd17 	ldw	r2,-12(fp)
 200f964:	10c00b17 	ldw	r3,44(r2)
 200f968:	e0bff917 	ldw	r2,-28(fp)
 200f96c:	18801626 	beq	r3,r2,200f9c8 <altera_avalon_jtag_uart_irq+0xe0>
 200f970:	e0bffc17 	ldw	r2,-16(fp)
 200f974:	10800037 	ldwio	r2,0(r2)
 200f978:	e0bffa15 	stw	r2,-24(fp)
 200f97c:	e0bffa17 	ldw	r2,-24(fp)
 200f980:	10a0000c 	andi	r2,r2,32768
 200f984:	1005003a 	cmpeq	r2,r2,zero
 200f988:	10000f1e 	bne	r2,zero,200f9c8 <altera_avalon_jtag_uart_irq+0xe0>
 200f98c:	e0bffd17 	ldw	r2,-12(fp)
 200f990:	10c00a17 	ldw	r3,40(r2)
 200f994:	e0bffa17 	ldw	r2,-24(fp)
 200f998:	1009883a 	mov	r4,r2
 200f99c:	e0bffd17 	ldw	r2,-12(fp)
 200f9a0:	1885883a 	add	r2,r3,r2
 200f9a4:	10800e04 	addi	r2,r2,56
 200f9a8:	11000005 	stb	r4,0(r2)
 200f9ac:	e0bffd17 	ldw	r2,-12(fp)
 200f9b0:	10800a17 	ldw	r2,40(r2)
 200f9b4:	10800044 	addi	r2,r2,1
 200f9b8:	10c1ffcc 	andi	r3,r2,2047
 200f9bc:	e0bffd17 	ldw	r2,-12(fp)
 200f9c0:	10c00a15 	stw	r3,40(r2)
 200f9c4:	003fe106 	br	200f94c <altera_avalon_jtag_uart_irq+0x64>
 200f9c8:	e0bffa17 	ldw	r2,-24(fp)
 200f9cc:	10bfffec 	andhi	r2,r2,65535
 200f9d0:	1005003a 	cmpeq	r2,r2,zero
 200f9d4:	1000101e 	bne	r2,zero,200fa18 <altera_avalon_jtag_uart_irq+0x130>
 200f9d8:	e0bffd17 	ldw	r2,-12(fp)
 200f9dc:	10c00817 	ldw	r3,32(r2)
 200f9e0:	00bfff84 	movi	r2,-2
 200f9e4:	1886703a 	and	r3,r3,r2
 200f9e8:	e0bffd17 	ldw	r2,-12(fp)
 200f9ec:	10c00815 	stw	r3,32(r2)
 200f9f0:	e0bffc17 	ldw	r2,-16(fp)
 200f9f4:	11000104 	addi	r4,r2,4
 200f9f8:	e0bffd17 	ldw	r2,-12(fp)
 200f9fc:	10800817 	ldw	r2,32(r2)
 200fa00:	1007883a 	mov	r3,r2
 200fa04:	2005883a 	mov	r2,r4
 200fa08:	10c00035 	stwio	r3,0(r2)
 200fa0c:	e0bffc17 	ldw	r2,-16(fp)
 200fa10:	10800104 	addi	r2,r2,4
 200fa14:	10800037 	ldwio	r2,0(r2)
 200fa18:	e0bffb17 	ldw	r2,-20(fp)
 200fa1c:	1080800c 	andi	r2,r2,512
 200fa20:	1005003a 	cmpeq	r2,r2,zero
 200fa24:	103fbb1e 	bne	r2,zero,200f914 <altera_avalon_jtag_uart_irq+0x2c>
 200fa28:	e0bffb17 	ldw	r2,-20(fp)
 200fa2c:	10bfffec 	andhi	r2,r2,65535
 200fa30:	1004d43a 	srli	r2,r2,16
 200fa34:	e0bff815 	stw	r2,-32(fp)
 200fa38:	00001506 	br	200fa90 <altera_avalon_jtag_uart_irq+0x1a8>
 200fa3c:	e13ffc17 	ldw	r4,-16(fp)
 200fa40:	e0bffd17 	ldw	r2,-12(fp)
 200fa44:	10c00d17 	ldw	r3,52(r2)
 200fa48:	e0bffd17 	ldw	r2,-12(fp)
 200fa4c:	1885883a 	add	r2,r3,r2
 200fa50:	10820e04 	addi	r2,r2,2104
 200fa54:	10800003 	ldbu	r2,0(r2)
 200fa58:	10c03fcc 	andi	r3,r2,255
 200fa5c:	18c0201c 	xori	r3,r3,128
 200fa60:	18ffe004 	addi	r3,r3,-128
 200fa64:	2005883a 	mov	r2,r4
 200fa68:	10c00035 	stwio	r3,0(r2)
 200fa6c:	e0bffd17 	ldw	r2,-12(fp)
 200fa70:	10800d17 	ldw	r2,52(r2)
 200fa74:	10800044 	addi	r2,r2,1
 200fa78:	10c1ffcc 	andi	r3,r2,2047
 200fa7c:	e0bffd17 	ldw	r2,-12(fp)
 200fa80:	10c00d15 	stw	r3,52(r2)
 200fa84:	e0bff817 	ldw	r2,-32(fp)
 200fa88:	10bfffc4 	addi	r2,r2,-1
 200fa8c:	e0bff815 	stw	r2,-32(fp)
 200fa90:	e0bff817 	ldw	r2,-32(fp)
 200fa94:	1005003a 	cmpeq	r2,r2,zero
 200fa98:	1000051e 	bne	r2,zero,200fab0 <altera_avalon_jtag_uart_irq+0x1c8>
 200fa9c:	e0bffd17 	ldw	r2,-12(fp)
 200faa0:	10c00d17 	ldw	r3,52(r2)
 200faa4:	e0bffd17 	ldw	r2,-12(fp)
 200faa8:	10800c17 	ldw	r2,48(r2)
 200faac:	18bfe31e 	bne	r3,r2,200fa3c <altera_avalon_jtag_uart_irq+0x154>
 200fab0:	e0bff817 	ldw	r2,-32(fp)
 200fab4:	1005003a 	cmpeq	r2,r2,zero
 200fab8:	103f961e 	bne	r2,zero,200f914 <altera_avalon_jtag_uart_irq+0x2c>
 200fabc:	e0bffd17 	ldw	r2,-12(fp)
 200fac0:	10c00817 	ldw	r3,32(r2)
 200fac4:	00bfff44 	movi	r2,-3
 200fac8:	1886703a 	and	r3,r3,r2
 200facc:	e0bffd17 	ldw	r2,-12(fp)
 200fad0:	10c00815 	stw	r3,32(r2)
 200fad4:	e0bffd17 	ldw	r2,-12(fp)
 200fad8:	10800017 	ldw	r2,0(r2)
 200fadc:	11000104 	addi	r4,r2,4
 200fae0:	e0bffd17 	ldw	r2,-12(fp)
 200fae4:	10800817 	ldw	r2,32(r2)
 200fae8:	1007883a 	mov	r3,r2
 200faec:	2005883a 	mov	r2,r4
 200faf0:	10c00035 	stwio	r3,0(r2)
 200faf4:	e0bffc17 	ldw	r2,-16(fp)
 200faf8:	10800104 	addi	r2,r2,4
 200fafc:	10800037 	ldwio	r2,0(r2)
 200fb00:	003f8406 	br	200f914 <altera_avalon_jtag_uart_irq+0x2c>
 200fb04:	e037883a 	mov	sp,fp
 200fb08:	df000017 	ldw	fp,0(sp)
 200fb0c:	dec00104 	addi	sp,sp,4
 200fb10:	f800283a 	ret

0200fb14 <altera_avalon_jtag_uart_timeout>:
 200fb14:	defffc04 	addi	sp,sp,-16
 200fb18:	df000315 	stw	fp,12(sp)
 200fb1c:	df000304 	addi	fp,sp,12
 200fb20:	e13fff15 	stw	r4,-4(fp)
 200fb24:	e0bfff17 	ldw	r2,-4(fp)
 200fb28:	e0bffe15 	stw	r2,-8(fp)
 200fb2c:	e0bffe17 	ldw	r2,-8(fp)
 200fb30:	10800017 	ldw	r2,0(r2)
 200fb34:	10800104 	addi	r2,r2,4
 200fb38:	10800037 	ldwio	r2,0(r2)
 200fb3c:	e0bffd15 	stw	r2,-12(fp)
 200fb40:	e0bffd17 	ldw	r2,-12(fp)
 200fb44:	1081000c 	andi	r2,r2,1024
 200fb48:	1005003a 	cmpeq	r2,r2,zero
 200fb4c:	10000c1e 	bne	r2,zero,200fb80 <altera_avalon_jtag_uart_timeout+0x6c>
 200fb50:	e0bffe17 	ldw	r2,-8(fp)
 200fb54:	10800017 	ldw	r2,0(r2)
 200fb58:	11000104 	addi	r4,r2,4
 200fb5c:	e0bffe17 	ldw	r2,-8(fp)
 200fb60:	10800817 	ldw	r2,32(r2)
 200fb64:	10810014 	ori	r2,r2,1024
 200fb68:	1007883a 	mov	r3,r2
 200fb6c:	2005883a 	mov	r2,r4
 200fb70:	10c00035 	stwio	r3,0(r2)
 200fb74:	e0bffe17 	ldw	r2,-8(fp)
 200fb78:	10000915 	stw	zero,36(r2)
 200fb7c:	00000a06 	br	200fba8 <altera_avalon_jtag_uart_timeout+0x94>
 200fb80:	e0bffe17 	ldw	r2,-8(fp)
 200fb84:	10c00917 	ldw	r3,36(r2)
 200fb88:	00a00034 	movhi	r2,32768
 200fb8c:	10bfff04 	addi	r2,r2,-4
 200fb90:	10c00536 	bltu	r2,r3,200fba8 <altera_avalon_jtag_uart_timeout+0x94>
 200fb94:	e0bffe17 	ldw	r2,-8(fp)
 200fb98:	10800917 	ldw	r2,36(r2)
 200fb9c:	10c00044 	addi	r3,r2,1
 200fba0:	e0bffe17 	ldw	r2,-8(fp)
 200fba4:	10c00915 	stw	r3,36(r2)
 200fba8:	00808074 	movhi	r2,513
 200fbac:	1098be04 	addi	r2,r2,25336
 200fbb0:	10800017 	ldw	r2,0(r2)
 200fbb4:	e037883a 	mov	sp,fp
 200fbb8:	df000017 	ldw	fp,0(sp)
 200fbbc:	dec00104 	addi	sp,sp,4
 200fbc0:	f800283a 	ret

0200fbc4 <altera_avalon_jtag_uart_close>:
 200fbc4:	defffc04 	addi	sp,sp,-16
 200fbc8:	df000315 	stw	fp,12(sp)
 200fbcc:	df000304 	addi	fp,sp,12
 200fbd0:	e13ffd15 	stw	r4,-12(fp)
 200fbd4:	e17ffe15 	stw	r5,-8(fp)
 200fbd8:	00000706 	br	200fbf8 <altera_avalon_jtag_uart_close+0x34>
 200fbdc:	e0bffe17 	ldw	r2,-8(fp)
 200fbe0:	1090000c 	andi	r2,r2,16384
 200fbe4:	1005003a 	cmpeq	r2,r2,zero
 200fbe8:	1000031e 	bne	r2,zero,200fbf8 <altera_avalon_jtag_uart_close+0x34>
 200fbec:	00bffd44 	movi	r2,-11
 200fbf0:	e0bfff15 	stw	r2,-4(fp)
 200fbf4:	00000b06 	br	200fc24 <altera_avalon_jtag_uart_close+0x60>
 200fbf8:	e0bffd17 	ldw	r2,-12(fp)
 200fbfc:	10c00d17 	ldw	r3,52(r2)
 200fc00:	e0bffd17 	ldw	r2,-12(fp)
 200fc04:	10800c17 	ldw	r2,48(r2)
 200fc08:	18800526 	beq	r3,r2,200fc20 <altera_avalon_jtag_uart_close+0x5c>
 200fc0c:	e0bffd17 	ldw	r2,-12(fp)
 200fc10:	10c00917 	ldw	r3,36(r2)
 200fc14:	e0bffd17 	ldw	r2,-12(fp)
 200fc18:	10800117 	ldw	r2,4(r2)
 200fc1c:	18bfef36 	bltu	r3,r2,200fbdc <altera_avalon_jtag_uart_close+0x18>
 200fc20:	e03fff15 	stw	zero,-4(fp)
 200fc24:	e0bfff17 	ldw	r2,-4(fp)
 200fc28:	e037883a 	mov	sp,fp
 200fc2c:	df000017 	ldw	fp,0(sp)
 200fc30:	dec00104 	addi	sp,sp,4
 200fc34:	f800283a 	ret

0200fc38 <altera_avalon_jtag_uart_ioctl>:
 200fc38:	defff804 	addi	sp,sp,-32
 200fc3c:	df000715 	stw	fp,28(sp)
 200fc40:	df000704 	addi	fp,sp,28
 200fc44:	e13ffb15 	stw	r4,-20(fp)
 200fc48:	e17ffc15 	stw	r5,-16(fp)
 200fc4c:	e1bffd15 	stw	r6,-12(fp)
 200fc50:	00bff9c4 	movi	r2,-25
 200fc54:	e0bffa15 	stw	r2,-24(fp)
 200fc58:	e0bffc17 	ldw	r2,-16(fp)
 200fc5c:	e0bfff15 	stw	r2,-4(fp)
 200fc60:	e0ffff17 	ldw	r3,-4(fp)
 200fc64:	189a8060 	cmpeqi	r2,r3,27137
 200fc68:	1000041e 	bne	r2,zero,200fc7c <altera_avalon_jtag_uart_ioctl+0x44>
 200fc6c:	e0ffff17 	ldw	r3,-4(fp)
 200fc70:	189a80a0 	cmpeqi	r2,r3,27138
 200fc74:	10001b1e 	bne	r2,zero,200fce4 <altera_avalon_jtag_uart_ioctl+0xac>
 200fc78:	00002706 	br	200fd18 <altera_avalon_jtag_uart_ioctl+0xe0>
 200fc7c:	e0bffb17 	ldw	r2,-20(fp)
 200fc80:	10c00117 	ldw	r3,4(r2)
 200fc84:	00a00034 	movhi	r2,32768
 200fc88:	10bfffc4 	addi	r2,r2,-1
 200fc8c:	18802226 	beq	r3,r2,200fd18 <altera_avalon_jtag_uart_ioctl+0xe0>
 200fc90:	e0bffd17 	ldw	r2,-12(fp)
 200fc94:	10800017 	ldw	r2,0(r2)
 200fc98:	e0bff915 	stw	r2,-28(fp)
 200fc9c:	e0bff917 	ldw	r2,-28(fp)
 200fca0:	10800090 	cmplti	r2,r2,2
 200fca4:	1000071e 	bne	r2,zero,200fcc4 <altera_avalon_jtag_uart_ioctl+0x8c>
 200fca8:	e0fff917 	ldw	r3,-28(fp)
 200fcac:	00a00034 	movhi	r2,32768
 200fcb0:	10bfffc4 	addi	r2,r2,-1
 200fcb4:	18800326 	beq	r3,r2,200fcc4 <altera_avalon_jtag_uart_ioctl+0x8c>
 200fcb8:	e0bff917 	ldw	r2,-28(fp)
 200fcbc:	e0bffe15 	stw	r2,-8(fp)
 200fcc0:	00000306 	br	200fcd0 <altera_avalon_jtag_uart_ioctl+0x98>
 200fcc4:	00e00034 	movhi	r3,32768
 200fcc8:	18ffff84 	addi	r3,r3,-2
 200fccc:	e0fffe15 	stw	r3,-8(fp)
 200fcd0:	e0bffb17 	ldw	r2,-20(fp)
 200fcd4:	e0fffe17 	ldw	r3,-8(fp)
 200fcd8:	10c00115 	stw	r3,4(r2)
 200fcdc:	e03ffa15 	stw	zero,-24(fp)
 200fce0:	00000d06 	br	200fd18 <altera_avalon_jtag_uart_ioctl+0xe0>
 200fce4:	e0bffb17 	ldw	r2,-20(fp)
 200fce8:	10c00117 	ldw	r3,4(r2)
 200fcec:	00a00034 	movhi	r2,32768
 200fcf0:	10bfffc4 	addi	r2,r2,-1
 200fcf4:	18800826 	beq	r3,r2,200fd18 <altera_avalon_jtag_uart_ioctl+0xe0>
 200fcf8:	e13ffd17 	ldw	r4,-12(fp)
 200fcfc:	e0bffb17 	ldw	r2,-20(fp)
 200fd00:	10c00917 	ldw	r3,36(r2)
 200fd04:	e0bffb17 	ldw	r2,-20(fp)
 200fd08:	10800117 	ldw	r2,4(r2)
 200fd0c:	1885803a 	cmpltu	r2,r3,r2
 200fd10:	20800015 	stw	r2,0(r4)
 200fd14:	e03ffa15 	stw	zero,-24(fp)
 200fd18:	e0bffa17 	ldw	r2,-24(fp)
 200fd1c:	e037883a 	mov	sp,fp
 200fd20:	df000017 	ldw	fp,0(sp)
 200fd24:	dec00104 	addi	sp,sp,4
 200fd28:	f800283a 	ret

0200fd2c <altera_avalon_jtag_uart_read>:
 200fd2c:	defff204 	addi	sp,sp,-56
 200fd30:	dfc00d15 	stw	ra,52(sp)
 200fd34:	df000c15 	stw	fp,48(sp)
 200fd38:	df000c04 	addi	fp,sp,48
 200fd3c:	e13ffb15 	stw	r4,-20(fp)
 200fd40:	e17ffc15 	stw	r5,-16(fp)
 200fd44:	e1bffd15 	stw	r6,-12(fp)
 200fd48:	e1fffe15 	stw	r7,-8(fp)
 200fd4c:	e0bffc17 	ldw	r2,-16(fp)
 200fd50:	e0bffa15 	stw	r2,-24(fp)
 200fd54:	00004806 	br	200fe78 <altera_avalon_jtag_uart_read+0x14c>
 200fd58:	e0bffb17 	ldw	r2,-20(fp)
 200fd5c:	10800a17 	ldw	r2,40(r2)
 200fd60:	e0bff715 	stw	r2,-36(fp)
 200fd64:	e0bffb17 	ldw	r2,-20(fp)
 200fd68:	10800b17 	ldw	r2,44(r2)
 200fd6c:	e0bff615 	stw	r2,-40(fp)
 200fd70:	e0fff717 	ldw	r3,-36(fp)
 200fd74:	e0bff617 	ldw	r2,-40(fp)
 200fd78:	18800536 	bltu	r3,r2,200fd90 <altera_avalon_jtag_uart_read+0x64>
 200fd7c:	e0bff717 	ldw	r2,-36(fp)
 200fd80:	e0fff617 	ldw	r3,-40(fp)
 200fd84:	10c5c83a 	sub	r2,r2,r3
 200fd88:	e0bff815 	stw	r2,-32(fp)
 200fd8c:	00000406 	br	200fda0 <altera_avalon_jtag_uart_read+0x74>
 200fd90:	00820004 	movi	r2,2048
 200fd94:	e0fff617 	ldw	r3,-40(fp)
 200fd98:	10c5c83a 	sub	r2,r2,r3
 200fd9c:	e0bff815 	stw	r2,-32(fp)
 200fda0:	e0bff817 	ldw	r2,-32(fp)
 200fda4:	1005003a 	cmpeq	r2,r2,zero
 200fda8:	10001f1e 	bne	r2,zero,200fe28 <altera_avalon_jtag_uart_read+0xfc>
 200fdac:	e0fffd17 	ldw	r3,-12(fp)
 200fdb0:	e0bff817 	ldw	r2,-32(fp)
 200fdb4:	1880022e 	bgeu	r3,r2,200fdc0 <altera_avalon_jtag_uart_read+0x94>
 200fdb8:	e0bffd17 	ldw	r2,-12(fp)
 200fdbc:	e0bff815 	stw	r2,-32(fp)
 200fdc0:	e0bffb17 	ldw	r2,-20(fp)
 200fdc4:	10c00e04 	addi	r3,r2,56
 200fdc8:	e0bff617 	ldw	r2,-40(fp)
 200fdcc:	1887883a 	add	r3,r3,r2
 200fdd0:	e0bffa17 	ldw	r2,-24(fp)
 200fdd4:	1009883a 	mov	r4,r2
 200fdd8:	180b883a 	mov	r5,r3
 200fddc:	e1bff817 	ldw	r6,-32(fp)
 200fde0:	20120200 	call	2012020 <memcpy>
 200fde4:	e0fff817 	ldw	r3,-32(fp)
 200fde8:	e0bffa17 	ldw	r2,-24(fp)
 200fdec:	10c5883a 	add	r2,r2,r3
 200fdf0:	e0bffa15 	stw	r2,-24(fp)
 200fdf4:	e0fffd17 	ldw	r3,-12(fp)
 200fdf8:	e0bff817 	ldw	r2,-32(fp)
 200fdfc:	1885c83a 	sub	r2,r3,r2
 200fe00:	e0bffd15 	stw	r2,-12(fp)
 200fe04:	e0fff617 	ldw	r3,-40(fp)
 200fe08:	e0bff817 	ldw	r2,-32(fp)
 200fe0c:	1885883a 	add	r2,r3,r2
 200fe10:	10c1ffcc 	andi	r3,r2,2047
 200fe14:	e0bffb17 	ldw	r2,-20(fp)
 200fe18:	10c00b15 	stw	r3,44(r2)
 200fe1c:	e0bffd17 	ldw	r2,-12(fp)
 200fe20:	10800048 	cmpgei	r2,r2,1
 200fe24:	103fcc1e 	bne	r2,zero,200fd58 <altera_avalon_jtag_uart_read+0x2c>
 200fe28:	e0fffa17 	ldw	r3,-24(fp)
 200fe2c:	e0bffc17 	ldw	r2,-16(fp)
 200fe30:	1880141e 	bne	r3,r2,200fe84 <altera_avalon_jtag_uart_read+0x158>
 200fe34:	e0bffe17 	ldw	r2,-8(fp)
 200fe38:	1090000c 	andi	r2,r2,16384
 200fe3c:	1004c03a 	cmpne	r2,r2,zero
 200fe40:	1000101e 	bne	r2,zero,200fe84 <altera_avalon_jtag_uart_read+0x158>
 200fe44:	e0bffb17 	ldw	r2,-20(fp)
 200fe48:	10c00a17 	ldw	r3,40(r2)
 200fe4c:	e0bff717 	ldw	r2,-36(fp)
 200fe50:	1880051e 	bne	r3,r2,200fe68 <altera_avalon_jtag_uart_read+0x13c>
 200fe54:	e0bffb17 	ldw	r2,-20(fp)
 200fe58:	10c00917 	ldw	r3,36(r2)
 200fe5c:	e0bffb17 	ldw	r2,-20(fp)
 200fe60:	10800117 	ldw	r2,4(r2)
 200fe64:	18bff736 	bltu	r3,r2,200fe44 <altera_avalon_jtag_uart_read+0x118>
 200fe68:	e0bffb17 	ldw	r2,-20(fp)
 200fe6c:	10c00a17 	ldw	r3,40(r2)
 200fe70:	e0bff717 	ldw	r2,-36(fp)
 200fe74:	18800326 	beq	r3,r2,200fe84 <altera_avalon_jtag_uart_read+0x158>
 200fe78:	e0bffd17 	ldw	r2,-12(fp)
 200fe7c:	10800048 	cmpgei	r2,r2,1
 200fe80:	103fb51e 	bne	r2,zero,200fd58 <altera_avalon_jtag_uart_read+0x2c>
 200fe84:	e0fffa17 	ldw	r3,-24(fp)
 200fe88:	e0bffc17 	ldw	r2,-16(fp)
 200fe8c:	18801926 	beq	r3,r2,200fef4 <altera_avalon_jtag_uart_read+0x1c8>
 200fe90:	0005303a 	rdctl	r2,status
 200fe94:	e0bff515 	stw	r2,-44(fp)
 200fe98:	e0fff517 	ldw	r3,-44(fp)
 200fe9c:	00bfff84 	movi	r2,-2
 200fea0:	1884703a 	and	r2,r3,r2
 200fea4:	1001703a 	wrctl	status,r2
 200fea8:	e0bff517 	ldw	r2,-44(fp)
 200feac:	e0bff915 	stw	r2,-28(fp)
 200feb0:	e0bffb17 	ldw	r2,-20(fp)
 200feb4:	10800817 	ldw	r2,32(r2)
 200feb8:	10c00054 	ori	r3,r2,1
 200febc:	e0bffb17 	ldw	r2,-20(fp)
 200fec0:	10c00815 	stw	r3,32(r2)
 200fec4:	e0bffb17 	ldw	r2,-20(fp)
 200fec8:	10800017 	ldw	r2,0(r2)
 200fecc:	11000104 	addi	r4,r2,4
 200fed0:	e0bffb17 	ldw	r2,-20(fp)
 200fed4:	10800817 	ldw	r2,32(r2)
 200fed8:	1007883a 	mov	r3,r2
 200fedc:	2005883a 	mov	r2,r4
 200fee0:	10c00035 	stwio	r3,0(r2)
 200fee4:	e0bff917 	ldw	r2,-28(fp)
 200fee8:	e0bff415 	stw	r2,-48(fp)
 200feec:	e0bff417 	ldw	r2,-48(fp)
 200fef0:	1001703a 	wrctl	status,r2
 200fef4:	e0fffa17 	ldw	r3,-24(fp)
 200fef8:	e0bffc17 	ldw	r2,-16(fp)
 200fefc:	18800526 	beq	r3,r2,200ff14 <altera_avalon_jtag_uart_read+0x1e8>
 200ff00:	e0fffa17 	ldw	r3,-24(fp)
 200ff04:	e0bffc17 	ldw	r2,-16(fp)
 200ff08:	1887c83a 	sub	r3,r3,r2
 200ff0c:	e0ffff15 	stw	r3,-4(fp)
 200ff10:	00000906 	br	200ff38 <altera_avalon_jtag_uart_read+0x20c>
 200ff14:	e0bffe17 	ldw	r2,-8(fp)
 200ff18:	1090000c 	andi	r2,r2,16384
 200ff1c:	1005003a 	cmpeq	r2,r2,zero
 200ff20:	1000031e 	bne	r2,zero,200ff30 <altera_avalon_jtag_uart_read+0x204>
 200ff24:	00bffd44 	movi	r2,-11
 200ff28:	e0bfff15 	stw	r2,-4(fp)
 200ff2c:	00000206 	br	200ff38 <altera_avalon_jtag_uart_read+0x20c>
 200ff30:	00bffec4 	movi	r2,-5
 200ff34:	e0bfff15 	stw	r2,-4(fp)
 200ff38:	e0bfff17 	ldw	r2,-4(fp)
 200ff3c:	e037883a 	mov	sp,fp
 200ff40:	dfc00117 	ldw	ra,4(sp)
 200ff44:	df000017 	ldw	fp,0(sp)
 200ff48:	dec00204 	addi	sp,sp,8
 200ff4c:	f800283a 	ret

0200ff50 <altera_avalon_jtag_uart_write>:
 200ff50:	defff204 	addi	sp,sp,-56
 200ff54:	dfc00d15 	stw	ra,52(sp)
 200ff58:	df000c15 	stw	fp,48(sp)
 200ff5c:	df000c04 	addi	fp,sp,48
 200ff60:	e13ffb15 	stw	r4,-20(fp)
 200ff64:	e17ffc15 	stw	r5,-16(fp)
 200ff68:	e1bffd15 	stw	r6,-12(fp)
 200ff6c:	e1fffe15 	stw	r7,-8(fp)
 200ff70:	e03ff915 	stw	zero,-28(fp)
 200ff74:	e0bffc17 	ldw	r2,-16(fp)
 200ff78:	e0bff615 	stw	r2,-40(fp)
 200ff7c:	00003a06 	br	2010068 <altera_avalon_jtag_uart_write+0x118>
 200ff80:	e0bffb17 	ldw	r2,-20(fp)
 200ff84:	10800c17 	ldw	r2,48(r2)
 200ff88:	e0bffa15 	stw	r2,-24(fp)
 200ff8c:	e0bffb17 	ldw	r2,-20(fp)
 200ff90:	10800d17 	ldw	r2,52(r2)
 200ff94:	e0bff915 	stw	r2,-28(fp)
 200ff98:	e0fffa17 	ldw	r3,-24(fp)
 200ff9c:	e0bff917 	ldw	r2,-28(fp)
 200ffa0:	1880062e 	bgeu	r3,r2,200ffbc <altera_avalon_jtag_uart_write+0x6c>
 200ffa4:	e0fff917 	ldw	r3,-28(fp)
 200ffa8:	e0bffa17 	ldw	r2,-24(fp)
 200ffac:	1885c83a 	sub	r2,r3,r2
 200ffb0:	10bfffc4 	addi	r2,r2,-1
 200ffb4:	e0bff815 	stw	r2,-32(fp)
 200ffb8:	00000c06 	br	200ffec <altera_avalon_jtag_uart_write+0x9c>
 200ffbc:	e0bff917 	ldw	r2,-28(fp)
 200ffc0:	1005003a 	cmpeq	r2,r2,zero
 200ffc4:	1000051e 	bne	r2,zero,200ffdc <altera_avalon_jtag_uart_write+0x8c>
 200ffc8:	00820004 	movi	r2,2048
 200ffcc:	e0fffa17 	ldw	r3,-24(fp)
 200ffd0:	10c5c83a 	sub	r2,r2,r3
 200ffd4:	e0bff815 	stw	r2,-32(fp)
 200ffd8:	00000406 	br	200ffec <altera_avalon_jtag_uart_write+0x9c>
 200ffdc:	0081ffc4 	movi	r2,2047
 200ffe0:	e0fffa17 	ldw	r3,-24(fp)
 200ffe4:	10c5c83a 	sub	r2,r2,r3
 200ffe8:	e0bff815 	stw	r2,-32(fp)
 200ffec:	e0bff817 	ldw	r2,-32(fp)
 200fff0:	1005003a 	cmpeq	r2,r2,zero
 200fff4:	10001f1e 	bne	r2,zero,2010074 <altera_avalon_jtag_uart_write+0x124>
 200fff8:	e0fffd17 	ldw	r3,-12(fp)
 200fffc:	e0bff817 	ldw	r2,-32(fp)
 2010000:	1880022e 	bgeu	r3,r2,201000c <altera_avalon_jtag_uart_write+0xbc>
 2010004:	e0bffd17 	ldw	r2,-12(fp)
 2010008:	e0bff815 	stw	r2,-32(fp)
 201000c:	e0bffb17 	ldw	r2,-20(fp)
 2010010:	10c20e04 	addi	r3,r2,2104
 2010014:	e0bffa17 	ldw	r2,-24(fp)
 2010018:	1885883a 	add	r2,r3,r2
 201001c:	e0fffc17 	ldw	r3,-16(fp)
 2010020:	1009883a 	mov	r4,r2
 2010024:	180b883a 	mov	r5,r3
 2010028:	e1bff817 	ldw	r6,-32(fp)
 201002c:	20120200 	call	2012020 <memcpy>
 2010030:	e0fff817 	ldw	r3,-32(fp)
 2010034:	e0bffc17 	ldw	r2,-16(fp)
 2010038:	10c5883a 	add	r2,r2,r3
 201003c:	e0bffc15 	stw	r2,-16(fp)
 2010040:	e0fffd17 	ldw	r3,-12(fp)
 2010044:	e0bff817 	ldw	r2,-32(fp)
 2010048:	1885c83a 	sub	r2,r3,r2
 201004c:	e0bffd15 	stw	r2,-12(fp)
 2010050:	e0fffa17 	ldw	r3,-24(fp)
 2010054:	e0bff817 	ldw	r2,-32(fp)
 2010058:	1885883a 	add	r2,r3,r2
 201005c:	10c1ffcc 	andi	r3,r2,2047
 2010060:	e0bffb17 	ldw	r2,-20(fp)
 2010064:	10c00c15 	stw	r3,48(r2)
 2010068:	e0bffd17 	ldw	r2,-12(fp)
 201006c:	10800048 	cmpgei	r2,r2,1
 2010070:	103fc31e 	bne	r2,zero,200ff80 <altera_avalon_jtag_uart_write+0x30>
 2010074:	0005303a 	rdctl	r2,status
 2010078:	e0bff515 	stw	r2,-44(fp)
 201007c:	e0fff517 	ldw	r3,-44(fp)
 2010080:	00bfff84 	movi	r2,-2
 2010084:	1884703a 	and	r2,r3,r2
 2010088:	1001703a 	wrctl	status,r2
 201008c:	e0bff517 	ldw	r2,-44(fp)
 2010090:	e0bff715 	stw	r2,-36(fp)
 2010094:	e0bffb17 	ldw	r2,-20(fp)
 2010098:	10800817 	ldw	r2,32(r2)
 201009c:	10c00094 	ori	r3,r2,2
 20100a0:	e0bffb17 	ldw	r2,-20(fp)
 20100a4:	10c00815 	stw	r3,32(r2)
 20100a8:	e0bffb17 	ldw	r2,-20(fp)
 20100ac:	10800017 	ldw	r2,0(r2)
 20100b0:	11000104 	addi	r4,r2,4
 20100b4:	e0bffb17 	ldw	r2,-20(fp)
 20100b8:	10800817 	ldw	r2,32(r2)
 20100bc:	1007883a 	mov	r3,r2
 20100c0:	2005883a 	mov	r2,r4
 20100c4:	10c00035 	stwio	r3,0(r2)
 20100c8:	e0bff717 	ldw	r2,-36(fp)
 20100cc:	e0bff415 	stw	r2,-48(fp)
 20100d0:	e0bff417 	ldw	r2,-48(fp)
 20100d4:	1001703a 	wrctl	status,r2
 20100d8:	e0bffd17 	ldw	r2,-12(fp)
 20100dc:	10800050 	cmplti	r2,r2,1
 20100e0:	1000111e 	bne	r2,zero,2010128 <altera_avalon_jtag_uart_write+0x1d8>
 20100e4:	e0bffe17 	ldw	r2,-8(fp)
 20100e8:	1090000c 	andi	r2,r2,16384
 20100ec:	1004c03a 	cmpne	r2,r2,zero
 20100f0:	1000101e 	bne	r2,zero,2010134 <altera_avalon_jtag_uart_write+0x1e4>
 20100f4:	e0bffb17 	ldw	r2,-20(fp)
 20100f8:	10c00d17 	ldw	r3,52(r2)
 20100fc:	e0bff917 	ldw	r2,-28(fp)
 2010100:	1880051e 	bne	r3,r2,2010118 <altera_avalon_jtag_uart_write+0x1c8>
 2010104:	e0bffb17 	ldw	r2,-20(fp)
 2010108:	10c00917 	ldw	r3,36(r2)
 201010c:	e0bffb17 	ldw	r2,-20(fp)
 2010110:	10800117 	ldw	r2,4(r2)
 2010114:	18bff736 	bltu	r3,r2,20100f4 <altera_avalon_jtag_uart_write+0x1a4>
 2010118:	e0bffb17 	ldw	r2,-20(fp)
 201011c:	10c00d17 	ldw	r3,52(r2)
 2010120:	e0bff917 	ldw	r2,-28(fp)
 2010124:	18800326 	beq	r3,r2,2010134 <altera_avalon_jtag_uart_write+0x1e4>
 2010128:	e0bffd17 	ldw	r2,-12(fp)
 201012c:	10800048 	cmpgei	r2,r2,1
 2010130:	103fcd1e 	bne	r2,zero,2010068 <altera_avalon_jtag_uart_write+0x118>
 2010134:	e0fffc17 	ldw	r3,-16(fp)
 2010138:	e0bff617 	ldw	r2,-40(fp)
 201013c:	18800526 	beq	r3,r2,2010154 <altera_avalon_jtag_uart_write+0x204>
 2010140:	e0fffc17 	ldw	r3,-16(fp)
 2010144:	e0bff617 	ldw	r2,-40(fp)
 2010148:	1887c83a 	sub	r3,r3,r2
 201014c:	e0ffff15 	stw	r3,-4(fp)
 2010150:	00000906 	br	2010178 <altera_avalon_jtag_uart_write+0x228>
 2010154:	e0bffe17 	ldw	r2,-8(fp)
 2010158:	1090000c 	andi	r2,r2,16384
 201015c:	1005003a 	cmpeq	r2,r2,zero
 2010160:	1000031e 	bne	r2,zero,2010170 <altera_avalon_jtag_uart_write+0x220>
 2010164:	00bffd44 	movi	r2,-11
 2010168:	e0bfff15 	stw	r2,-4(fp)
 201016c:	00000206 	br	2010178 <altera_avalon_jtag_uart_write+0x228>
 2010170:	00bffec4 	movi	r2,-5
 2010174:	e0bfff15 	stw	r2,-4(fp)
 2010178:	e0bfff17 	ldw	r2,-4(fp)
 201017c:	e037883a 	mov	sp,fp
 2010180:	dfc00117 	ldw	ra,4(sp)
 2010184:	df000017 	ldw	fp,0(sp)
 2010188:	dec00204 	addi	sp,sp,8
 201018c:	f800283a 	ret

02010190 <alt_avalon_timer_sc_irq>:
 2010190:	defff904 	addi	sp,sp,-28
 2010194:	dfc00615 	stw	ra,24(sp)
 2010198:	df000515 	stw	fp,20(sp)
 201019c:	df000504 	addi	fp,sp,20
 20101a0:	e13ffe15 	stw	r4,-8(fp)
 20101a4:	e17fff15 	stw	r5,-4(fp)
 20101a8:	e0bffe17 	ldw	r2,-8(fp)
 20101ac:	10000035 	stwio	zero,0(r2)
 20101b0:	e0bffe17 	ldw	r2,-8(fp)
 20101b4:	10800104 	addi	r2,r2,4
 20101b8:	10800037 	ldwio	r2,0(r2)
 20101bc:	0005303a 	rdctl	r2,status
 20101c0:	e0bffc15 	stw	r2,-16(fp)
 20101c4:	e0fffc17 	ldw	r3,-16(fp)
 20101c8:	00bfff84 	movi	r2,-2
 20101cc:	1884703a 	and	r2,r3,r2
 20101d0:	1001703a 	wrctl	status,r2
 20101d4:	e0bffc17 	ldw	r2,-16(fp)
 20101d8:	e0bffd15 	stw	r2,-12(fp)
 20101dc:	200eaec0 	call	200eaec <alt_tick>
 20101e0:	e0bffd17 	ldw	r2,-12(fp)
 20101e4:	e0bffb15 	stw	r2,-20(fp)
 20101e8:	e0bffb17 	ldw	r2,-20(fp)
 20101ec:	1001703a 	wrctl	status,r2
 20101f0:	e037883a 	mov	sp,fp
 20101f4:	dfc00117 	ldw	ra,4(sp)
 20101f8:	df000017 	ldw	fp,0(sp)
 20101fc:	dec00204 	addi	sp,sp,8
 2010200:	f800283a 	ret

02010204 <alt_avalon_timer_sc_init>:
 2010204:	defff904 	addi	sp,sp,-28
 2010208:	dfc00615 	stw	ra,24(sp)
 201020c:	df000515 	stw	fp,20(sp)
 2010210:	df000504 	addi	fp,sp,20
 2010214:	e13ffc15 	stw	r4,-16(fp)
 2010218:	e17ffd15 	stw	r5,-12(fp)
 201021c:	e1bffe15 	stw	r6,-8(fp)
 2010220:	e1ffff15 	stw	r7,-4(fp)
 2010224:	e0bfff17 	ldw	r2,-4(fp)
 2010228:	e0bffb15 	stw	r2,-20(fp)
 201022c:	00808074 	movhi	r2,513
 2010230:	1098be04 	addi	r2,r2,25336
 2010234:	10800017 	ldw	r2,0(r2)
 2010238:	1004c03a 	cmpne	r2,r2,zero
 201023c:	1000041e 	bne	r2,zero,2010250 <alt_avalon_timer_sc_init+0x4c>
 2010240:	00c08074 	movhi	r3,513
 2010244:	18d8be04 	addi	r3,r3,25336
 2010248:	e0bffb17 	ldw	r2,-20(fp)
 201024c:	18800015 	stw	r2,0(r3)
 2010250:	e0bffc17 	ldw	r2,-16(fp)
 2010254:	10800104 	addi	r2,r2,4
 2010258:	1007883a 	mov	r3,r2
 201025c:	008001c4 	movi	r2,7
 2010260:	18800035 	stwio	r2,0(r3)
 2010264:	e13ffe17 	ldw	r4,-8(fp)
 2010268:	e17ffc17 	ldw	r5,-16(fp)
 201026c:	01808074 	movhi	r6,513
 2010270:	31806404 	addi	r6,r6,400
 2010274:	20115fc0 	call	20115fc <alt_irq_register>
 2010278:	e037883a 	mov	sp,fp
 201027c:	dfc00117 	ldw	ra,4(sp)
 2010280:	df000017 	ldw	fp,0(sp)
 2010284:	dec00204 	addi	sp,sp,8
 2010288:	f800283a 	ret

0201028c <alt_up_rs232_enable_read_interrupt>:
 201028c:	defffd04 	addi	sp,sp,-12
 2010290:	df000215 	stw	fp,8(sp)
 2010294:	df000204 	addi	fp,sp,8
 2010298:	e13fff15 	stw	r4,-4(fp)
 201029c:	e0bfff17 	ldw	r2,-4(fp)
 20102a0:	10800a17 	ldw	r2,40(r2)
 20102a4:	10800104 	addi	r2,r2,4
 20102a8:	10800037 	ldwio	r2,0(r2)
 20102ac:	e0bffe15 	stw	r2,-8(fp)
 20102b0:	e0bffe17 	ldw	r2,-8(fp)
 20102b4:	10800054 	ori	r2,r2,1
 20102b8:	e0bffe15 	stw	r2,-8(fp)
 20102bc:	e0bfff17 	ldw	r2,-4(fp)
 20102c0:	10800a17 	ldw	r2,40(r2)
 20102c4:	10800104 	addi	r2,r2,4
 20102c8:	e0fffe17 	ldw	r3,-8(fp)
 20102cc:	10c00035 	stwio	r3,0(r2)
 20102d0:	e037883a 	mov	sp,fp
 20102d4:	df000017 	ldw	fp,0(sp)
 20102d8:	dec00104 	addi	sp,sp,4
 20102dc:	f800283a 	ret

020102e0 <alt_up_rs232_disable_read_interrupt>:
 20102e0:	defffd04 	addi	sp,sp,-12
 20102e4:	df000215 	stw	fp,8(sp)
 20102e8:	df000204 	addi	fp,sp,8
 20102ec:	e13fff15 	stw	r4,-4(fp)
 20102f0:	e0bfff17 	ldw	r2,-4(fp)
 20102f4:	10800a17 	ldw	r2,40(r2)
 20102f8:	10800104 	addi	r2,r2,4
 20102fc:	10800037 	ldwio	r2,0(r2)
 2010300:	e0bffe15 	stw	r2,-8(fp)
 2010304:	e0fffe17 	ldw	r3,-8(fp)
 2010308:	00bfff84 	movi	r2,-2
 201030c:	1884703a 	and	r2,r3,r2
 2010310:	e0bffe15 	stw	r2,-8(fp)
 2010314:	e0bfff17 	ldw	r2,-4(fp)
 2010318:	10800a17 	ldw	r2,40(r2)
 201031c:	10800104 	addi	r2,r2,4
 2010320:	e0fffe17 	ldw	r3,-8(fp)
 2010324:	10c00035 	stwio	r3,0(r2)
 2010328:	e037883a 	mov	sp,fp
 201032c:	df000017 	ldw	fp,0(sp)
 2010330:	dec00104 	addi	sp,sp,4
 2010334:	f800283a 	ret

02010338 <alt_up_rs232_get_used_space_in_read_FIFO>:
 2010338:	defffd04 	addi	sp,sp,-12
 201033c:	df000215 	stw	fp,8(sp)
 2010340:	df000204 	addi	fp,sp,8
 2010344:	e13fff15 	stw	r4,-4(fp)
 2010348:	e03ffe0d 	sth	zero,-8(fp)
 201034c:	e0bfff17 	ldw	r2,-4(fp)
 2010350:	10800a17 	ldw	r2,40(r2)
 2010354:	10800084 	addi	r2,r2,2
 2010358:	1080002b 	ldhuio	r2,0(r2)
 201035c:	e0bffe0d 	sth	r2,-8(fp)
 2010360:	e0bffe0b 	ldhu	r2,-8(fp)
 2010364:	e037883a 	mov	sp,fp
 2010368:	df000017 	ldw	fp,0(sp)
 201036c:	dec00104 	addi	sp,sp,4
 2010370:	f800283a 	ret

02010374 <alt_up_rs232_get_available_space_in_write_FIFO>:
 2010374:	defffd04 	addi	sp,sp,-12
 2010378:	df000215 	stw	fp,8(sp)
 201037c:	df000204 	addi	fp,sp,8
 2010380:	e13fff15 	stw	r4,-4(fp)
 2010384:	e0bfff17 	ldw	r2,-4(fp)
 2010388:	10800a17 	ldw	r2,40(r2)
 201038c:	10800104 	addi	r2,r2,4
 2010390:	10800037 	ldwio	r2,0(r2)
 2010394:	e0bffe15 	stw	r2,-8(fp)
 2010398:	e0bffe17 	ldw	r2,-8(fp)
 201039c:	10bfffec 	andhi	r2,r2,65535
 20103a0:	1004d43a 	srli	r2,r2,16
 20103a4:	e037883a 	mov	sp,fp
 20103a8:	df000017 	ldw	fp,0(sp)
 20103ac:	dec00104 	addi	sp,sp,4
 20103b0:	f800283a 	ret

020103b4 <alt_up_rs232_check_parity>:
 20103b4:	defffc04 	addi	sp,sp,-16
 20103b8:	df000315 	stw	fp,12(sp)
 20103bc:	df000304 	addi	fp,sp,12
 20103c0:	e13ffe15 	stw	r4,-8(fp)
 20103c4:	e0bffe17 	ldw	r2,-8(fp)
 20103c8:	1080800c 	andi	r2,r2,512
 20103cc:	1004d27a 	srli	r2,r2,9
 20103d0:	e0bffd15 	stw	r2,-12(fp)
 20103d4:	e0bffd17 	ldw	r2,-12(fp)
 20103d8:	1005003a 	cmpeq	r2,r2,zero
 20103dc:	1000031e 	bne	r2,zero,20103ec <alt_up_rs232_check_parity+0x38>
 20103e0:	00bfffc4 	movi	r2,-1
 20103e4:	e0bfff15 	stw	r2,-4(fp)
 20103e8:	00000106 	br	20103f0 <alt_up_rs232_check_parity+0x3c>
 20103ec:	e03fff15 	stw	zero,-4(fp)
 20103f0:	e0bfff17 	ldw	r2,-4(fp)
 20103f4:	e037883a 	mov	sp,fp
 20103f8:	df000017 	ldw	fp,0(sp)
 20103fc:	dec00104 	addi	sp,sp,4
 2010400:	f800283a 	ret

02010404 <alt_up_rs232_write_data>:
 2010404:	defffc04 	addi	sp,sp,-16
 2010408:	df000315 	stw	fp,12(sp)
 201040c:	df000304 	addi	fp,sp,12
 2010410:	e13ffe15 	stw	r4,-8(fp)
 2010414:	e17fff05 	stb	r5,-4(fp)
 2010418:	e0bffe17 	ldw	r2,-8(fp)
 201041c:	10800a17 	ldw	r2,40(r2)
 2010420:	10800037 	ldwio	r2,0(r2)
 2010424:	e0bffd15 	stw	r2,-12(fp)
 2010428:	e0bffe17 	ldw	r2,-8(fp)
 201042c:	10800a17 	ldw	r2,40(r2)
 2010430:	e0ffff03 	ldbu	r3,-4(fp)
 2010434:	10c00035 	stwio	r3,0(r2)
 2010438:	0005883a 	mov	r2,zero
 201043c:	e037883a 	mov	sp,fp
 2010440:	df000017 	ldw	fp,0(sp)
 2010444:	dec00104 	addi	sp,sp,4
 2010448:	f800283a 	ret

0201044c <alt_up_rs232_read_data>:
 201044c:	defffa04 	addi	sp,sp,-24
 2010450:	dfc00515 	stw	ra,20(sp)
 2010454:	df000415 	stw	fp,16(sp)
 2010458:	df000404 	addi	fp,sp,16
 201045c:	e13ffd15 	stw	r4,-12(fp)
 2010460:	e17ffe15 	stw	r5,-8(fp)
 2010464:	e1bfff15 	stw	r6,-4(fp)
 2010468:	e0bffd17 	ldw	r2,-12(fp)
 201046c:	10800a17 	ldw	r2,40(r2)
 2010470:	10800037 	ldwio	r2,0(r2)
 2010474:	e0bffc15 	stw	r2,-16(fp)
 2010478:	e0bffc17 	ldw	r2,-16(fp)
 201047c:	1007883a 	mov	r3,r2
 2010480:	e0bffe17 	ldw	r2,-8(fp)
 2010484:	10c00005 	stb	r3,0(r2)
 2010488:	e13ffc17 	ldw	r4,-16(fp)
 201048c:	20103b40 	call	20103b4 <alt_up_rs232_check_parity>
 2010490:	1007883a 	mov	r3,r2
 2010494:	e0bfff17 	ldw	r2,-4(fp)
 2010498:	10c00005 	stb	r3,0(r2)
 201049c:	e0bffc17 	ldw	r2,-16(fp)
 20104a0:	10a0000c 	andi	r2,r2,32768
 20104a4:	1004d3fa 	srli	r2,r2,15
 20104a8:	10bfffc4 	addi	r2,r2,-1
 20104ac:	e037883a 	mov	sp,fp
 20104b0:	dfc00117 	ldw	ra,4(sp)
 20104b4:	df000017 	ldw	fp,0(sp)
 20104b8:	dec00204 	addi	sp,sp,8
 20104bc:	f800283a 	ret

020104c0 <alt_up_rs232_read_fd>:
 20104c0:	defff804 	addi	sp,sp,-32
 20104c4:	dfc00715 	stw	ra,28(sp)
 20104c8:	df000615 	stw	fp,24(sp)
 20104cc:	df000604 	addi	fp,sp,24
 20104d0:	e13ffd15 	stw	r4,-12(fp)
 20104d4:	e17ffe15 	stw	r5,-8(fp)
 20104d8:	e1bfff15 	stw	r6,-4(fp)
 20104dc:	e0bffd17 	ldw	r2,-12(fp)
 20104e0:	10800017 	ldw	r2,0(r2)
 20104e4:	e0bffb15 	stw	r2,-20(fp)
 20104e8:	e03ffa15 	stw	zero,-24(fp)
 20104ec:	00000c06 	br	2010520 <alt_up_rs232_read_fd+0x60>
 20104f0:	e17ffe17 	ldw	r5,-8(fp)
 20104f4:	e0bffe17 	ldw	r2,-8(fp)
 20104f8:	10800044 	addi	r2,r2,1
 20104fc:	e0bffe15 	stw	r2,-8(fp)
 2010500:	e1bffc04 	addi	r6,fp,-16
 2010504:	e13ffb17 	ldw	r4,-20(fp)
 2010508:	201044c0 	call	201044c <alt_up_rs232_read_data>
 201050c:	1004c03a 	cmpne	r2,r2,zero
 2010510:	1000091e 	bne	r2,zero,2010538 <alt_up_rs232_read_fd+0x78>
 2010514:	e0bffa17 	ldw	r2,-24(fp)
 2010518:	10800044 	addi	r2,r2,1
 201051c:	e0bffa15 	stw	r2,-24(fp)
 2010520:	e0bfff17 	ldw	r2,-4(fp)
 2010524:	10bfffc4 	addi	r2,r2,-1
 2010528:	e0bfff15 	stw	r2,-4(fp)
 201052c:	e0bfff17 	ldw	r2,-4(fp)
 2010530:	10bfffd8 	cmpnei	r2,r2,-1
 2010534:	103fee1e 	bne	r2,zero,20104f0 <alt_up_rs232_read_fd+0x30>
 2010538:	e0bffa17 	ldw	r2,-24(fp)
 201053c:	e037883a 	mov	sp,fp
 2010540:	dfc00117 	ldw	ra,4(sp)
 2010544:	df000017 	ldw	fp,0(sp)
 2010548:	dec00204 	addi	sp,sp,8
 201054c:	f800283a 	ret

02010550 <alt_up_rs232_write_fd>:
 2010550:	defff904 	addi	sp,sp,-28
 2010554:	dfc00615 	stw	ra,24(sp)
 2010558:	df000515 	stw	fp,20(sp)
 201055c:	df000504 	addi	fp,sp,20
 2010560:	e13ffd15 	stw	r4,-12(fp)
 2010564:	e17ffe15 	stw	r5,-8(fp)
 2010568:	e1bfff15 	stw	r6,-4(fp)
 201056c:	e0bffd17 	ldw	r2,-12(fp)
 2010570:	10800017 	ldw	r2,0(r2)
 2010574:	e0bffc15 	stw	r2,-16(fp)
 2010578:	e03ffb15 	stw	zero,-20(fp)
 201057c:	00000d06 	br	20105b4 <alt_up_rs232_write_fd+0x64>
 2010580:	e0bffe17 	ldw	r2,-8(fp)
 2010584:	10800003 	ldbu	r2,0(r2)
 2010588:	11403fcc 	andi	r5,r2,255
 201058c:	e13ffc17 	ldw	r4,-16(fp)
 2010590:	20104040 	call	2010404 <alt_up_rs232_write_data>
 2010594:	1004c03a 	cmpne	r2,r2,zero
 2010598:	10000c1e 	bne	r2,zero,20105cc <alt_up_rs232_write_fd+0x7c>
 201059c:	e0bffb17 	ldw	r2,-20(fp)
 20105a0:	10800044 	addi	r2,r2,1
 20105a4:	e0bffb15 	stw	r2,-20(fp)
 20105a8:	e0bffe17 	ldw	r2,-8(fp)
 20105ac:	10800044 	addi	r2,r2,1
 20105b0:	e0bffe15 	stw	r2,-8(fp)
 20105b4:	e0bfff17 	ldw	r2,-4(fp)
 20105b8:	10bfffc4 	addi	r2,r2,-1
 20105bc:	e0bfff15 	stw	r2,-4(fp)
 20105c0:	e0bfff17 	ldw	r2,-4(fp)
 20105c4:	10bfffd8 	cmpnei	r2,r2,-1
 20105c8:	103fed1e 	bne	r2,zero,2010580 <alt_up_rs232_write_fd+0x30>
 20105cc:	e0bffb17 	ldw	r2,-20(fp)
 20105d0:	e037883a 	mov	sp,fp
 20105d4:	dfc00117 	ldw	ra,4(sp)
 20105d8:	df000017 	ldw	fp,0(sp)
 20105dc:	dec00204 	addi	sp,sp,8
 20105e0:	f800283a 	ret

020105e4 <alt_up_rs232_open_dev>:
 20105e4:	defffc04 	addi	sp,sp,-16
 20105e8:	dfc00315 	stw	ra,12(sp)
 20105ec:	df000215 	stw	fp,8(sp)
 20105f0:	df000204 	addi	fp,sp,8
 20105f4:	e13fff15 	stw	r4,-4(fp)
 20105f8:	e13fff17 	ldw	r4,-4(fp)
 20105fc:	01408074 	movhi	r5,513
 2010600:	2951c504 	addi	r5,r5,18196
 2010604:	201132c0 	call	201132c <alt_find_dev>
 2010608:	e0bffe15 	stw	r2,-8(fp)
 201060c:	e0bffe17 	ldw	r2,-8(fp)
 2010610:	e037883a 	mov	sp,fp
 2010614:	dfc00117 	ldw	ra,4(sp)
 2010618:	df000017 	ldw	fp,0(sp)
 201061c:	dec00204 	addi	sp,sp,8
 2010620:	f800283a 	ret

02010624 <epcs_read_status_register>:
 2010624:	defff904 	addi	sp,sp,-28
 2010628:	dfc00615 	stw	ra,24(sp)
 201062c:	df000515 	stw	fp,20(sp)
 2010630:	df000504 	addi	fp,sp,20
 2010634:	e13fff15 	stw	r4,-4(fp)
 2010638:	00800144 	movi	r2,5
 201063c:	e0bffe05 	stb	r2,-8(fp)
 2010640:	00800044 	movi	r2,1
 2010644:	d8800015 	stw	r2,0(sp)
 2010648:	e0bffe44 	addi	r2,fp,-7
 201064c:	d8800115 	stw	r2,4(sp)
 2010650:	d8000215 	stw	zero,8(sp)
 2010654:	e13fff17 	ldw	r4,-4(fp)
 2010658:	000b883a 	mov	r5,zero
 201065c:	01800044 	movi	r6,1
 2010660:	e1fffe04 	addi	r7,fp,-8
 2010664:	2011b380 	call	2011b38 <alt_avalon_spi_command>
 2010668:	e0bffe43 	ldbu	r2,-7(fp)
 201066c:	10803fcc 	andi	r2,r2,255
 2010670:	e037883a 	mov	sp,fp
 2010674:	dfc00117 	ldw	ra,4(sp)
 2010678:	df000017 	ldw	fp,0(sp)
 201067c:	dec00204 	addi	sp,sp,8
 2010680:	f800283a 	ret

02010684 <epcs_sector_erase>:
 2010684:	defff604 	addi	sp,sp,-40
 2010688:	dfc00915 	stw	ra,36(sp)
 201068c:	df000815 	stw	fp,32(sp)
 2010690:	df000804 	addi	fp,sp,32
 2010694:	e13ffd15 	stw	r4,-12(fp)
 2010698:	e17ffe15 	stw	r5,-8(fp)
 201069c:	e1bfff15 	stw	r6,-4(fp)
 20106a0:	e0bfff17 	ldw	r2,-4(fp)
 20106a4:	1005003a 	cmpeq	r2,r2,zero
 20106a8:	1000121e 	bne	r2,zero,20106f4 <epcs_sector_erase+0x70>
 20106ac:	00bff604 	movi	r2,-40
 20106b0:	e0bffb45 	stb	r2,-19(fp)
 20106b4:	e0bffe17 	ldw	r2,-8(fp)
 20106b8:	1004d63a 	srli	r2,r2,24
 20106bc:	e0bffb85 	stb	r2,-18(fp)
 20106c0:	e0bffe17 	ldw	r2,-8(fp)
 20106c4:	1004d43a 	srli	r2,r2,16
 20106c8:	e0bffbc5 	stb	r2,-17(fp)
 20106cc:	e0bffe17 	ldw	r2,-8(fp)
 20106d0:	1004d23a 	srli	r2,r2,8
 20106d4:	e0bffc05 	stb	r2,-16(fp)
 20106d8:	e0bffe17 	ldw	r2,-8(fp)
 20106dc:	e0bffc45 	stb	r2,-15(fp)
 20106e0:	00800144 	movi	r2,5
 20106e4:	e0bffb05 	stb	r2,-20(fp)
 20106e8:	e13ffd17 	ldw	r4,-12(fp)
 20106ec:	2010c480 	call	2010c48 <epcs_enter_4_bytes_mode>
 20106f0:	00000c06 	br	2010724 <epcs_sector_erase+0xa0>
 20106f4:	00bff604 	movi	r2,-40
 20106f8:	e0bffb45 	stb	r2,-19(fp)
 20106fc:	e0bffe17 	ldw	r2,-8(fp)
 2010700:	1004d43a 	srli	r2,r2,16
 2010704:	e0bffb85 	stb	r2,-18(fp)
 2010708:	e0bffe17 	ldw	r2,-8(fp)
 201070c:	1004d23a 	srli	r2,r2,8
 2010710:	e0bffbc5 	stb	r2,-17(fp)
 2010714:	e0bffe17 	ldw	r2,-8(fp)
 2010718:	e0bffc05 	stb	r2,-16(fp)
 201071c:	00800104 	movi	r2,4
 2010720:	e0bffb05 	stb	r2,-20(fp)
 2010724:	e13ffd17 	ldw	r4,-12(fp)
 2010728:	20109380 	call	2010938 <epcs_write_enable>
 201072c:	e1bffb03 	ldbu	r6,-20(fp)
 2010730:	e1fffb44 	addi	r7,fp,-19
 2010734:	d8000015 	stw	zero,0(sp)
 2010738:	d8000115 	stw	zero,4(sp)
 201073c:	d8000215 	stw	zero,8(sp)
 2010740:	e13ffd17 	ldw	r4,-12(fp)
 2010744:	000b883a 	mov	r5,zero
 2010748:	2011b380 	call	2011b38 <alt_avalon_spi_command>
 201074c:	e13ffd17 	ldw	r4,-12(fp)
 2010750:	201077c0 	call	201077c <epcs_await_wip_released>
 2010754:	e0bfff17 	ldw	r2,-4(fp)
 2010758:	1005003a 	cmpeq	r2,r2,zero
 201075c:	1000021e 	bne	r2,zero,2010768 <epcs_sector_erase+0xe4>
 2010760:	e13ffd17 	ldw	r4,-12(fp)
 2010764:	2010ca00 	call	2010ca0 <epcs_exit_4_bytes_mode>
 2010768:	e037883a 	mov	sp,fp
 201076c:	dfc00117 	ldw	ra,4(sp)
 2010770:	df000017 	ldw	fp,0(sp)
 2010774:	dec00204 	addi	sp,sp,8
 2010778:	f800283a 	ret

0201077c <epcs_await_wip_released>:
 201077c:	defffd04 	addi	sp,sp,-12
 2010780:	dfc00215 	stw	ra,8(sp)
 2010784:	df000115 	stw	fp,4(sp)
 2010788:	df000104 	addi	fp,sp,4
 201078c:	e13fff15 	stw	r4,-4(fp)
 2010790:	e13fff17 	ldw	r4,-4(fp)
 2010794:	20107b40 	call	20107b4 <epcs_test_wip>
 2010798:	1004c03a 	cmpne	r2,r2,zero
 201079c:	103ffc1e 	bne	r2,zero,2010790 <epcs_await_wip_released+0x14>
 20107a0:	e037883a 	mov	sp,fp
 20107a4:	dfc00117 	ldw	ra,4(sp)
 20107a8:	df000017 	ldw	fp,0(sp)
 20107ac:	dec00204 	addi	sp,sp,8
 20107b0:	f800283a 	ret

020107b4 <epcs_test_wip>:
 20107b4:	defffd04 	addi	sp,sp,-12
 20107b8:	dfc00215 	stw	ra,8(sp)
 20107bc:	df000115 	stw	fp,4(sp)
 20107c0:	df000104 	addi	fp,sp,4
 20107c4:	e13fff15 	stw	r4,-4(fp)
 20107c8:	e13fff17 	ldw	r4,-4(fp)
 20107cc:	20106240 	call	2010624 <epcs_read_status_register>
 20107d0:	10803fcc 	andi	r2,r2,255
 20107d4:	1080004c 	andi	r2,r2,1
 20107d8:	e037883a 	mov	sp,fp
 20107dc:	dfc00117 	ldw	ra,4(sp)
 20107e0:	df000017 	ldw	fp,0(sp)
 20107e4:	dec00204 	addi	sp,sp,8
 20107e8:	f800283a 	ret

020107ec <epcs_read_buffer>:
 20107ec:	defff404 	addi	sp,sp,-48
 20107f0:	dfc00b15 	stw	ra,44(sp)
 20107f4:	df000a15 	stw	fp,40(sp)
 20107f8:	df000a04 	addi	fp,sp,40
 20107fc:	e13ffc15 	stw	r4,-16(fp)
 2010800:	e17ffd15 	stw	r5,-12(fp)
 2010804:	e1bffe15 	stw	r6,-8(fp)
 2010808:	e1ffff15 	stw	r7,-4(fp)
 201080c:	008000c4 	movi	r2,3
 2010810:	e0bffa05 	stb	r2,-24(fp)
 2010814:	e0800217 	ldw	r2,8(fp)
 2010818:	1005003a 	cmpeq	r2,r2,zero
 201081c:	10001c1e 	bne	r2,zero,2010890 <epcs_read_buffer+0xa4>
 2010820:	e0bffd17 	ldw	r2,-12(fp)
 2010824:	1005d63a 	srai	r2,r2,24
 2010828:	1007883a 	mov	r3,r2
 201082c:	00bfffc4 	movi	r2,-1
 2010830:	1884703a 	and	r2,r3,r2
 2010834:	e0bffa45 	stb	r2,-23(fp)
 2010838:	e0bffd17 	ldw	r2,-12(fp)
 201083c:	1005d43a 	srai	r2,r2,16
 2010840:	1007883a 	mov	r3,r2
 2010844:	00bfffc4 	movi	r2,-1
 2010848:	1884703a 	and	r2,r3,r2
 201084c:	e0bffa85 	stb	r2,-22(fp)
 2010850:	e0bffd17 	ldw	r2,-12(fp)
 2010854:	1005d23a 	srai	r2,r2,8
 2010858:	1007883a 	mov	r3,r2
 201085c:	00bfffc4 	movi	r2,-1
 2010860:	1884703a 	and	r2,r3,r2
 2010864:	e0bffac5 	stb	r2,-21(fp)
 2010868:	e0bffd17 	ldw	r2,-12(fp)
 201086c:	1007883a 	mov	r3,r2
 2010870:	00bfffc4 	movi	r2,-1
 2010874:	1884703a 	and	r2,r3,r2
 2010878:	e0bffb05 	stb	r2,-20(fp)
 201087c:	00800144 	movi	r2,5
 2010880:	e0bff915 	stw	r2,-28(fp)
 2010884:	e13ffc17 	ldw	r4,-16(fp)
 2010888:	2010c480 	call	2010c48 <epcs_enter_4_bytes_mode>
 201088c:	00001306 	br	20108dc <epcs_read_buffer+0xf0>
 2010890:	e0bffd17 	ldw	r2,-12(fp)
 2010894:	1005d43a 	srai	r2,r2,16
 2010898:	1007883a 	mov	r3,r2
 201089c:	00bfffc4 	movi	r2,-1
 20108a0:	1884703a 	and	r2,r3,r2
 20108a4:	e0bffa45 	stb	r2,-23(fp)
 20108a8:	e0bffd17 	ldw	r2,-12(fp)
 20108ac:	1005d23a 	srai	r2,r2,8
 20108b0:	1007883a 	mov	r3,r2
 20108b4:	00bfffc4 	movi	r2,-1
 20108b8:	1884703a 	and	r2,r3,r2
 20108bc:	e0bffa85 	stb	r2,-22(fp)
 20108c0:	e0bffd17 	ldw	r2,-12(fp)
 20108c4:	1007883a 	mov	r3,r2
 20108c8:	00bfffc4 	movi	r2,-1
 20108cc:	1884703a 	and	r2,r3,r2
 20108d0:	e0bffac5 	stb	r2,-21(fp)
 20108d4:	00800104 	movi	r2,4
 20108d8:	e0bff915 	stw	r2,-28(fp)
 20108dc:	e13ffc17 	ldw	r4,-16(fp)
 20108e0:	201077c0 	call	201077c <epcs_await_wip_released>
 20108e4:	e0bfff17 	ldw	r2,-4(fp)
 20108e8:	e1fffa04 	addi	r7,fp,-24
 20108ec:	d8800015 	stw	r2,0(sp)
 20108f0:	e0bffe17 	ldw	r2,-8(fp)
 20108f4:	d8800115 	stw	r2,4(sp)
 20108f8:	d8000215 	stw	zero,8(sp)
 20108fc:	e13ffc17 	ldw	r4,-16(fp)
 2010900:	000b883a 	mov	r5,zero
 2010904:	e1bff917 	ldw	r6,-28(fp)
 2010908:	2011b380 	call	2011b38 <alt_avalon_spi_command>
 201090c:	e0800217 	ldw	r2,8(fp)
 2010910:	1005003a 	cmpeq	r2,r2,zero
 2010914:	1000021e 	bne	r2,zero,2010920 <epcs_read_buffer+0x134>
 2010918:	e13ffc17 	ldw	r4,-16(fp)
 201091c:	2010ca00 	call	2010ca0 <epcs_exit_4_bytes_mode>
 2010920:	e0bfff17 	ldw	r2,-4(fp)
 2010924:	e037883a 	mov	sp,fp
 2010928:	dfc00117 	ldw	ra,4(sp)
 201092c:	df000017 	ldw	fp,0(sp)
 2010930:	dec00204 	addi	sp,sp,8
 2010934:	f800283a 	ret

02010938 <epcs_write_enable>:
 2010938:	defff904 	addi	sp,sp,-28
 201093c:	dfc00615 	stw	ra,24(sp)
 2010940:	df000515 	stw	fp,20(sp)
 2010944:	df000504 	addi	fp,sp,20
 2010948:	e13fff15 	stw	r4,-4(fp)
 201094c:	00800184 	movi	r2,6
 2010950:	e0bffe05 	stb	r2,-8(fp)
 2010954:	d8000015 	stw	zero,0(sp)
 2010958:	d8000115 	stw	zero,4(sp)
 201095c:	d8000215 	stw	zero,8(sp)
 2010960:	e13fff17 	ldw	r4,-4(fp)
 2010964:	000b883a 	mov	r5,zero
 2010968:	01800044 	movi	r6,1
 201096c:	e1fffe04 	addi	r7,fp,-8
 2010970:	2011b380 	call	2011b38 <alt_avalon_spi_command>
 2010974:	e037883a 	mov	sp,fp
 2010978:	dfc00117 	ldw	ra,4(sp)
 201097c:	df000017 	ldw	fp,0(sp)
 2010980:	dec00204 	addi	sp,sp,8
 2010984:	f800283a 	ret

02010988 <epcs_write_status_register>:
 2010988:	defff804 	addi	sp,sp,-32
 201098c:	dfc00715 	stw	ra,28(sp)
 2010990:	df000615 	stw	fp,24(sp)
 2010994:	df000604 	addi	fp,sp,24
 2010998:	e13ffe15 	stw	r4,-8(fp)
 201099c:	e17fff05 	stb	r5,-4(fp)
 20109a0:	00800044 	movi	r2,1
 20109a4:	e0bffd05 	stb	r2,-12(fp)
 20109a8:	e0bfff03 	ldbu	r2,-4(fp)
 20109ac:	e0bffd45 	stb	r2,-11(fp)
 20109b0:	d8000015 	stw	zero,0(sp)
 20109b4:	d8000115 	stw	zero,4(sp)
 20109b8:	d8000215 	stw	zero,8(sp)
 20109bc:	e13ffe17 	ldw	r4,-8(fp)
 20109c0:	000b883a 	mov	r5,zero
 20109c4:	01800084 	movi	r6,2
 20109c8:	e1fffd04 	addi	r7,fp,-12
 20109cc:	2011b380 	call	2011b38 <alt_avalon_spi_command>
 20109d0:	e13ffe17 	ldw	r4,-8(fp)
 20109d4:	201077c0 	call	201077c <epcs_await_wip_released>
 20109d8:	e037883a 	mov	sp,fp
 20109dc:	dfc00117 	ldw	ra,4(sp)
 20109e0:	df000017 	ldw	fp,0(sp)
 20109e4:	dec00204 	addi	sp,sp,8
 20109e8:	f800283a 	ret

020109ec <epcs_write_buffer>:
 20109ec:	defff404 	addi	sp,sp,-48
 20109f0:	dfc00b15 	stw	ra,44(sp)
 20109f4:	df000a15 	stw	fp,40(sp)
 20109f8:	df000a04 	addi	fp,sp,40
 20109fc:	e13ffc15 	stw	r4,-16(fp)
 2010a00:	e17ffd15 	stw	r5,-12(fp)
 2010a04:	e1bffe15 	stw	r6,-8(fp)
 2010a08:	e1ffff15 	stw	r7,-4(fp)
 2010a0c:	00800084 	movi	r2,2
 2010a10:	e0bffa05 	stb	r2,-24(fp)
 2010a14:	e0800217 	ldw	r2,8(fp)
 2010a18:	1005003a 	cmpeq	r2,r2,zero
 2010a1c:	10001c1e 	bne	r2,zero,2010a90 <epcs_write_buffer+0xa4>
 2010a20:	e0bffd17 	ldw	r2,-12(fp)
 2010a24:	1005d63a 	srai	r2,r2,24
 2010a28:	1007883a 	mov	r3,r2
 2010a2c:	00bfffc4 	movi	r2,-1
 2010a30:	1884703a 	and	r2,r3,r2
 2010a34:	e0bffa45 	stb	r2,-23(fp)
 2010a38:	e0bffd17 	ldw	r2,-12(fp)
 2010a3c:	1005d43a 	srai	r2,r2,16
 2010a40:	1007883a 	mov	r3,r2
 2010a44:	00bfffc4 	movi	r2,-1
 2010a48:	1884703a 	and	r2,r3,r2
 2010a4c:	e0bffa85 	stb	r2,-22(fp)
 2010a50:	e0bffd17 	ldw	r2,-12(fp)
 2010a54:	1005d23a 	srai	r2,r2,8
 2010a58:	1007883a 	mov	r3,r2
 2010a5c:	00bfffc4 	movi	r2,-1
 2010a60:	1884703a 	and	r2,r3,r2
 2010a64:	e0bffac5 	stb	r2,-21(fp)
 2010a68:	e0bffd17 	ldw	r2,-12(fp)
 2010a6c:	1007883a 	mov	r3,r2
 2010a70:	00bfffc4 	movi	r2,-1
 2010a74:	1884703a 	and	r2,r3,r2
 2010a78:	e0bffb05 	stb	r2,-20(fp)
 2010a7c:	00800144 	movi	r2,5
 2010a80:	e0bff915 	stw	r2,-28(fp)
 2010a84:	e13ffc17 	ldw	r4,-16(fp)
 2010a88:	2010c480 	call	2010c48 <epcs_enter_4_bytes_mode>
 2010a8c:	00001306 	br	2010adc <epcs_write_buffer+0xf0>
 2010a90:	e0bffd17 	ldw	r2,-12(fp)
 2010a94:	1005d43a 	srai	r2,r2,16
 2010a98:	1007883a 	mov	r3,r2
 2010a9c:	00bfffc4 	movi	r2,-1
 2010aa0:	1884703a 	and	r2,r3,r2
 2010aa4:	e0bffa45 	stb	r2,-23(fp)
 2010aa8:	e0bffd17 	ldw	r2,-12(fp)
 2010aac:	1005d23a 	srai	r2,r2,8
 2010ab0:	1007883a 	mov	r3,r2
 2010ab4:	00bfffc4 	movi	r2,-1
 2010ab8:	1884703a 	and	r2,r3,r2
 2010abc:	e0bffa85 	stb	r2,-22(fp)
 2010ac0:	e0bffd17 	ldw	r2,-12(fp)
 2010ac4:	1007883a 	mov	r3,r2
 2010ac8:	00bfffc4 	movi	r2,-1
 2010acc:	1884703a 	and	r2,r3,r2
 2010ad0:	e0bffac5 	stb	r2,-21(fp)
 2010ad4:	00800104 	movi	r2,4
 2010ad8:	e0bff915 	stw	r2,-28(fp)
 2010adc:	e13ffc17 	ldw	r4,-16(fp)
 2010ae0:	20109380 	call	2010938 <epcs_write_enable>
 2010ae4:	e1fffa04 	addi	r7,fp,-24
 2010ae8:	d8000015 	stw	zero,0(sp)
 2010aec:	d8000115 	stw	zero,4(sp)
 2010af0:	00800044 	movi	r2,1
 2010af4:	d8800215 	stw	r2,8(sp)
 2010af8:	e13ffc17 	ldw	r4,-16(fp)
 2010afc:	000b883a 	mov	r5,zero
 2010b00:	e1bff917 	ldw	r6,-28(fp)
 2010b04:	2011b380 	call	2011b38 <alt_avalon_spi_command>
 2010b08:	e1bfff17 	ldw	r6,-4(fp)
 2010b0c:	d8000015 	stw	zero,0(sp)
 2010b10:	d8000115 	stw	zero,4(sp)
 2010b14:	d8000215 	stw	zero,8(sp)
 2010b18:	e13ffc17 	ldw	r4,-16(fp)
 2010b1c:	000b883a 	mov	r5,zero
 2010b20:	e1fffe17 	ldw	r7,-8(fp)
 2010b24:	2011b380 	call	2011b38 <alt_avalon_spi_command>
 2010b28:	e13ffc17 	ldw	r4,-16(fp)
 2010b2c:	201077c0 	call	201077c <epcs_await_wip_released>
 2010b30:	e0800217 	ldw	r2,8(fp)
 2010b34:	1005003a 	cmpeq	r2,r2,zero
 2010b38:	1000021e 	bne	r2,zero,2010b44 <epcs_write_buffer+0x158>
 2010b3c:	e13ffc17 	ldw	r4,-16(fp)
 2010b40:	2010ca00 	call	2010ca0 <epcs_exit_4_bytes_mode>
 2010b44:	e0bfff17 	ldw	r2,-4(fp)
 2010b48:	e037883a 	mov	sp,fp
 2010b4c:	dfc00117 	ldw	ra,4(sp)
 2010b50:	df000017 	ldw	fp,0(sp)
 2010b54:	dec00204 	addi	sp,sp,8
 2010b58:	f800283a 	ret

02010b5c <epcs_read_electronic_signature>:
 2010b5c:	defff804 	addi	sp,sp,-32
 2010b60:	dfc00715 	stw	ra,28(sp)
 2010b64:	df000615 	stw	fp,24(sp)
 2010b68:	df000604 	addi	fp,sp,24
 2010b6c:	e13fff15 	stw	r4,-4(fp)
 2010b70:	00bfeac4 	movi	r2,-85
 2010b74:	e0bffd05 	stb	r2,-12(fp)
 2010b78:	e03ffd45 	stb	zero,-11(fp)
 2010b7c:	e03ffd85 	stb	zero,-10(fp)
 2010b80:	e03ffdc5 	stb	zero,-9(fp)
 2010b84:	00800044 	movi	r2,1
 2010b88:	d8800015 	stw	r2,0(sp)
 2010b8c:	e0bffe04 	addi	r2,fp,-8
 2010b90:	d8800115 	stw	r2,4(sp)
 2010b94:	d8000215 	stw	zero,8(sp)
 2010b98:	e13fff17 	ldw	r4,-4(fp)
 2010b9c:	000b883a 	mov	r5,zero
 2010ba0:	01800104 	movi	r6,4
 2010ba4:	e1fffd04 	addi	r7,fp,-12
 2010ba8:	2011b380 	call	2011b38 <alt_avalon_spi_command>
 2010bac:	e0bffe03 	ldbu	r2,-8(fp)
 2010bb0:	10803fcc 	andi	r2,r2,255
 2010bb4:	e037883a 	mov	sp,fp
 2010bb8:	dfc00117 	ldw	ra,4(sp)
 2010bbc:	df000017 	ldw	fp,0(sp)
 2010bc0:	dec00204 	addi	sp,sp,8
 2010bc4:	f800283a 	ret

02010bc8 <epcs_read_device_id>:
 2010bc8:	defff904 	addi	sp,sp,-28
 2010bcc:	dfc00615 	stw	ra,24(sp)
 2010bd0:	df000515 	stw	fp,20(sp)
 2010bd4:	df000504 	addi	fp,sp,20
 2010bd8:	e13fff15 	stw	r4,-4(fp)
 2010bdc:	00bfe7c4 	movi	r2,-97
 2010be0:	e0bffe05 	stb	r2,-8(fp)
 2010be4:	008000c4 	movi	r2,3
 2010be8:	d8800015 	stw	r2,0(sp)
 2010bec:	e0bffe44 	addi	r2,fp,-7
 2010bf0:	d8800115 	stw	r2,4(sp)
 2010bf4:	d8000215 	stw	zero,8(sp)
 2010bf8:	e13fff17 	ldw	r4,-4(fp)
 2010bfc:	000b883a 	mov	r5,zero
 2010c00:	01800044 	movi	r6,1
 2010c04:	e1fffe04 	addi	r7,fp,-8
 2010c08:	2011b380 	call	2011b38 <alt_avalon_spi_command>
 2010c0c:	e0bffe43 	ldbu	r2,-7(fp)
 2010c10:	10803fcc 	andi	r2,r2,255
 2010c14:	1006943a 	slli	r3,r2,16
 2010c18:	e0bffe83 	ldbu	r2,-6(fp)
 2010c1c:	10803fcc 	andi	r2,r2,255
 2010c20:	1004923a 	slli	r2,r2,8
 2010c24:	1886b03a 	or	r3,r3,r2
 2010c28:	e0bffec3 	ldbu	r2,-5(fp)
 2010c2c:	10803fcc 	andi	r2,r2,255
 2010c30:	1884b03a 	or	r2,r3,r2
 2010c34:	e037883a 	mov	sp,fp
 2010c38:	dfc00117 	ldw	ra,4(sp)
 2010c3c:	df000017 	ldw	fp,0(sp)
 2010c40:	dec00204 	addi	sp,sp,8
 2010c44:	f800283a 	ret

02010c48 <epcs_enter_4_bytes_mode>:
 2010c48:	defff904 	addi	sp,sp,-28
 2010c4c:	dfc00615 	stw	ra,24(sp)
 2010c50:	df000515 	stw	fp,20(sp)
 2010c54:	df000504 	addi	fp,sp,20
 2010c58:	e13fff15 	stw	r4,-4(fp)
 2010c5c:	00bfedc4 	movi	r2,-73
 2010c60:	e0bffe05 	stb	r2,-8(fp)
 2010c64:	e13fff17 	ldw	r4,-4(fp)
 2010c68:	20109380 	call	2010938 <epcs_write_enable>
 2010c6c:	d8000015 	stw	zero,0(sp)
 2010c70:	d8000115 	stw	zero,4(sp)
 2010c74:	d8000215 	stw	zero,8(sp)
 2010c78:	e13fff17 	ldw	r4,-4(fp)
 2010c7c:	000b883a 	mov	r5,zero
 2010c80:	01800044 	movi	r6,1
 2010c84:	e1fffe04 	addi	r7,fp,-8
 2010c88:	2011b380 	call	2011b38 <alt_avalon_spi_command>
 2010c8c:	e037883a 	mov	sp,fp
 2010c90:	dfc00117 	ldw	ra,4(sp)
 2010c94:	df000017 	ldw	fp,0(sp)
 2010c98:	dec00204 	addi	sp,sp,8
 2010c9c:	f800283a 	ret

02010ca0 <epcs_exit_4_bytes_mode>:
 2010ca0:	defff904 	addi	sp,sp,-28
 2010ca4:	dfc00615 	stw	ra,24(sp)
 2010ca8:	df000515 	stw	fp,20(sp)
 2010cac:	df000504 	addi	fp,sp,20
 2010cb0:	e13fff15 	stw	r4,-4(fp)
 2010cb4:	00bffa44 	movi	r2,-23
 2010cb8:	e0bffe05 	stb	r2,-8(fp)
 2010cbc:	e13fff17 	ldw	r4,-4(fp)
 2010cc0:	20109380 	call	2010938 <epcs_write_enable>
 2010cc4:	d8000015 	stw	zero,0(sp)
 2010cc8:	d8000115 	stw	zero,4(sp)
 2010ccc:	d8000215 	stw	zero,8(sp)
 2010cd0:	e13fff17 	ldw	r4,-4(fp)
 2010cd4:	000b883a 	mov	r5,zero
 2010cd8:	01800044 	movi	r6,1
 2010cdc:	e1fffe04 	addi	r7,fp,-8
 2010ce0:	2011b380 	call	2011b38 <alt_avalon_spi_command>
 2010ce4:	e037883a 	mov	sp,fp
 2010ce8:	dfc00117 	ldw	ra,4(sp)
 2010cec:	df000017 	ldw	fp,0(sp)
 2010cf0:	dec00204 	addi	sp,sp,8
 2010cf4:	f800283a 	ret

02010cf8 <alt_alarm_start>:
 2010cf8:	defff404 	addi	sp,sp,-48
 2010cfc:	df000b15 	stw	fp,44(sp)
 2010d00:	df000b04 	addi	fp,sp,44
 2010d04:	e13ffb15 	stw	r4,-20(fp)
 2010d08:	e17ffc15 	stw	r5,-16(fp)
 2010d0c:	e1bffd15 	stw	r6,-12(fp)
 2010d10:	e1fffe15 	stw	r7,-8(fp)
 2010d14:	e03ff915 	stw	zero,-28(fp)
 2010d18:	00808074 	movhi	r2,513
 2010d1c:	1098be04 	addi	r2,r2,25336
 2010d20:	10800017 	ldw	r2,0(r2)
 2010d24:	1005003a 	cmpeq	r2,r2,zero
 2010d28:	1000411e 	bne	r2,zero,2010e30 <alt_alarm_start+0x138>
 2010d2c:	e0bffb17 	ldw	r2,-20(fp)
 2010d30:	1005003a 	cmpeq	r2,r2,zero
 2010d34:	10003b1e 	bne	r2,zero,2010e24 <alt_alarm_start+0x12c>
 2010d38:	e0fffb17 	ldw	r3,-20(fp)
 2010d3c:	e0bffd17 	ldw	r2,-12(fp)
 2010d40:	18800315 	stw	r2,12(r3)
 2010d44:	e0fffb17 	ldw	r3,-20(fp)
 2010d48:	e0bffe17 	ldw	r2,-8(fp)
 2010d4c:	18800515 	stw	r2,20(r3)
 2010d50:	0005303a 	rdctl	r2,status
 2010d54:	e0bff815 	stw	r2,-32(fp)
 2010d58:	e0fff817 	ldw	r3,-32(fp)
 2010d5c:	00bfff84 	movi	r2,-2
 2010d60:	1884703a 	and	r2,r3,r2
 2010d64:	1001703a 	wrctl	status,r2
 2010d68:	e0bff817 	ldw	r2,-32(fp)
 2010d6c:	e0bffa15 	stw	r2,-24(fp)
 2010d70:	00808074 	movhi	r2,513
 2010d74:	1098bf04 	addi	r2,r2,25340
 2010d78:	10800017 	ldw	r2,0(r2)
 2010d7c:	e0bff915 	stw	r2,-28(fp)
 2010d80:	e0fffc17 	ldw	r3,-16(fp)
 2010d84:	e0bff917 	ldw	r2,-28(fp)
 2010d88:	1885883a 	add	r2,r3,r2
 2010d8c:	10c00044 	addi	r3,r2,1
 2010d90:	e0bffb17 	ldw	r2,-20(fp)
 2010d94:	10c00215 	stw	r3,8(r2)
 2010d98:	e0bffb17 	ldw	r2,-20(fp)
 2010d9c:	10c00217 	ldw	r3,8(r2)
 2010da0:	e0bff917 	ldw	r2,-28(fp)
 2010da4:	1880042e 	bgeu	r3,r2,2010db8 <alt_alarm_start+0xc0>
 2010da8:	e0fffb17 	ldw	r3,-20(fp)
 2010dac:	00800044 	movi	r2,1
 2010db0:	18800405 	stb	r2,16(r3)
 2010db4:	00000206 	br	2010dc0 <alt_alarm_start+0xc8>
 2010db8:	e0bffb17 	ldw	r2,-20(fp)
 2010dbc:	10000405 	stb	zero,16(r2)
 2010dc0:	e0fffb17 	ldw	r3,-20(fp)
 2010dc4:	00808074 	movhi	r2,513
 2010dc8:	1091c104 	addi	r2,r2,18180
 2010dcc:	e0bff615 	stw	r2,-40(fp)
 2010dd0:	e0fff715 	stw	r3,-36(fp)
 2010dd4:	e0fff717 	ldw	r3,-36(fp)
 2010dd8:	e0bff617 	ldw	r2,-40(fp)
 2010ddc:	18800115 	stw	r2,4(r3)
 2010de0:	e0bff617 	ldw	r2,-40(fp)
 2010de4:	10c00017 	ldw	r3,0(r2)
 2010de8:	e0bff717 	ldw	r2,-36(fp)
 2010dec:	10c00015 	stw	r3,0(r2)
 2010df0:	e0bff617 	ldw	r2,-40(fp)
 2010df4:	10c00017 	ldw	r3,0(r2)
 2010df8:	e0bff717 	ldw	r2,-36(fp)
 2010dfc:	18800115 	stw	r2,4(r3)
 2010e00:	e0fff617 	ldw	r3,-40(fp)
 2010e04:	e0bff717 	ldw	r2,-36(fp)
 2010e08:	18800015 	stw	r2,0(r3)
 2010e0c:	e0bffa17 	ldw	r2,-24(fp)
 2010e10:	e0bff515 	stw	r2,-44(fp)
 2010e14:	e0bff517 	ldw	r2,-44(fp)
 2010e18:	1001703a 	wrctl	status,r2
 2010e1c:	e03fff15 	stw	zero,-4(fp)
 2010e20:	00000506 	br	2010e38 <alt_alarm_start+0x140>
 2010e24:	00bffa84 	movi	r2,-22
 2010e28:	e0bfff15 	stw	r2,-4(fp)
 2010e2c:	00000206 	br	2010e38 <alt_alarm_start+0x140>
 2010e30:	00bfde84 	movi	r2,-134
 2010e34:	e0bfff15 	stw	r2,-4(fp)
 2010e38:	e0bfff17 	ldw	r2,-4(fp)
 2010e3c:	e037883a 	mov	sp,fp
 2010e40:	df000017 	ldw	fp,0(sp)
 2010e44:	dec00104 	addi	sp,sp,4
 2010e48:	f800283a 	ret

02010e4c <alt_busy_sleep>:
 2010e4c:	defffa04 	addi	sp,sp,-24
 2010e50:	dfc00515 	stw	ra,20(sp)
 2010e54:	df000415 	stw	fp,16(sp)
 2010e58:	df000404 	addi	fp,sp,16
 2010e5c:	e13fff15 	stw	r4,-4(fp)
 2010e60:	00800244 	movi	r2,9
 2010e64:	e0bffc15 	stw	r2,-16(fp)
 2010e68:	e13ffc17 	ldw	r4,-16(fp)
 2010e6c:	014003f4 	movhi	r5,15
 2010e70:	29509004 	addi	r5,r5,16960
 2010e74:	200d0480 	call	200d048 <__mulsi3>
 2010e78:	100b883a 	mov	r5,r2
 2010e7c:	01017db4 	movhi	r4,1526
 2010e80:	21384004 	addi	r4,r4,-7936
 2010e84:	200d0380 	call	200d038 <__udivsi3>
 2010e88:	100b883a 	mov	r5,r2
 2010e8c:	01200034 	movhi	r4,32768
 2010e90:	213fffc4 	addi	r4,r4,-1
 2010e94:	200d0380 	call	200d038 <__udivsi3>
 2010e98:	100b883a 	mov	r5,r2
 2010e9c:	e13fff17 	ldw	r4,-4(fp)
 2010ea0:	200d0380 	call	200d038 <__udivsi3>
 2010ea4:	e0bffd15 	stw	r2,-12(fp)
 2010ea8:	e0bffd17 	ldw	r2,-12(fp)
 2010eac:	1005003a 	cmpeq	r2,r2,zero
 2010eb0:	10002a1e 	bne	r2,zero,2010f5c <alt_busy_sleep+0x110>
 2010eb4:	e03ffe15 	stw	zero,-8(fp)
 2010eb8:	00001706 	br	2010f18 <alt_busy_sleep+0xcc>
 2010ebc:	00a00034 	movhi	r2,32768
 2010ec0:	10bfffc4 	addi	r2,r2,-1
 2010ec4:	10bfffc4 	addi	r2,r2,-1
 2010ec8:	103ffe1e 	bne	r2,zero,2010ec4 <alt_busy_sleep+0x78>
 2010ecc:	e13ffc17 	ldw	r4,-16(fp)
 2010ed0:	014003f4 	movhi	r5,15
 2010ed4:	29509004 	addi	r5,r5,16960
 2010ed8:	200d0480 	call	200d048 <__mulsi3>
 2010edc:	100b883a 	mov	r5,r2
 2010ee0:	01017db4 	movhi	r4,1526
 2010ee4:	21384004 	addi	r4,r4,-7936
 2010ee8:	200d0380 	call	200d038 <__udivsi3>
 2010eec:	100b883a 	mov	r5,r2
 2010ef0:	01200034 	movhi	r4,32768
 2010ef4:	213fffc4 	addi	r4,r4,-1
 2010ef8:	200d0380 	call	200d038 <__udivsi3>
 2010efc:	1007883a 	mov	r3,r2
 2010f00:	e0bfff17 	ldw	r2,-4(fp)
 2010f04:	10c5c83a 	sub	r2,r2,r3
 2010f08:	e0bfff15 	stw	r2,-4(fp)
 2010f0c:	e0bffe17 	ldw	r2,-8(fp)
 2010f10:	10800044 	addi	r2,r2,1
 2010f14:	e0bffe15 	stw	r2,-8(fp)
 2010f18:	e0fffe17 	ldw	r3,-8(fp)
 2010f1c:	e0bffd17 	ldw	r2,-12(fp)
 2010f20:	18bfe616 	blt	r3,r2,2010ebc <alt_busy_sleep+0x70>
 2010f24:	e13ffc17 	ldw	r4,-16(fp)
 2010f28:	014003f4 	movhi	r5,15
 2010f2c:	29509004 	addi	r5,r5,16960
 2010f30:	200d0480 	call	200d048 <__mulsi3>
 2010f34:	100b883a 	mov	r5,r2
 2010f38:	01017db4 	movhi	r4,1526
 2010f3c:	21384004 	addi	r4,r4,-7936
 2010f40:	200d0380 	call	200d038 <__udivsi3>
 2010f44:	1009883a 	mov	r4,r2
 2010f48:	e17fff17 	ldw	r5,-4(fp)
 2010f4c:	200d0480 	call	200d048 <__mulsi3>
 2010f50:	10bfffc4 	addi	r2,r2,-1
 2010f54:	103ffe1e 	bne	r2,zero,2010f50 <alt_busy_sleep+0x104>
 2010f58:	00000d06 	br	2010f90 <alt_busy_sleep+0x144>
 2010f5c:	e13ffc17 	ldw	r4,-16(fp)
 2010f60:	014003f4 	movhi	r5,15
 2010f64:	29509004 	addi	r5,r5,16960
 2010f68:	200d0480 	call	200d048 <__mulsi3>
 2010f6c:	100b883a 	mov	r5,r2
 2010f70:	01017db4 	movhi	r4,1526
 2010f74:	21384004 	addi	r4,r4,-7936
 2010f78:	200d0380 	call	200d038 <__udivsi3>
 2010f7c:	1009883a 	mov	r4,r2
 2010f80:	e17fff17 	ldw	r5,-4(fp)
 2010f84:	200d0480 	call	200d048 <__mulsi3>
 2010f88:	10bfffc4 	addi	r2,r2,-1
 2010f8c:	00bffe16 	blt	zero,r2,2010f88 <alt_busy_sleep+0x13c>
 2010f90:	0005883a 	mov	r2,zero
 2010f94:	e037883a 	mov	sp,fp
 2010f98:	dfc00117 	ldw	ra,4(sp)
 2010f9c:	df000017 	ldw	fp,0(sp)
 2010fa0:	dec00204 	addi	sp,sp,8
 2010fa4:	f800283a 	ret

02010fa8 <close>:
 2010fa8:	defff804 	addi	sp,sp,-32
 2010fac:	dfc00715 	stw	ra,28(sp)
 2010fb0:	df000615 	stw	fp,24(sp)
 2010fb4:	df000604 	addi	fp,sp,24
 2010fb8:	e13ffc15 	stw	r4,-16(fp)
 2010fbc:	e0bffc17 	ldw	r2,-16(fp)
 2010fc0:	1004803a 	cmplt	r2,r2,zero
 2010fc4:	1000091e 	bne	r2,zero,2010fec <close+0x44>
 2010fc8:	e13ffc17 	ldw	r4,-16(fp)
 2010fcc:	01400304 	movi	r5,12
 2010fd0:	200d0480 	call	200d048 <__mulsi3>
 2010fd4:	1007883a 	mov	r3,r2
 2010fd8:	00808074 	movhi	r2,513
 2010fdc:	10915004 	addi	r2,r2,17728
 2010fe0:	1887883a 	add	r3,r3,r2
 2010fe4:	e0ffff15 	stw	r3,-4(fp)
 2010fe8:	00000106 	br	2010ff0 <close+0x48>
 2010fec:	e03fff15 	stw	zero,-4(fp)
 2010ff0:	e0bfff17 	ldw	r2,-4(fp)
 2010ff4:	e0bffb15 	stw	r2,-20(fp)
 2010ff8:	e0bffb17 	ldw	r2,-20(fp)
 2010ffc:	1005003a 	cmpeq	r2,r2,zero
 2011000:	10001d1e 	bne	r2,zero,2011078 <close+0xd0>
 2011004:	e0bffb17 	ldw	r2,-20(fp)
 2011008:	10800017 	ldw	r2,0(r2)
 201100c:	10800417 	ldw	r2,16(r2)
 2011010:	1005003a 	cmpeq	r2,r2,zero
 2011014:	1000071e 	bne	r2,zero,2011034 <close+0x8c>
 2011018:	e0bffb17 	ldw	r2,-20(fp)
 201101c:	10800017 	ldw	r2,0(r2)
 2011020:	10800417 	ldw	r2,16(r2)
 2011024:	e13ffb17 	ldw	r4,-20(fp)
 2011028:	103ee83a 	callr	r2
 201102c:	e0bffe15 	stw	r2,-8(fp)
 2011030:	00000106 	br	2011038 <close+0x90>
 2011034:	e03ffe15 	stw	zero,-8(fp)
 2011038:	e0bffe17 	ldw	r2,-8(fp)
 201103c:	e0bffa15 	stw	r2,-24(fp)
 2011040:	e13ffc17 	ldw	r4,-16(fp)
 2011044:	2011aa00 	call	2011aa0 <alt_release_fd>
 2011048:	e0bffa17 	ldw	r2,-24(fp)
 201104c:	1004403a 	cmpge	r2,r2,zero
 2011050:	1000071e 	bne	r2,zero,2011070 <close+0xc8>
 2011054:	20110a80 	call	20110a8 <alt_get_errno>
 2011058:	e0fffa17 	ldw	r3,-24(fp)
 201105c:	00c7c83a 	sub	r3,zero,r3
 2011060:	10c00015 	stw	r3,0(r2)
 2011064:	00bfffc4 	movi	r2,-1
 2011068:	e0bffd15 	stw	r2,-12(fp)
 201106c:	00000806 	br	2011090 <close+0xe8>
 2011070:	e03ffd15 	stw	zero,-12(fp)
 2011074:	00000606 	br	2011090 <close+0xe8>
 2011078:	20110a80 	call	20110a8 <alt_get_errno>
 201107c:	1007883a 	mov	r3,r2
 2011080:	00801444 	movi	r2,81
 2011084:	18800015 	stw	r2,0(r3)
 2011088:	00bfffc4 	movi	r2,-1
 201108c:	e0bffd15 	stw	r2,-12(fp)
 2011090:	e0bffd17 	ldw	r2,-12(fp)
 2011094:	e037883a 	mov	sp,fp
 2011098:	dfc00117 	ldw	ra,4(sp)
 201109c:	df000017 	ldw	fp,0(sp)
 20110a0:	dec00204 	addi	sp,sp,8
 20110a4:	f800283a 	ret

020110a8 <alt_get_errno>:
 20110a8:	defffd04 	addi	sp,sp,-12
 20110ac:	dfc00215 	stw	ra,8(sp)
 20110b0:	df000115 	stw	fp,4(sp)
 20110b4:	df000104 	addi	fp,sp,4
 20110b8:	00808074 	movhi	r2,513
 20110bc:	1091c804 	addi	r2,r2,18208
 20110c0:	10800017 	ldw	r2,0(r2)
 20110c4:	1005003a 	cmpeq	r2,r2,zero
 20110c8:	1000061e 	bne	r2,zero,20110e4 <alt_get_errno+0x3c>
 20110cc:	00808074 	movhi	r2,513
 20110d0:	1091c804 	addi	r2,r2,18208
 20110d4:	10800017 	ldw	r2,0(r2)
 20110d8:	103ee83a 	callr	r2
 20110dc:	e0bfff15 	stw	r2,-4(fp)
 20110e0:	00000306 	br	20110f0 <alt_get_errno+0x48>
 20110e4:	00808074 	movhi	r2,513
 20110e8:	1098ba04 	addi	r2,r2,25320
 20110ec:	e0bfff15 	stw	r2,-4(fp)
 20110f0:	e0bfff17 	ldw	r2,-4(fp)
 20110f4:	e037883a 	mov	sp,fp
 20110f8:	dfc00117 	ldw	ra,4(sp)
 20110fc:	df000017 	ldw	fp,0(sp)
 2011100:	dec00204 	addi	sp,sp,8
 2011104:	f800283a 	ret

02011108 <alt_dcache_flush_all>:
 2011108:	deffff04 	addi	sp,sp,-4
 201110c:	df000015 	stw	fp,0(sp)
 2011110:	d839883a 	mov	fp,sp
 2011114:	e037883a 	mov	sp,fp
 2011118:	df000017 	ldw	fp,0(sp)
 201111c:	dec00104 	addi	sp,sp,4
 2011120:	f800283a 	ret

02011124 <alt_dev_null_write>:
 2011124:	defffc04 	addi	sp,sp,-16
 2011128:	df000315 	stw	fp,12(sp)
 201112c:	df000304 	addi	fp,sp,12
 2011130:	e13ffd15 	stw	r4,-12(fp)
 2011134:	e17ffe15 	stw	r5,-8(fp)
 2011138:	e1bfff15 	stw	r6,-4(fp)
 201113c:	e0bfff17 	ldw	r2,-4(fp)
 2011140:	e037883a 	mov	sp,fp
 2011144:	df000017 	ldw	fp,0(sp)
 2011148:	dec00104 	addi	sp,sp,4
 201114c:	f800283a 	ret

02011150 <alt_dev_llist_insert>:
 2011150:	defff904 	addi	sp,sp,-28
 2011154:	dfc00615 	stw	ra,24(sp)
 2011158:	df000515 	stw	fp,20(sp)
 201115c:	df000504 	addi	fp,sp,20
 2011160:	e13ffd15 	stw	r4,-12(fp)
 2011164:	e17ffe15 	stw	r5,-8(fp)
 2011168:	e0bffd17 	ldw	r2,-12(fp)
 201116c:	1005003a 	cmpeq	r2,r2,zero
 2011170:	1000041e 	bne	r2,zero,2011184 <alt_dev_llist_insert+0x34>
 2011174:	e0bffd17 	ldw	r2,-12(fp)
 2011178:	10800217 	ldw	r2,8(r2)
 201117c:	1004c03a 	cmpne	r2,r2,zero
 2011180:	1000071e 	bne	r2,zero,20111a0 <alt_dev_llist_insert+0x50>
 2011184:	20112040 	call	2011204 <alt_get_errno>
 2011188:	1007883a 	mov	r3,r2
 201118c:	00800584 	movi	r2,22
 2011190:	18800015 	stw	r2,0(r3)
 2011194:	00bffa84 	movi	r2,-22
 2011198:	e0bfff15 	stw	r2,-4(fp)
 201119c:	00001306 	br	20111ec <alt_dev_llist_insert+0x9c>
 20111a0:	e0fffd17 	ldw	r3,-12(fp)
 20111a4:	e0bffe17 	ldw	r2,-8(fp)
 20111a8:	e0bffb15 	stw	r2,-20(fp)
 20111ac:	e0fffc15 	stw	r3,-16(fp)
 20111b0:	e0fffc17 	ldw	r3,-16(fp)
 20111b4:	e0bffb17 	ldw	r2,-20(fp)
 20111b8:	18800115 	stw	r2,4(r3)
 20111bc:	e0bffb17 	ldw	r2,-20(fp)
 20111c0:	10c00017 	ldw	r3,0(r2)
 20111c4:	e0bffc17 	ldw	r2,-16(fp)
 20111c8:	10c00015 	stw	r3,0(r2)
 20111cc:	e0bffb17 	ldw	r2,-20(fp)
 20111d0:	10c00017 	ldw	r3,0(r2)
 20111d4:	e0bffc17 	ldw	r2,-16(fp)
 20111d8:	18800115 	stw	r2,4(r3)
 20111dc:	e0fffb17 	ldw	r3,-20(fp)
 20111e0:	e0bffc17 	ldw	r2,-16(fp)
 20111e4:	18800015 	stw	r2,0(r3)
 20111e8:	e03fff15 	stw	zero,-4(fp)
 20111ec:	e0bfff17 	ldw	r2,-4(fp)
 20111f0:	e037883a 	mov	sp,fp
 20111f4:	dfc00117 	ldw	ra,4(sp)
 20111f8:	df000017 	ldw	fp,0(sp)
 20111fc:	dec00204 	addi	sp,sp,8
 2011200:	f800283a 	ret

02011204 <alt_get_errno>:
 2011204:	defffd04 	addi	sp,sp,-12
 2011208:	dfc00215 	stw	ra,8(sp)
 201120c:	df000115 	stw	fp,4(sp)
 2011210:	df000104 	addi	fp,sp,4
 2011214:	00808074 	movhi	r2,513
 2011218:	1091c804 	addi	r2,r2,18208
 201121c:	10800017 	ldw	r2,0(r2)
 2011220:	1005003a 	cmpeq	r2,r2,zero
 2011224:	1000061e 	bne	r2,zero,2011240 <alt_get_errno+0x3c>
 2011228:	00808074 	movhi	r2,513
 201122c:	1091c804 	addi	r2,r2,18208
 2011230:	10800017 	ldw	r2,0(r2)
 2011234:	103ee83a 	callr	r2
 2011238:	e0bfff15 	stw	r2,-4(fp)
 201123c:	00000306 	br	201124c <alt_get_errno+0x48>
 2011240:	00808074 	movhi	r2,513
 2011244:	1098ba04 	addi	r2,r2,25320
 2011248:	e0bfff15 	stw	r2,-4(fp)
 201124c:	e0bfff17 	ldw	r2,-4(fp)
 2011250:	e037883a 	mov	sp,fp
 2011254:	dfc00117 	ldw	ra,4(sp)
 2011258:	df000017 	ldw	fp,0(sp)
 201125c:	dec00204 	addi	sp,sp,8
 2011260:	f800283a 	ret

02011264 <_do_ctors>:
 2011264:	defffd04 	addi	sp,sp,-12
 2011268:	dfc00215 	stw	ra,8(sp)
 201126c:	df000115 	stw	fp,4(sp)
 2011270:	df000104 	addi	fp,sp,4
 2011274:	00bfff04 	movi	r2,-4
 2011278:	00c08074 	movhi	r3,513
 201127c:	18c96904 	addi	r3,r3,9636
 2011280:	1885883a 	add	r2,r3,r2
 2011284:	e0bfff15 	stw	r2,-4(fp)
 2011288:	00000606 	br	20112a4 <_do_ctors+0x40>
 201128c:	e0bfff17 	ldw	r2,-4(fp)
 2011290:	10800017 	ldw	r2,0(r2)
 2011294:	103ee83a 	callr	r2
 2011298:	e0bfff17 	ldw	r2,-4(fp)
 201129c:	10bfff04 	addi	r2,r2,-4
 20112a0:	e0bfff15 	stw	r2,-4(fp)
 20112a4:	e0ffff17 	ldw	r3,-4(fp)
 20112a8:	00808074 	movhi	r2,513
 20112ac:	10896804 	addi	r2,r2,9632
 20112b0:	18bff62e 	bgeu	r3,r2,201128c <_do_ctors+0x28>
 20112b4:	e037883a 	mov	sp,fp
 20112b8:	dfc00117 	ldw	ra,4(sp)
 20112bc:	df000017 	ldw	fp,0(sp)
 20112c0:	dec00204 	addi	sp,sp,8
 20112c4:	f800283a 	ret

020112c8 <_do_dtors>:
 20112c8:	defffd04 	addi	sp,sp,-12
 20112cc:	dfc00215 	stw	ra,8(sp)
 20112d0:	df000115 	stw	fp,4(sp)
 20112d4:	df000104 	addi	fp,sp,4
 20112d8:	00bfff04 	movi	r2,-4
 20112dc:	00c08074 	movhi	r3,513
 20112e0:	18c96904 	addi	r3,r3,9636
 20112e4:	1885883a 	add	r2,r3,r2
 20112e8:	e0bfff15 	stw	r2,-4(fp)
 20112ec:	00000606 	br	2011308 <_do_dtors+0x40>
 20112f0:	e0bfff17 	ldw	r2,-4(fp)
 20112f4:	10800017 	ldw	r2,0(r2)
 20112f8:	103ee83a 	callr	r2
 20112fc:	e0bfff17 	ldw	r2,-4(fp)
 2011300:	10bfff04 	addi	r2,r2,-4
 2011304:	e0bfff15 	stw	r2,-4(fp)
 2011308:	e0ffff17 	ldw	r3,-4(fp)
 201130c:	00808074 	movhi	r2,513
 2011310:	10896904 	addi	r2,r2,9636
 2011314:	18bff62e 	bgeu	r3,r2,20112f0 <_do_dtors+0x28>
 2011318:	e037883a 	mov	sp,fp
 201131c:	dfc00117 	ldw	ra,4(sp)
 2011320:	df000017 	ldw	fp,0(sp)
 2011324:	dec00204 	addi	sp,sp,8
 2011328:	f800283a 	ret

0201132c <alt_find_dev>:
 201132c:	defff904 	addi	sp,sp,-28
 2011330:	dfc00615 	stw	ra,24(sp)
 2011334:	df000515 	stw	fp,20(sp)
 2011338:	df000504 	addi	fp,sp,20
 201133c:	e13ffd15 	stw	r4,-12(fp)
 2011340:	e17ffe15 	stw	r5,-8(fp)
 2011344:	e0bffe17 	ldw	r2,-8(fp)
 2011348:	10800017 	ldw	r2,0(r2)
 201134c:	e0bffc15 	stw	r2,-16(fp)
 2011350:	e13ffd17 	ldw	r4,-12(fp)
 2011354:	20120c00 	call	20120c0 <strlen>
 2011358:	10800044 	addi	r2,r2,1
 201135c:	e0bffb15 	stw	r2,-20(fp)
 2011360:	00000d06 	br	2011398 <alt_find_dev+0x6c>
 2011364:	e0bffc17 	ldw	r2,-16(fp)
 2011368:	11000217 	ldw	r4,8(r2)
 201136c:	e1bffb17 	ldw	r6,-20(fp)
 2011370:	e17ffd17 	ldw	r5,-12(fp)
 2011374:	2011fac0 	call	2011fac <memcmp>
 2011378:	1004c03a 	cmpne	r2,r2,zero
 201137c:	1000031e 	bne	r2,zero,201138c <alt_find_dev+0x60>
 2011380:	e0bffc17 	ldw	r2,-16(fp)
 2011384:	e0bfff15 	stw	r2,-4(fp)
 2011388:	00000706 	br	20113a8 <alt_find_dev+0x7c>
 201138c:	e0bffc17 	ldw	r2,-16(fp)
 2011390:	10800017 	ldw	r2,0(r2)
 2011394:	e0bffc15 	stw	r2,-16(fp)
 2011398:	e0fffe17 	ldw	r3,-8(fp)
 201139c:	e0bffc17 	ldw	r2,-16(fp)
 20113a0:	10fff01e 	bne	r2,r3,2011364 <alt_find_dev+0x38>
 20113a4:	e03fff15 	stw	zero,-4(fp)
 20113a8:	e0bfff17 	ldw	r2,-4(fp)
 20113ac:	e037883a 	mov	sp,fp
 20113b0:	dfc00117 	ldw	ra,4(sp)
 20113b4:	df000017 	ldw	fp,0(sp)
 20113b8:	dec00204 	addi	sp,sp,8
 20113bc:	f800283a 	ret

020113c0 <alt_flash_open_dev>:
 20113c0:	defffb04 	addi	sp,sp,-20
 20113c4:	dfc00415 	stw	ra,16(sp)
 20113c8:	df000315 	stw	fp,12(sp)
 20113cc:	df000304 	addi	fp,sp,12
 20113d0:	e13ffe15 	stw	r4,-8(fp)
 20113d4:	e13ffe17 	ldw	r4,-8(fp)
 20113d8:	d1601904 	addi	r5,gp,-32668
 20113dc:	201132c0 	call	201132c <alt_find_dev>
 20113e0:	e0bffd15 	stw	r2,-12(fp)
 20113e4:	e0bffd17 	ldw	r2,-12(fp)
 20113e8:	1005003a 	cmpeq	r2,r2,zero
 20113ec:	10000b1e 	bne	r2,zero,201141c <alt_flash_open_dev+0x5c>
 20113f0:	e0bffd17 	ldw	r2,-12(fp)
 20113f4:	10800317 	ldw	r2,12(r2)
 20113f8:	1005003a 	cmpeq	r2,r2,zero
 20113fc:	1000071e 	bne	r2,zero,201141c <alt_flash_open_dev+0x5c>
 2011400:	e0bffd17 	ldw	r2,-12(fp)
 2011404:	10800317 	ldw	r2,12(r2)
 2011408:	e13ffd17 	ldw	r4,-12(fp)
 201140c:	e17ffe17 	ldw	r5,-8(fp)
 2011410:	103ee83a 	callr	r2
 2011414:	e0bfff15 	stw	r2,-4(fp)
 2011418:	00000206 	br	2011424 <alt_flash_open_dev+0x64>
 201141c:	e0bffd17 	ldw	r2,-12(fp)
 2011420:	e0bfff15 	stw	r2,-4(fp)
 2011424:	e0bfff17 	ldw	r2,-4(fp)
 2011428:	e037883a 	mov	sp,fp
 201142c:	dfc00117 	ldw	ra,4(sp)
 2011430:	df000017 	ldw	fp,0(sp)
 2011434:	dec00204 	addi	sp,sp,8
 2011438:	f800283a 	ret

0201143c <alt_flash_close_dev>:
 201143c:	defffd04 	addi	sp,sp,-12
 2011440:	dfc00215 	stw	ra,8(sp)
 2011444:	df000115 	stw	fp,4(sp)
 2011448:	df000104 	addi	fp,sp,4
 201144c:	e13fff15 	stw	r4,-4(fp)
 2011450:	e0bfff17 	ldw	r2,-4(fp)
 2011454:	1005003a 	cmpeq	r2,r2,zero
 2011458:	1000081e 	bne	r2,zero,201147c <alt_flash_close_dev+0x40>
 201145c:	e0bfff17 	ldw	r2,-4(fp)
 2011460:	10800417 	ldw	r2,16(r2)
 2011464:	1005003a 	cmpeq	r2,r2,zero
 2011468:	1000041e 	bne	r2,zero,201147c <alt_flash_close_dev+0x40>
 201146c:	e0bfff17 	ldw	r2,-4(fp)
 2011470:	10800417 	ldw	r2,16(r2)
 2011474:	e13fff17 	ldw	r4,-4(fp)
 2011478:	103ee83a 	callr	r2
 201147c:	e037883a 	mov	sp,fp
 2011480:	dfc00117 	ldw	ra,4(sp)
 2011484:	df000017 	ldw	fp,0(sp)
 2011488:	dec00204 	addi	sp,sp,8
 201148c:	f800283a 	ret

02011490 <alt_icache_flush_all>:
 2011490:	deffff04 	addi	sp,sp,-4
 2011494:	df000015 	stw	fp,0(sp)
 2011498:	d839883a 	mov	fp,sp
 201149c:	e037883a 	mov	sp,fp
 20114a0:	df000017 	ldw	fp,0(sp)
 20114a4:	dec00104 	addi	sp,sp,4
 20114a8:	f800283a 	ret

020114ac <alt_open_fd>:
 20114ac:	defff804 	addi	sp,sp,-32
 20114b0:	dfc00715 	stw	ra,28(sp)
 20114b4:	df000615 	stw	fp,24(sp)
 20114b8:	dc000515 	stw	r16,20(sp)
 20114bc:	df000504 	addi	fp,sp,20
 20114c0:	e13ffc15 	stw	r4,-16(fp)
 20114c4:	e17ffd15 	stw	r5,-12(fp)
 20114c8:	e1bffe15 	stw	r6,-8(fp)
 20114cc:	e1ffff15 	stw	r7,-4(fp)
 20114d0:	e13ffd17 	ldw	r4,-12(fp)
 20114d4:	e17ffe17 	ldw	r5,-8(fp)
 20114d8:	e1bfff17 	ldw	r6,-4(fp)
 20114dc:	20118b40 	call	20118b4 <open>
 20114e0:	e0bffb15 	stw	r2,-20(fp)
 20114e4:	e0bffb17 	ldw	r2,-20(fp)
 20114e8:	1004803a 	cmplt	r2,r2,zero
 20114ec:	10001f1e 	bne	r2,zero,201156c <alt_open_fd+0xc0>
 20114f0:	e13ffb17 	ldw	r4,-20(fp)
 20114f4:	04008074 	movhi	r16,513
 20114f8:	84115004 	addi	r16,r16,17728
 20114fc:	01400304 	movi	r5,12
 2011500:	200d0480 	call	200d048 <__mulsi3>
 2011504:	1405883a 	add	r2,r2,r16
 2011508:	10c00017 	ldw	r3,0(r2)
 201150c:	e0bffc17 	ldw	r2,-16(fp)
 2011510:	10c00015 	stw	r3,0(r2)
 2011514:	e13ffb17 	ldw	r4,-20(fp)
 2011518:	04008074 	movhi	r16,513
 201151c:	84115004 	addi	r16,r16,17728
 2011520:	01400304 	movi	r5,12
 2011524:	200d0480 	call	200d048 <__mulsi3>
 2011528:	1405883a 	add	r2,r2,r16
 201152c:	10800104 	addi	r2,r2,4
 2011530:	10c00017 	ldw	r3,0(r2)
 2011534:	e0bffc17 	ldw	r2,-16(fp)
 2011538:	10c00115 	stw	r3,4(r2)
 201153c:	e13ffb17 	ldw	r4,-20(fp)
 2011540:	04008074 	movhi	r16,513
 2011544:	84115004 	addi	r16,r16,17728
 2011548:	01400304 	movi	r5,12
 201154c:	200d0480 	call	200d048 <__mulsi3>
 2011550:	1405883a 	add	r2,r2,r16
 2011554:	10800204 	addi	r2,r2,8
 2011558:	10c00017 	ldw	r3,0(r2)
 201155c:	e0bffc17 	ldw	r2,-16(fp)
 2011560:	10c00215 	stw	r3,8(r2)
 2011564:	e13ffb17 	ldw	r4,-20(fp)
 2011568:	2011aa00 	call	2011aa0 <alt_release_fd>
 201156c:	e037883a 	mov	sp,fp
 2011570:	dfc00217 	ldw	ra,8(sp)
 2011574:	df000117 	ldw	fp,4(sp)
 2011578:	dc000017 	ldw	r16,0(sp)
 201157c:	dec00304 	addi	sp,sp,12
 2011580:	f800283a 	ret

02011584 <alt_io_redirect>:
 2011584:	defffb04 	addi	sp,sp,-20
 2011588:	dfc00415 	stw	ra,16(sp)
 201158c:	df000315 	stw	fp,12(sp)
 2011590:	df000304 	addi	fp,sp,12
 2011594:	e13ffd15 	stw	r4,-12(fp)
 2011598:	e17ffe15 	stw	r5,-8(fp)
 201159c:	e1bfff15 	stw	r6,-4(fp)
 20115a0:	01008074 	movhi	r4,513
 20115a4:	21115304 	addi	r4,r4,17740
 20115a8:	e17ffd17 	ldw	r5,-12(fp)
 20115ac:	01800044 	movi	r6,1
 20115b0:	01c07fc4 	movi	r7,511
 20115b4:	20114ac0 	call	20114ac <alt_open_fd>
 20115b8:	01008074 	movhi	r4,513
 20115bc:	21115004 	addi	r4,r4,17728
 20115c0:	e17ffe17 	ldw	r5,-8(fp)
 20115c4:	000d883a 	mov	r6,zero
 20115c8:	01c07fc4 	movi	r7,511
 20115cc:	20114ac0 	call	20114ac <alt_open_fd>
 20115d0:	01008074 	movhi	r4,513
 20115d4:	21115604 	addi	r4,r4,17752
 20115d8:	e17fff17 	ldw	r5,-4(fp)
 20115dc:	01800044 	movi	r6,1
 20115e0:	01c07fc4 	movi	r7,511
 20115e4:	20114ac0 	call	20114ac <alt_open_fd>
 20115e8:	e037883a 	mov	sp,fp
 20115ec:	dfc00117 	ldw	ra,4(sp)
 20115f0:	df000017 	ldw	fp,0(sp)
 20115f4:	dec00204 	addi	sp,sp,8
 20115f8:	f800283a 	ret

020115fc <alt_irq_register>:
 20115fc:	deffef04 	addi	sp,sp,-68
 2011600:	df001015 	stw	fp,64(sp)
 2011604:	df001004 	addi	fp,sp,64
 2011608:	e13ffc15 	stw	r4,-16(fp)
 201160c:	e17ffd15 	stw	r5,-12(fp)
 2011610:	e1bffe15 	stw	r6,-8(fp)
 2011614:	00bffa84 	movi	r2,-22
 2011618:	e0bffb15 	stw	r2,-20(fp)
 201161c:	e0bffc17 	ldw	r2,-16(fp)
 2011620:	10800828 	cmpgeui	r2,r2,32
 2011624:	1000601e 	bne	r2,zero,20117a8 <alt_irq_register+0x1ac>
 2011628:	0005303a 	rdctl	r2,status
 201162c:	e0bff915 	stw	r2,-28(fp)
 2011630:	e0fff917 	ldw	r3,-28(fp)
 2011634:	00bfff84 	movi	r2,-2
 2011638:	1884703a 	and	r2,r3,r2
 201163c:	1001703a 	wrctl	status,r2
 2011640:	e0bff917 	ldw	r2,-28(fp)
 2011644:	e0bffa15 	stw	r2,-24(fp)
 2011648:	e0bffc17 	ldw	r2,-16(fp)
 201164c:	00c08074 	movhi	r3,513
 2011650:	18dacb04 	addi	r3,r3,27436
 2011654:	100490fa 	slli	r2,r2,3
 2011658:	10c7883a 	add	r3,r2,r3
 201165c:	e0bffe17 	ldw	r2,-8(fp)
 2011660:	18800015 	stw	r2,0(r3)
 2011664:	e0bffc17 	ldw	r2,-16(fp)
 2011668:	00c08074 	movhi	r3,513
 201166c:	18dacb04 	addi	r3,r3,27436
 2011670:	100490fa 	slli	r2,r2,3
 2011674:	10c5883a 	add	r2,r2,r3
 2011678:	10c00104 	addi	r3,r2,4
 201167c:	e0bffd17 	ldw	r2,-12(fp)
 2011680:	18800015 	stw	r2,0(r3)
 2011684:	e0bffe17 	ldw	r2,-8(fp)
 2011688:	1005003a 	cmpeq	r2,r2,zero
 201168c:	1000201e 	bne	r2,zero,2011710 <alt_irq_register+0x114>
 2011690:	e0bffc17 	ldw	r2,-16(fp)
 2011694:	e0bff715 	stw	r2,-36(fp)
 2011698:	0005303a 	rdctl	r2,status
 201169c:	e0bff615 	stw	r2,-40(fp)
 20116a0:	e0fff617 	ldw	r3,-40(fp)
 20116a4:	00bfff84 	movi	r2,-2
 20116a8:	1884703a 	and	r2,r3,r2
 20116ac:	1001703a 	wrctl	status,r2
 20116b0:	e0bff617 	ldw	r2,-40(fp)
 20116b4:	e0bff815 	stw	r2,-32(fp)
 20116b8:	e0fff717 	ldw	r3,-36(fp)
 20116bc:	00800044 	movi	r2,1
 20116c0:	10c4983a 	sll	r2,r2,r3
 20116c4:	1007883a 	mov	r3,r2
 20116c8:	00808074 	movhi	r2,513
 20116cc:	1098c004 	addi	r2,r2,25344
 20116d0:	10800017 	ldw	r2,0(r2)
 20116d4:	1886b03a 	or	r3,r3,r2
 20116d8:	00808074 	movhi	r2,513
 20116dc:	1098c004 	addi	r2,r2,25344
 20116e0:	10c00015 	stw	r3,0(r2)
 20116e4:	00808074 	movhi	r2,513
 20116e8:	1098c004 	addi	r2,r2,25344
 20116ec:	10800017 	ldw	r2,0(r2)
 20116f0:	100170fa 	wrctl	ienable,r2
 20116f4:	e0bff817 	ldw	r2,-32(fp)
 20116f8:	e0bff515 	stw	r2,-44(fp)
 20116fc:	e0bff517 	ldw	r2,-44(fp)
 2011700:	1001703a 	wrctl	status,r2
 2011704:	0005883a 	mov	r2,zero
 2011708:	e0bfff15 	stw	r2,-4(fp)
 201170c:	00002006 	br	2011790 <alt_irq_register+0x194>
 2011710:	e0bffc17 	ldw	r2,-16(fp)
 2011714:	e0bff315 	stw	r2,-52(fp)
 2011718:	0005303a 	rdctl	r2,status
 201171c:	e0bff215 	stw	r2,-56(fp)
 2011720:	e0fff217 	ldw	r3,-56(fp)
 2011724:	00bfff84 	movi	r2,-2
 2011728:	1884703a 	and	r2,r3,r2
 201172c:	1001703a 	wrctl	status,r2
 2011730:	e0bff217 	ldw	r2,-56(fp)
 2011734:	e0bff415 	stw	r2,-48(fp)
 2011738:	e0fff317 	ldw	r3,-52(fp)
 201173c:	00800044 	movi	r2,1
 2011740:	10c4983a 	sll	r2,r2,r3
 2011744:	0084303a 	nor	r2,zero,r2
 2011748:	1007883a 	mov	r3,r2
 201174c:	00808074 	movhi	r2,513
 2011750:	1098c004 	addi	r2,r2,25344
 2011754:	10800017 	ldw	r2,0(r2)
 2011758:	1886703a 	and	r3,r3,r2
 201175c:	00808074 	movhi	r2,513
 2011760:	1098c004 	addi	r2,r2,25344
 2011764:	10c00015 	stw	r3,0(r2)
 2011768:	00808074 	movhi	r2,513
 201176c:	1098c004 	addi	r2,r2,25344
 2011770:	10800017 	ldw	r2,0(r2)
 2011774:	100170fa 	wrctl	ienable,r2
 2011778:	e0bff417 	ldw	r2,-48(fp)
 201177c:	e0bff115 	stw	r2,-60(fp)
 2011780:	e0bff117 	ldw	r2,-60(fp)
 2011784:	1001703a 	wrctl	status,r2
 2011788:	0005883a 	mov	r2,zero
 201178c:	e0bfff15 	stw	r2,-4(fp)
 2011790:	e0bfff17 	ldw	r2,-4(fp)
 2011794:	e0bffb15 	stw	r2,-20(fp)
 2011798:	e0bffa17 	ldw	r2,-24(fp)
 201179c:	e0bff015 	stw	r2,-64(fp)
 20117a0:	e0bff017 	ldw	r2,-64(fp)
 20117a4:	1001703a 	wrctl	status,r2
 20117a8:	e0bffb17 	ldw	r2,-20(fp)
 20117ac:	e037883a 	mov	sp,fp
 20117b0:	df000017 	ldw	fp,0(sp)
 20117b4:	dec00104 	addi	sp,sp,4
 20117b8:	f800283a 	ret

020117bc <alt_file_locked>:
 20117bc:	defffa04 	addi	sp,sp,-24
 20117c0:	dfc00515 	stw	ra,20(sp)
 20117c4:	df000415 	stw	fp,16(sp)
 20117c8:	dc000315 	stw	r16,12(sp)
 20117cc:	df000304 	addi	fp,sp,12
 20117d0:	e13ffe15 	stw	r4,-8(fp)
 20117d4:	e0bffe17 	ldw	r2,-8(fp)
 20117d8:	10800217 	ldw	r2,8(r2)
 20117dc:	10d00034 	orhi	r3,r2,16384
 20117e0:	e0bffe17 	ldw	r2,-8(fp)
 20117e4:	10c00215 	stw	r3,8(r2)
 20117e8:	e03ffd15 	stw	zero,-12(fp)
 20117ec:	00002306 	br	201187c <alt_file_locked+0xc0>
 20117f0:	e13ffd17 	ldw	r4,-12(fp)
 20117f4:	04008074 	movhi	r16,513
 20117f8:	84115004 	addi	r16,r16,17728
 20117fc:	01400304 	movi	r5,12
 2011800:	200d0480 	call	200d048 <__mulsi3>
 2011804:	1405883a 	add	r2,r2,r16
 2011808:	10c00017 	ldw	r3,0(r2)
 201180c:	e0bffe17 	ldw	r2,-8(fp)
 2011810:	10800017 	ldw	r2,0(r2)
 2011814:	1880161e 	bne	r3,r2,2011870 <alt_file_locked+0xb4>
 2011818:	e13ffd17 	ldw	r4,-12(fp)
 201181c:	04008074 	movhi	r16,513
 2011820:	84115004 	addi	r16,r16,17728
 2011824:	01400304 	movi	r5,12
 2011828:	200d0480 	call	200d048 <__mulsi3>
 201182c:	1405883a 	add	r2,r2,r16
 2011830:	10800204 	addi	r2,r2,8
 2011834:	10800017 	ldw	r2,0(r2)
 2011838:	1004403a 	cmpge	r2,r2,zero
 201183c:	10000c1e 	bne	r2,zero,2011870 <alt_file_locked+0xb4>
 2011840:	e13ffd17 	ldw	r4,-12(fp)
 2011844:	01400304 	movi	r5,12
 2011848:	200d0480 	call	200d048 <__mulsi3>
 201184c:	1007883a 	mov	r3,r2
 2011850:	00808074 	movhi	r2,513
 2011854:	10915004 	addi	r2,r2,17728
 2011858:	1887883a 	add	r3,r3,r2
 201185c:	e0bffe17 	ldw	r2,-8(fp)
 2011860:	18800326 	beq	r3,r2,2011870 <alt_file_locked+0xb4>
 2011864:	00bffcc4 	movi	r2,-13
 2011868:	e0bfff15 	stw	r2,-4(fp)
 201186c:	00000a06 	br	2011898 <alt_file_locked+0xdc>
 2011870:	e0bffd17 	ldw	r2,-12(fp)
 2011874:	10800044 	addi	r2,r2,1
 2011878:	e0bffd15 	stw	r2,-12(fp)
 201187c:	00808074 	movhi	r2,513
 2011880:	1091c704 	addi	r2,r2,18204
 2011884:	10800017 	ldw	r2,0(r2)
 2011888:	1007883a 	mov	r3,r2
 201188c:	e0bffd17 	ldw	r2,-12(fp)
 2011890:	18bfd72e 	bgeu	r3,r2,20117f0 <alt_file_locked+0x34>
 2011894:	e03fff15 	stw	zero,-4(fp)
 2011898:	e0bfff17 	ldw	r2,-4(fp)
 201189c:	e037883a 	mov	sp,fp
 20118a0:	dfc00217 	ldw	ra,8(sp)
 20118a4:	df000117 	ldw	fp,4(sp)
 20118a8:	dc000017 	ldw	r16,0(sp)
 20118ac:	dec00304 	addi	sp,sp,12
 20118b0:	f800283a 	ret

020118b4 <open>:
 20118b4:	defff404 	addi	sp,sp,-48
 20118b8:	dfc00b15 	stw	ra,44(sp)
 20118bc:	df000a15 	stw	fp,40(sp)
 20118c0:	df000a04 	addi	fp,sp,40
 20118c4:	e13ffb15 	stw	r4,-20(fp)
 20118c8:	e17ffc15 	stw	r5,-16(fp)
 20118cc:	e1bffd15 	stw	r6,-12(fp)
 20118d0:	00bfffc4 	movi	r2,-1
 20118d4:	e0bff815 	stw	r2,-32(fp)
 20118d8:	00bffb44 	movi	r2,-19
 20118dc:	e0bff715 	stw	r2,-36(fp)
 20118e0:	e03ff615 	stw	zero,-40(fp)
 20118e4:	e13ffb17 	ldw	r4,-20(fp)
 20118e8:	01408074 	movhi	r5,513
 20118ec:	2951c504 	addi	r5,r5,18196
 20118f0:	201132c0 	call	201132c <alt_find_dev>
 20118f4:	e0bffa15 	stw	r2,-24(fp)
 20118f8:	e0bffa17 	ldw	r2,-24(fp)
 20118fc:	1004c03a 	cmpne	r2,r2,zero
 2011900:	1000051e 	bne	r2,zero,2011918 <open+0x64>
 2011904:	e13ffb17 	ldw	r4,-20(fp)
 2011908:	2011d700 	call	2011d70 <alt_find_file>
 201190c:	e0bffa15 	stw	r2,-24(fp)
 2011910:	00800044 	movi	r2,1
 2011914:	e0bff615 	stw	r2,-40(fp)
 2011918:	e0bffa17 	ldw	r2,-24(fp)
 201191c:	1005003a 	cmpeq	r2,r2,zero
 2011920:	1000311e 	bne	r2,zero,20119e8 <open+0x134>
 2011924:	e13ffa17 	ldw	r4,-24(fp)
 2011928:	2011e900 	call	2011e90 <alt_get_fd>
 201192c:	e0bff815 	stw	r2,-32(fp)
 2011930:	e0bff817 	ldw	r2,-32(fp)
 2011934:	1004403a 	cmpge	r2,r2,zero
 2011938:	1000031e 	bne	r2,zero,2011948 <open+0x94>
 201193c:	e0bff817 	ldw	r2,-32(fp)
 2011940:	e0bff715 	stw	r2,-36(fp)
 2011944:	00002a06 	br	20119f0 <open+0x13c>
 2011948:	e13ff817 	ldw	r4,-32(fp)
 201194c:	01400304 	movi	r5,12
 2011950:	200d0480 	call	200d048 <__mulsi3>
 2011954:	1007883a 	mov	r3,r2
 2011958:	00808074 	movhi	r2,513
 201195c:	10915004 	addi	r2,r2,17728
 2011960:	1885883a 	add	r2,r3,r2
 2011964:	e0bff915 	stw	r2,-28(fp)
 2011968:	e0fffc17 	ldw	r3,-16(fp)
 201196c:	00900034 	movhi	r2,16384
 2011970:	10bfffc4 	addi	r2,r2,-1
 2011974:	1886703a 	and	r3,r3,r2
 2011978:	e0bff917 	ldw	r2,-28(fp)
 201197c:	10c00215 	stw	r3,8(r2)
 2011980:	e0bff617 	ldw	r2,-40(fp)
 2011984:	1004c03a 	cmpne	r2,r2,zero
 2011988:	1000061e 	bne	r2,zero,20119a4 <open+0xf0>
 201198c:	e13ff917 	ldw	r4,-28(fp)
 2011990:	20117bc0 	call	20117bc <alt_file_locked>
 2011994:	e0bff715 	stw	r2,-36(fp)
 2011998:	e0bff717 	ldw	r2,-36(fp)
 201199c:	1004803a 	cmplt	r2,r2,zero
 20119a0:	1000131e 	bne	r2,zero,20119f0 <open+0x13c>
 20119a4:	e0bffa17 	ldw	r2,-24(fp)
 20119a8:	10800317 	ldw	r2,12(r2)
 20119ac:	1005003a 	cmpeq	r2,r2,zero
 20119b0:	1000091e 	bne	r2,zero,20119d8 <open+0x124>
 20119b4:	e0bffa17 	ldw	r2,-24(fp)
 20119b8:	10800317 	ldw	r2,12(r2)
 20119bc:	e13ff917 	ldw	r4,-28(fp)
 20119c0:	e17ffb17 	ldw	r5,-20(fp)
 20119c4:	e1bffc17 	ldw	r6,-16(fp)
 20119c8:	e1fffd17 	ldw	r7,-12(fp)
 20119cc:	103ee83a 	callr	r2
 20119d0:	e0bfff15 	stw	r2,-4(fp)
 20119d4:	00000106 	br	20119dc <open+0x128>
 20119d8:	e03fff15 	stw	zero,-4(fp)
 20119dc:	e0bfff17 	ldw	r2,-4(fp)
 20119e0:	e0bff715 	stw	r2,-36(fp)
 20119e4:	00000206 	br	20119f0 <open+0x13c>
 20119e8:	00bffb44 	movi	r2,-19
 20119ec:	e0bff715 	stw	r2,-36(fp)
 20119f0:	e0bff717 	ldw	r2,-36(fp)
 20119f4:	1004403a 	cmpge	r2,r2,zero
 20119f8:	1000091e 	bne	r2,zero,2011a20 <open+0x16c>
 20119fc:	e13ff817 	ldw	r4,-32(fp)
 2011a00:	2011aa00 	call	2011aa0 <alt_release_fd>
 2011a04:	2011a400 	call	2011a40 <alt_get_errno>
 2011a08:	e0fff717 	ldw	r3,-36(fp)
 2011a0c:	00c7c83a 	sub	r3,zero,r3
 2011a10:	10c00015 	stw	r3,0(r2)
 2011a14:	00bfffc4 	movi	r2,-1
 2011a18:	e0bffe15 	stw	r2,-8(fp)
 2011a1c:	00000206 	br	2011a28 <open+0x174>
 2011a20:	e0bff817 	ldw	r2,-32(fp)
 2011a24:	e0bffe15 	stw	r2,-8(fp)
 2011a28:	e0bffe17 	ldw	r2,-8(fp)
 2011a2c:	e037883a 	mov	sp,fp
 2011a30:	dfc00117 	ldw	ra,4(sp)
 2011a34:	df000017 	ldw	fp,0(sp)
 2011a38:	dec00204 	addi	sp,sp,8
 2011a3c:	f800283a 	ret

02011a40 <alt_get_errno>:
 2011a40:	defffd04 	addi	sp,sp,-12
 2011a44:	dfc00215 	stw	ra,8(sp)
 2011a48:	df000115 	stw	fp,4(sp)
 2011a4c:	df000104 	addi	fp,sp,4
 2011a50:	00808074 	movhi	r2,513
 2011a54:	1091c804 	addi	r2,r2,18208
 2011a58:	10800017 	ldw	r2,0(r2)
 2011a5c:	1005003a 	cmpeq	r2,r2,zero
 2011a60:	1000061e 	bne	r2,zero,2011a7c <alt_get_errno+0x3c>
 2011a64:	00808074 	movhi	r2,513
 2011a68:	1091c804 	addi	r2,r2,18208
 2011a6c:	10800017 	ldw	r2,0(r2)
 2011a70:	103ee83a 	callr	r2
 2011a74:	e0bfff15 	stw	r2,-4(fp)
 2011a78:	00000306 	br	2011a88 <alt_get_errno+0x48>
 2011a7c:	00808074 	movhi	r2,513
 2011a80:	1098ba04 	addi	r2,r2,25320
 2011a84:	e0bfff15 	stw	r2,-4(fp)
 2011a88:	e0bfff17 	ldw	r2,-4(fp)
 2011a8c:	e037883a 	mov	sp,fp
 2011a90:	dfc00117 	ldw	ra,4(sp)
 2011a94:	df000017 	ldw	fp,0(sp)
 2011a98:	dec00204 	addi	sp,sp,8
 2011a9c:	f800283a 	ret

02011aa0 <alt_release_fd>:
 2011aa0:	defffc04 	addi	sp,sp,-16
 2011aa4:	dfc00315 	stw	ra,12(sp)
 2011aa8:	df000215 	stw	fp,8(sp)
 2011aac:	dc000115 	stw	r16,4(sp)
 2011ab0:	df000104 	addi	fp,sp,4
 2011ab4:	e13fff15 	stw	r4,-4(fp)
 2011ab8:	e0bfff17 	ldw	r2,-4(fp)
 2011abc:	108000d0 	cmplti	r2,r2,3
 2011ac0:	10000f1e 	bne	r2,zero,2011b00 <alt_release_fd+0x60>
 2011ac4:	e13fff17 	ldw	r4,-4(fp)
 2011ac8:	04008074 	movhi	r16,513
 2011acc:	84115004 	addi	r16,r16,17728
 2011ad0:	01400304 	movi	r5,12
 2011ad4:	200d0480 	call	200d048 <__mulsi3>
 2011ad8:	1405883a 	add	r2,r2,r16
 2011adc:	10800204 	addi	r2,r2,8
 2011ae0:	10000015 	stw	zero,0(r2)
 2011ae4:	e13fff17 	ldw	r4,-4(fp)
 2011ae8:	04008074 	movhi	r16,513
 2011aec:	84115004 	addi	r16,r16,17728
 2011af0:	01400304 	movi	r5,12
 2011af4:	200d0480 	call	200d048 <__mulsi3>
 2011af8:	1405883a 	add	r2,r2,r16
 2011afc:	10000015 	stw	zero,0(r2)
 2011b00:	e037883a 	mov	sp,fp
 2011b04:	dfc00217 	ldw	ra,8(sp)
 2011b08:	df000117 	ldw	fp,4(sp)
 2011b0c:	dc000017 	ldw	r16,0(sp)
 2011b10:	dec00304 	addi	sp,sp,12
 2011b14:	f800283a 	ret

02011b18 <altera_nios2_irq_init>:
 2011b18:	deffff04 	addi	sp,sp,-4
 2011b1c:	df000015 	stw	fp,0(sp)
 2011b20:	d839883a 	mov	fp,sp
 2011b24:	000170fa 	wrctl	ienable,zero
 2011b28:	e037883a 	mov	sp,fp
 2011b2c:	df000017 	ldw	fp,0(sp)
 2011b30:	dec00104 	addi	sp,sp,4
 2011b34:	f800283a 	ret

02011b38 <alt_avalon_spi_command>:
 2011b38:	defff404 	addi	sp,sp,-48
 2011b3c:	df000b15 	stw	fp,44(sp)
 2011b40:	df000b04 	addi	fp,sp,44
 2011b44:	e13ffc15 	stw	r4,-16(fp)
 2011b48:	e17ffd15 	stw	r5,-12(fp)
 2011b4c:	e1bffe15 	stw	r6,-8(fp)
 2011b50:	e1ffff15 	stw	r7,-4(fp)
 2011b54:	e0fffe17 	ldw	r3,-8(fp)
 2011b58:	e0bfff17 	ldw	r2,-4(fp)
 2011b5c:	10c5883a 	add	r2,r2,r3
 2011b60:	e0bffb15 	stw	r2,-20(fp)
 2011b64:	e0c00117 	ldw	r3,4(fp)
 2011b68:	e0800217 	ldw	r2,8(fp)
 2011b6c:	10c5883a 	add	r2,r2,r3
 2011b70:	e0bffa15 	stw	r2,-24(fp)
 2011b74:	e0800117 	ldw	r2,4(fp)
 2011b78:	e0bff915 	stw	r2,-28(fp)
 2011b7c:	e0bffe17 	ldw	r2,-8(fp)
 2011b80:	e0bff815 	stw	r2,-32(fp)
 2011b84:	00800044 	movi	r2,1
 2011b88:	e0bff615 	stw	r2,-40(fp)
 2011b8c:	e0bffc17 	ldw	r2,-16(fp)
 2011b90:	11000504 	addi	r4,r2,20
 2011b94:	e0fffd17 	ldw	r3,-12(fp)
 2011b98:	00800044 	movi	r2,1
 2011b9c:	10c6983a 	sll	r3,r2,r3
 2011ba0:	2005883a 	mov	r2,r4
 2011ba4:	10c00035 	stwio	r3,0(r2)
 2011ba8:	e0800317 	ldw	r2,12(fp)
 2011bac:	1080008c 	andi	r2,r2,2
 2011bb0:	1004c03a 	cmpne	r2,r2,zero
 2011bb4:	1000051e 	bne	r2,zero,2011bcc <alt_avalon_spi_command+0x94>
 2011bb8:	e0bffc17 	ldw	r2,-16(fp)
 2011bbc:	10800304 	addi	r2,r2,12
 2011bc0:	1007883a 	mov	r3,r2
 2011bc4:	00810004 	movi	r2,1024
 2011bc8:	18800035 	stwio	r2,0(r3)
 2011bcc:	e0bffc17 	ldw	r2,-16(fp)
 2011bd0:	10800037 	ldwio	r2,0(r2)
 2011bd4:	00000006 	br	2011bd8 <alt_avalon_spi_command+0xa0>
 2011bd8:	e0bffc17 	ldw	r2,-16(fp)
 2011bdc:	10800204 	addi	r2,r2,8
 2011be0:	10800037 	ldwio	r2,0(r2)
 2011be4:	e0bff715 	stw	r2,-36(fp)
 2011be8:	e0bff717 	ldw	r2,-36(fp)
 2011bec:	1080100c 	andi	r2,r2,64
 2011bf0:	1005003a 	cmpeq	r2,r2,zero
 2011bf4:	1000031e 	bne	r2,zero,2011c04 <alt_avalon_spi_command+0xcc>
 2011bf8:	e0bff617 	ldw	r2,-40(fp)
 2011bfc:	1004c03a 	cmpne	r2,r2,zero
 2011c00:	1000041e 	bne	r2,zero,2011c14 <alt_avalon_spi_command+0xdc>
 2011c04:	e0bff717 	ldw	r2,-36(fp)
 2011c08:	1080200c 	andi	r2,r2,128
 2011c0c:	1005003a 	cmpeq	r2,r2,zero
 2011c10:	103ff11e 	bne	r2,zero,2011bd8 <alt_avalon_spi_command+0xa0>
 2011c14:	e0bff717 	ldw	r2,-36(fp)
 2011c18:	1080100c 	andi	r2,r2,64
 2011c1c:	1005003a 	cmpeq	r2,r2,zero
 2011c20:	1000201e 	bne	r2,zero,2011ca4 <alt_avalon_spi_command+0x16c>
 2011c24:	e0bff617 	ldw	r2,-40(fp)
 2011c28:	10800050 	cmplti	r2,r2,1
 2011c2c:	10001d1e 	bne	r2,zero,2011ca4 <alt_avalon_spi_command+0x16c>
 2011c30:	e0bff617 	ldw	r2,-40(fp)
 2011c34:	10bfffc4 	addi	r2,r2,-1
 2011c38:	e0bff615 	stw	r2,-40(fp)
 2011c3c:	e0ffff17 	ldw	r3,-4(fp)
 2011c40:	e0bffb17 	ldw	r2,-20(fp)
 2011c44:	18800b2e 	bgeu	r3,r2,2011c74 <alt_avalon_spi_command+0x13c>
 2011c48:	e0bffc17 	ldw	r2,-16(fp)
 2011c4c:	11000104 	addi	r4,r2,4
 2011c50:	e0bfff17 	ldw	r2,-4(fp)
 2011c54:	10800003 	ldbu	r2,0(r2)
 2011c58:	10c03fcc 	andi	r3,r2,255
 2011c5c:	e0bfff17 	ldw	r2,-4(fp)
 2011c60:	10800044 	addi	r2,r2,1
 2011c64:	e0bfff15 	stw	r2,-4(fp)
 2011c68:	2005883a 	mov	r2,r4
 2011c6c:	10c00035 	stwio	r3,0(r2)
 2011c70:	00000c06 	br	2011ca4 <alt_avalon_spi_command+0x16c>
 2011c74:	e0bff917 	ldw	r2,-28(fp)
 2011c78:	1005003a 	cmpeq	r2,r2,zero
 2011c7c:	1000071e 	bne	r2,zero,2011c9c <alt_avalon_spi_command+0x164>
 2011c80:	e0bff917 	ldw	r2,-28(fp)
 2011c84:	10bfffc4 	addi	r2,r2,-1
 2011c88:	e0bff915 	stw	r2,-28(fp)
 2011c8c:	e0bffc17 	ldw	r2,-16(fp)
 2011c90:	10800104 	addi	r2,r2,4
 2011c94:	10000035 	stwio	zero,0(r2)
 2011c98:	00000206 	br	2011ca4 <alt_avalon_spi_command+0x16c>
 2011c9c:	00bf0004 	movi	r2,-1024
 2011ca0:	e0bff615 	stw	r2,-40(fp)
 2011ca4:	e0bff717 	ldw	r2,-36(fp)
 2011ca8:	1080200c 	andi	r2,r2,128
 2011cac:	1005003a 	cmpeq	r2,r2,zero
 2011cb0:	103fc91e 	bne	r2,zero,2011bd8 <alt_avalon_spi_command+0xa0>
 2011cb4:	e0bffc17 	ldw	r2,-16(fp)
 2011cb8:	10800037 	ldwio	r2,0(r2)
 2011cbc:	e0bff515 	stw	r2,-44(fp)
 2011cc0:	e0bff817 	ldw	r2,-32(fp)
 2011cc4:	1005003a 	cmpeq	r2,r2,zero
 2011cc8:	1000041e 	bne	r2,zero,2011cdc <alt_avalon_spi_command+0x1a4>
 2011ccc:	e0bff817 	ldw	r2,-32(fp)
 2011cd0:	10bfffc4 	addi	r2,r2,-1
 2011cd4:	e0bff815 	stw	r2,-32(fp)
 2011cd8:	00000706 	br	2011cf8 <alt_avalon_spi_command+0x1c0>
 2011cdc:	e0bff517 	ldw	r2,-44(fp)
 2011ce0:	1007883a 	mov	r3,r2
 2011ce4:	e0800217 	ldw	r2,8(fp)
 2011ce8:	10c00005 	stb	r3,0(r2)
 2011cec:	e0800217 	ldw	r2,8(fp)
 2011cf0:	10800044 	addi	r2,r2,1
 2011cf4:	e0800215 	stw	r2,8(fp)
 2011cf8:	e0bff617 	ldw	r2,-40(fp)
 2011cfc:	10800044 	addi	r2,r2,1
 2011d00:	e0bff615 	stw	r2,-40(fp)
 2011d04:	e0bff817 	ldw	r2,-32(fp)
 2011d08:	1004c03a 	cmpne	r2,r2,zero
 2011d0c:	103fb21e 	bne	r2,zero,2011bd8 <alt_avalon_spi_command+0xa0>
 2011d10:	e0c00217 	ldw	r3,8(fp)
 2011d14:	e0bffa17 	ldw	r2,-24(fp)
 2011d18:	18800126 	beq	r3,r2,2011d20 <alt_avalon_spi_command+0x1e8>
 2011d1c:	003fae06 	br	2011bd8 <alt_avalon_spi_command+0xa0>
 2011d20:	e0bffc17 	ldw	r2,-16(fp)
 2011d24:	10800204 	addi	r2,r2,8
 2011d28:	10800037 	ldwio	r2,0(r2)
 2011d2c:	e0bff715 	stw	r2,-36(fp)
 2011d30:	e0bff717 	ldw	r2,-36(fp)
 2011d34:	1080080c 	andi	r2,r2,32
 2011d38:	1005003a 	cmpeq	r2,r2,zero
 2011d3c:	103ff81e 	bne	r2,zero,2011d20 <alt_avalon_spi_command+0x1e8>
 2011d40:	e0800317 	ldw	r2,12(fp)
 2011d44:	1080004c 	andi	r2,r2,1
 2011d48:	1004c03a 	cmpne	r2,r2,zero
 2011d4c:	1000031e 	bne	r2,zero,2011d5c <alt_avalon_spi_command+0x224>
 2011d50:	e0bffc17 	ldw	r2,-16(fp)
 2011d54:	10800304 	addi	r2,r2,12
 2011d58:	10000035 	stwio	zero,0(r2)
 2011d5c:	e0800117 	ldw	r2,4(fp)
 2011d60:	e037883a 	mov	sp,fp
 2011d64:	df000017 	ldw	fp,0(sp)
 2011d68:	dec00104 	addi	sp,sp,4
 2011d6c:	f800283a 	ret

02011d70 <alt_find_file>:
 2011d70:	defffa04 	addi	sp,sp,-24
 2011d74:	dfc00515 	stw	ra,20(sp)
 2011d78:	df000415 	stw	fp,16(sp)
 2011d7c:	df000404 	addi	fp,sp,16
 2011d80:	e13ffe15 	stw	r4,-8(fp)
 2011d84:	00808074 	movhi	r2,513
 2011d88:	1091c304 	addi	r2,r2,18188
 2011d8c:	10800017 	ldw	r2,0(r2)
 2011d90:	e0bffd15 	stw	r2,-12(fp)
 2011d94:	00003306 	br	2011e64 <alt_find_file+0xf4>
 2011d98:	e0bffd17 	ldw	r2,-12(fp)
 2011d9c:	11000217 	ldw	r4,8(r2)
 2011da0:	20120c00 	call	20120c0 <strlen>
 2011da4:	e0bffc15 	stw	r2,-16(fp)
 2011da8:	e0bffd17 	ldw	r2,-12(fp)
 2011dac:	10c00217 	ldw	r3,8(r2)
 2011db0:	e0bffc17 	ldw	r2,-16(fp)
 2011db4:	1885883a 	add	r2,r3,r2
 2011db8:	10bfffc4 	addi	r2,r2,-1
 2011dbc:	10800003 	ldbu	r2,0(r2)
 2011dc0:	10803fcc 	andi	r2,r2,255
 2011dc4:	1080201c 	xori	r2,r2,128
 2011dc8:	10bfe004 	addi	r2,r2,-128
 2011dcc:	10800bd8 	cmpnei	r2,r2,47
 2011dd0:	1000031e 	bne	r2,zero,2011de0 <alt_find_file+0x70>
 2011dd4:	e0bffc17 	ldw	r2,-16(fp)
 2011dd8:	10bfffc4 	addi	r2,r2,-1
 2011ddc:	e0bffc15 	stw	r2,-16(fp)
 2011de0:	e0bffc17 	ldw	r2,-16(fp)
 2011de4:	1007883a 	mov	r3,r2
 2011de8:	e0bffe17 	ldw	r2,-8(fp)
 2011dec:	1885883a 	add	r2,r3,r2
 2011df0:	10800003 	ldbu	r2,0(r2)
 2011df4:	10803fcc 	andi	r2,r2,255
 2011df8:	1080201c 	xori	r2,r2,128
 2011dfc:	10bfe004 	addi	r2,r2,-128
 2011e00:	10800be0 	cmpeqi	r2,r2,47
 2011e04:	10000a1e 	bne	r2,zero,2011e30 <alt_find_file+0xc0>
 2011e08:	e0bffc17 	ldw	r2,-16(fp)
 2011e0c:	1007883a 	mov	r3,r2
 2011e10:	e0bffe17 	ldw	r2,-8(fp)
 2011e14:	1885883a 	add	r2,r3,r2
 2011e18:	10800003 	ldbu	r2,0(r2)
 2011e1c:	10803fcc 	andi	r2,r2,255
 2011e20:	1080201c 	xori	r2,r2,128
 2011e24:	10bfe004 	addi	r2,r2,-128
 2011e28:	1004c03a 	cmpne	r2,r2,zero
 2011e2c:	10000a1e 	bne	r2,zero,2011e58 <alt_find_file+0xe8>
 2011e30:	e0bffd17 	ldw	r2,-12(fp)
 2011e34:	11000217 	ldw	r4,8(r2)
 2011e38:	e1bffc17 	ldw	r6,-16(fp)
 2011e3c:	e17ffe17 	ldw	r5,-8(fp)
 2011e40:	2011fac0 	call	2011fac <memcmp>
 2011e44:	1004c03a 	cmpne	r2,r2,zero
 2011e48:	1000031e 	bne	r2,zero,2011e58 <alt_find_file+0xe8>
 2011e4c:	e0bffd17 	ldw	r2,-12(fp)
 2011e50:	e0bfff15 	stw	r2,-4(fp)
 2011e54:	00000806 	br	2011e78 <alt_find_file+0x108>
 2011e58:	e0bffd17 	ldw	r2,-12(fp)
 2011e5c:	10800017 	ldw	r2,0(r2)
 2011e60:	e0bffd15 	stw	r2,-12(fp)
 2011e64:	00c08074 	movhi	r3,513
 2011e68:	18d1c304 	addi	r3,r3,18188
 2011e6c:	e0bffd17 	ldw	r2,-12(fp)
 2011e70:	10ffc91e 	bne	r2,r3,2011d98 <alt_find_file+0x28>
 2011e74:	e03fff15 	stw	zero,-4(fp)
 2011e78:	e0bfff17 	ldw	r2,-4(fp)
 2011e7c:	e037883a 	mov	sp,fp
 2011e80:	dfc00117 	ldw	ra,4(sp)
 2011e84:	df000017 	ldw	fp,0(sp)
 2011e88:	dec00204 	addi	sp,sp,8
 2011e8c:	f800283a 	ret

02011e90 <alt_get_fd>:
 2011e90:	defffa04 	addi	sp,sp,-24
 2011e94:	dfc00515 	stw	ra,20(sp)
 2011e98:	df000415 	stw	fp,16(sp)
 2011e9c:	dc000315 	stw	r16,12(sp)
 2011ea0:	df000304 	addi	fp,sp,12
 2011ea4:	e13fff15 	stw	r4,-4(fp)
 2011ea8:	00bffa04 	movi	r2,-24
 2011eac:	e0bffd15 	stw	r2,-12(fp)
 2011eb0:	e03ffe15 	stw	zero,-8(fp)
 2011eb4:	00002006 	br	2011f38 <alt_get_fd+0xa8>
 2011eb8:	e13ffe17 	ldw	r4,-8(fp)
 2011ebc:	04008074 	movhi	r16,513
 2011ec0:	84115004 	addi	r16,r16,17728
 2011ec4:	01400304 	movi	r5,12
 2011ec8:	200d0480 	call	200d048 <__mulsi3>
 2011ecc:	1405883a 	add	r2,r2,r16
 2011ed0:	10800017 	ldw	r2,0(r2)
 2011ed4:	1004c03a 	cmpne	r2,r2,zero
 2011ed8:	1000141e 	bne	r2,zero,2011f2c <alt_get_fd+0x9c>
 2011edc:	e13ffe17 	ldw	r4,-8(fp)
 2011ee0:	04008074 	movhi	r16,513
 2011ee4:	84115004 	addi	r16,r16,17728
 2011ee8:	01400304 	movi	r5,12
 2011eec:	200d0480 	call	200d048 <__mulsi3>
 2011ef0:	1407883a 	add	r3,r2,r16
 2011ef4:	e0bfff17 	ldw	r2,-4(fp)
 2011ef8:	18800015 	stw	r2,0(r3)
 2011efc:	00808074 	movhi	r2,513
 2011f00:	1091c704 	addi	r2,r2,18204
 2011f04:	10c00017 	ldw	r3,0(r2)
 2011f08:	e0bffe17 	ldw	r2,-8(fp)
 2011f0c:	1880040e 	bge	r3,r2,2011f20 <alt_get_fd+0x90>
 2011f10:	00c08074 	movhi	r3,513
 2011f14:	18d1c704 	addi	r3,r3,18204
 2011f18:	e0bffe17 	ldw	r2,-8(fp)
 2011f1c:	18800015 	stw	r2,0(r3)
 2011f20:	e0bffe17 	ldw	r2,-8(fp)
 2011f24:	e0bffd15 	stw	r2,-12(fp)
 2011f28:	00000606 	br	2011f44 <alt_get_fd+0xb4>
 2011f2c:	e0bffe17 	ldw	r2,-8(fp)
 2011f30:	10800044 	addi	r2,r2,1
 2011f34:	e0bffe15 	stw	r2,-8(fp)
 2011f38:	e0bffe17 	ldw	r2,-8(fp)
 2011f3c:	10800810 	cmplti	r2,r2,32
 2011f40:	103fdd1e 	bne	r2,zero,2011eb8 <alt_get_fd+0x28>
 2011f44:	e0bffd17 	ldw	r2,-12(fp)
 2011f48:	e037883a 	mov	sp,fp
 2011f4c:	dfc00217 	ldw	ra,8(sp)
 2011f50:	df000117 	ldw	fp,4(sp)
 2011f54:	dc000017 	ldw	r16,0(sp)
 2011f58:	dec00304 	addi	sp,sp,12
 2011f5c:	f800283a 	ret

02011f60 <atexit>:
 2011f60:	200b883a 	mov	r5,r4
 2011f64:	000d883a 	mov	r6,zero
 2011f68:	0009883a 	mov	r4,zero
 2011f6c:	000f883a 	mov	r7,zero
 2011f70:	20121341 	jmpi	2012134 <__register_exitproc>

02011f74 <exit>:
 2011f74:	defffe04 	addi	sp,sp,-8
 2011f78:	000b883a 	mov	r5,zero
 2011f7c:	dc000015 	stw	r16,0(sp)
 2011f80:	dfc00115 	stw	ra,4(sp)
 2011f84:	2021883a 	mov	r16,r4
 2011f88:	201226c0 	call	201226c <__call_exitprocs>
 2011f8c:	00808074 	movhi	r2,513
 2011f90:	1091bf04 	addi	r2,r2,18172
 2011f94:	11000017 	ldw	r4,0(r2)
 2011f98:	20800f17 	ldw	r2,60(r4)
 2011f9c:	10000126 	beq	r2,zero,2011fa4 <exit+0x30>
 2011fa0:	103ee83a 	callr	r2
 2011fa4:	8009883a 	mov	r4,r16
 2011fa8:	200e6200 	call	200e620 <_exit>

02011fac <memcmp>:
 2011fac:	00c000c4 	movi	r3,3
 2011fb0:	1980032e 	bgeu	r3,r6,2011fc0 <memcmp+0x14>
 2011fb4:	2144b03a 	or	r2,r4,r5
 2011fb8:	10c4703a 	and	r2,r2,r3
 2011fbc:	10000f26 	beq	r2,zero,2011ffc <memcmp+0x50>
 2011fc0:	31ffffc4 	addi	r7,r6,-1
 2011fc4:	3000061e 	bne	r6,zero,2011fe0 <memcmp+0x34>
 2011fc8:	00000a06 	br	2011ff4 <memcmp+0x48>
 2011fcc:	39ffffc4 	addi	r7,r7,-1
 2011fd0:	00bfffc4 	movi	r2,-1
 2011fd4:	21000044 	addi	r4,r4,1
 2011fd8:	29400044 	addi	r5,r5,1
 2011fdc:	38800526 	beq	r7,r2,2011ff4 <memcmp+0x48>
 2011fe0:	20c00003 	ldbu	r3,0(r4)
 2011fe4:	28800003 	ldbu	r2,0(r5)
 2011fe8:	18bff826 	beq	r3,r2,2011fcc <memcmp+0x20>
 2011fec:	1885c83a 	sub	r2,r3,r2
 2011ff0:	f800283a 	ret
 2011ff4:	0005883a 	mov	r2,zero
 2011ff8:	f800283a 	ret
 2011ffc:	180f883a 	mov	r7,r3
 2012000:	20c00017 	ldw	r3,0(r4)
 2012004:	28800017 	ldw	r2,0(r5)
 2012008:	18bfed1e 	bne	r3,r2,2011fc0 <memcmp+0x14>
 201200c:	31bfff04 	addi	r6,r6,-4
 2012010:	21000104 	addi	r4,r4,4
 2012014:	29400104 	addi	r5,r5,4
 2012018:	39bff936 	bltu	r7,r6,2012000 <memcmp+0x54>
 201201c:	003fe806 	br	2011fc0 <memcmp+0x14>

02012020 <memcpy>:
 2012020:	01c003c4 	movi	r7,15
 2012024:	2007883a 	mov	r3,r4
 2012028:	3980032e 	bgeu	r7,r6,2012038 <memcpy+0x18>
 201202c:	2904b03a 	or	r2,r5,r4
 2012030:	108000cc 	andi	r2,r2,3
 2012034:	10000926 	beq	r2,zero,201205c <memcpy+0x3c>
 2012038:	30000626 	beq	r6,zero,2012054 <memcpy+0x34>
 201203c:	30cd883a 	add	r6,r6,r3
 2012040:	28800003 	ldbu	r2,0(r5)
 2012044:	29400044 	addi	r5,r5,1
 2012048:	18800005 	stb	r2,0(r3)
 201204c:	18c00044 	addi	r3,r3,1
 2012050:	30fffb1e 	bne	r6,r3,2012040 <memcpy+0x20>
 2012054:	2005883a 	mov	r2,r4
 2012058:	f800283a 	ret
 201205c:	3811883a 	mov	r8,r7
 2012060:	200f883a 	mov	r7,r4
 2012064:	28c00017 	ldw	r3,0(r5)
 2012068:	31bffc04 	addi	r6,r6,-16
 201206c:	38c00015 	stw	r3,0(r7)
 2012070:	28800117 	ldw	r2,4(r5)
 2012074:	38800115 	stw	r2,4(r7)
 2012078:	28c00217 	ldw	r3,8(r5)
 201207c:	38c00215 	stw	r3,8(r7)
 2012080:	28800317 	ldw	r2,12(r5)
 2012084:	29400404 	addi	r5,r5,16
 2012088:	38800315 	stw	r2,12(r7)
 201208c:	39c00404 	addi	r7,r7,16
 2012090:	41bff436 	bltu	r8,r6,2012064 <memcpy+0x44>
 2012094:	008000c4 	movi	r2,3
 2012098:	1180072e 	bgeu	r2,r6,20120b8 <memcpy+0x98>
 201209c:	1007883a 	mov	r3,r2
 20120a0:	28800017 	ldw	r2,0(r5)
 20120a4:	31bfff04 	addi	r6,r6,-4
 20120a8:	29400104 	addi	r5,r5,4
 20120ac:	38800015 	stw	r2,0(r7)
 20120b0:	39c00104 	addi	r7,r7,4
 20120b4:	19bffa36 	bltu	r3,r6,20120a0 <memcpy+0x80>
 20120b8:	3807883a 	mov	r3,r7
 20120bc:	003fde06 	br	2012038 <memcpy+0x18>

020120c0 <strlen>:
 20120c0:	208000cc 	andi	r2,r4,3
 20120c4:	2011883a 	mov	r8,r4
 20120c8:	1000161e 	bne	r2,zero,2012124 <strlen+0x64>
 20120cc:	20c00017 	ldw	r3,0(r4)
 20120d0:	017fbff4 	movhi	r5,65279
 20120d4:	297fbfc4 	addi	r5,r5,-257
 20120d8:	01e02074 	movhi	r7,32897
 20120dc:	39e02004 	addi	r7,r7,-32640
 20120e0:	1945883a 	add	r2,r3,r5
 20120e4:	11c4703a 	and	r2,r2,r7
 20120e8:	00c6303a 	nor	r3,zero,r3
 20120ec:	1886703a 	and	r3,r3,r2
 20120f0:	18000c1e 	bne	r3,zero,2012124 <strlen+0x64>
 20120f4:	280d883a 	mov	r6,r5
 20120f8:	380b883a 	mov	r5,r7
 20120fc:	21000104 	addi	r4,r4,4
 2012100:	20800017 	ldw	r2,0(r4)
 2012104:	1187883a 	add	r3,r2,r6
 2012108:	1946703a 	and	r3,r3,r5
 201210c:	0084303a 	nor	r2,zero,r2
 2012110:	10c4703a 	and	r2,r2,r3
 2012114:	103ff926 	beq	r2,zero,20120fc <strlen+0x3c>
 2012118:	20800007 	ldb	r2,0(r4)
 201211c:	10000326 	beq	r2,zero,201212c <strlen+0x6c>
 2012120:	21000044 	addi	r4,r4,1
 2012124:	20800007 	ldb	r2,0(r4)
 2012128:	103ffd1e 	bne	r2,zero,2012120 <strlen+0x60>
 201212c:	2205c83a 	sub	r2,r4,r8
 2012130:	f800283a 	ret

02012134 <__register_exitproc>:
 2012134:	defffa04 	addi	sp,sp,-24
 2012138:	00808074 	movhi	r2,513
 201213c:	1091bf04 	addi	r2,r2,18172
 2012140:	dc000015 	stw	r16,0(sp)
 2012144:	14000017 	ldw	r16,0(r2)
 2012148:	dd000415 	stw	r20,16(sp)
 201214c:	2829883a 	mov	r20,r5
 2012150:	81405217 	ldw	r5,328(r16)
 2012154:	dcc00315 	stw	r19,12(sp)
 2012158:	dc800215 	stw	r18,8(sp)
 201215c:	dc400115 	stw	r17,4(sp)
 2012160:	dfc00515 	stw	ra,20(sp)
 2012164:	2023883a 	mov	r17,r4
 2012168:	3027883a 	mov	r19,r6
 201216c:	3825883a 	mov	r18,r7
 2012170:	28002526 	beq	r5,zero,2012208 <__register_exitproc+0xd4>
 2012174:	29000117 	ldw	r4,4(r5)
 2012178:	008007c4 	movi	r2,31
 201217c:	11002716 	blt	r2,r4,201221c <__register_exitproc+0xe8>
 2012180:	8800101e 	bne	r17,zero,20121c4 <__register_exitproc+0x90>
 2012184:	2105883a 	add	r2,r4,r4
 2012188:	1085883a 	add	r2,r2,r2
 201218c:	20c00044 	addi	r3,r4,1
 2012190:	1145883a 	add	r2,r2,r5
 2012194:	0009883a 	mov	r4,zero
 2012198:	15000215 	stw	r20,8(r2)
 201219c:	28c00115 	stw	r3,4(r5)
 20121a0:	2005883a 	mov	r2,r4
 20121a4:	dfc00517 	ldw	ra,20(sp)
 20121a8:	dd000417 	ldw	r20,16(sp)
 20121ac:	dcc00317 	ldw	r19,12(sp)
 20121b0:	dc800217 	ldw	r18,8(sp)
 20121b4:	dc400117 	ldw	r17,4(sp)
 20121b8:	dc000017 	ldw	r16,0(sp)
 20121bc:	dec00604 	addi	sp,sp,24
 20121c0:	f800283a 	ret
 20121c4:	29802204 	addi	r6,r5,136
 20121c8:	00800044 	movi	r2,1
 20121cc:	110e983a 	sll	r7,r2,r4
 20121d0:	30c04017 	ldw	r3,256(r6)
 20121d4:	2105883a 	add	r2,r4,r4
 20121d8:	1085883a 	add	r2,r2,r2
 20121dc:	1185883a 	add	r2,r2,r6
 20121e0:	19c6b03a 	or	r3,r3,r7
 20121e4:	14802015 	stw	r18,128(r2)
 20121e8:	14c00015 	stw	r19,0(r2)
 20121ec:	00800084 	movi	r2,2
 20121f0:	30c04015 	stw	r3,256(r6)
 20121f4:	88bfe31e 	bne	r17,r2,2012184 <__register_exitproc+0x50>
 20121f8:	30804117 	ldw	r2,260(r6)
 20121fc:	11c4b03a 	or	r2,r2,r7
 2012200:	30804115 	stw	r2,260(r6)
 2012204:	003fdf06 	br	2012184 <__register_exitproc+0x50>
 2012208:	00808074 	movhi	r2,513
 201220c:	109b0b04 	addi	r2,r2,27692
 2012210:	100b883a 	mov	r5,r2
 2012214:	80805215 	stw	r2,328(r16)
 2012218:	003fd606 	br	2012174 <__register_exitproc+0x40>
 201221c:	00808074 	movhi	r2,513
 2012220:	10b57d04 	addi	r2,r2,-10764
 2012224:	1000021e 	bne	r2,zero,2012230 <__register_exitproc+0xfc>
 2012228:	013fffc4 	movi	r4,-1
 201222c:	003fdc06 	br	20121a0 <__register_exitproc+0x6c>
 2012230:	01006404 	movi	r4,400
 2012234:	103ee83a 	callr	r2
 2012238:	1007883a 	mov	r3,r2
 201223c:	103ffa26 	beq	r2,zero,2012228 <__register_exitproc+0xf4>
 2012240:	80805217 	ldw	r2,328(r16)
 2012244:	180b883a 	mov	r5,r3
 2012248:	18000115 	stw	zero,4(r3)
 201224c:	18800015 	stw	r2,0(r3)
 2012250:	80c05215 	stw	r3,328(r16)
 2012254:	18006215 	stw	zero,392(r3)
 2012258:	18006315 	stw	zero,396(r3)
 201225c:	0009883a 	mov	r4,zero
 2012260:	883fc826 	beq	r17,zero,2012184 <__register_exitproc+0x50>
 2012264:	003fd706 	br	20121c4 <__register_exitproc+0x90>

02012268 <register_fini>:
 2012268:	f800283a 	ret

0201226c <__call_exitprocs>:
 201226c:	00808074 	movhi	r2,513
 2012270:	1091bf04 	addi	r2,r2,18172
 2012274:	10800017 	ldw	r2,0(r2)
 2012278:	defff304 	addi	sp,sp,-52
 201227c:	df000b15 	stw	fp,44(sp)
 2012280:	d8800115 	stw	r2,4(sp)
 2012284:	00808074 	movhi	r2,513
 2012288:	10b57804 	addi	r2,r2,-10784
 201228c:	1005003a 	cmpeq	r2,r2,zero
 2012290:	d8800215 	stw	r2,8(sp)
 2012294:	d8800117 	ldw	r2,4(sp)
 2012298:	dd400815 	stw	r21,32(sp)
 201229c:	dd000715 	stw	r20,28(sp)
 20122a0:	10805204 	addi	r2,r2,328
 20122a4:	dfc00c15 	stw	ra,48(sp)
 20122a8:	ddc00a15 	stw	r23,40(sp)
 20122ac:	dd800915 	stw	r22,36(sp)
 20122b0:	dcc00615 	stw	r19,24(sp)
 20122b4:	dc800515 	stw	r18,20(sp)
 20122b8:	dc400415 	stw	r17,16(sp)
 20122bc:	dc000315 	stw	r16,12(sp)
 20122c0:	282b883a 	mov	r21,r5
 20122c4:	2039883a 	mov	fp,r4
 20122c8:	d8800015 	stw	r2,0(sp)
 20122cc:	2829003a 	cmpeq	r20,r5,zero
 20122d0:	d8800117 	ldw	r2,4(sp)
 20122d4:	14405217 	ldw	r17,328(r2)
 20122d8:	88001026 	beq	r17,zero,201231c <__call_exitprocs+0xb0>
 20122dc:	ddc00017 	ldw	r23,0(sp)
 20122e0:	88800117 	ldw	r2,4(r17)
 20122e4:	8c802204 	addi	r18,r17,136
 20122e8:	143fffc4 	addi	r16,r2,-1
 20122ec:	80000916 	blt	r16,zero,2012314 <__call_exitprocs+0xa8>
 20122f0:	05bfffc4 	movi	r22,-1
 20122f4:	a000151e 	bne	r20,zero,201234c <__call_exitprocs+0xe0>
 20122f8:	8409883a 	add	r4,r16,r16
 20122fc:	2105883a 	add	r2,r4,r4
 2012300:	1485883a 	add	r2,r2,r18
 2012304:	10c02017 	ldw	r3,128(r2)
 2012308:	a8c01126 	beq	r21,r3,2012350 <__call_exitprocs+0xe4>
 201230c:	843fffc4 	addi	r16,r16,-1
 2012310:	85bff81e 	bne	r16,r22,20122f4 <__call_exitprocs+0x88>
 2012314:	d8800217 	ldw	r2,8(sp)
 2012318:	10003126 	beq	r2,zero,20123e0 <__call_exitprocs+0x174>
 201231c:	dfc00c17 	ldw	ra,48(sp)
 2012320:	df000b17 	ldw	fp,44(sp)
 2012324:	ddc00a17 	ldw	r23,40(sp)
 2012328:	dd800917 	ldw	r22,36(sp)
 201232c:	dd400817 	ldw	r21,32(sp)
 2012330:	dd000717 	ldw	r20,28(sp)
 2012334:	dcc00617 	ldw	r19,24(sp)
 2012338:	dc800517 	ldw	r18,20(sp)
 201233c:	dc400417 	ldw	r17,16(sp)
 2012340:	dc000317 	ldw	r16,12(sp)
 2012344:	dec00d04 	addi	sp,sp,52
 2012348:	f800283a 	ret
 201234c:	8409883a 	add	r4,r16,r16
 2012350:	88c00117 	ldw	r3,4(r17)
 2012354:	2105883a 	add	r2,r4,r4
 2012358:	1445883a 	add	r2,r2,r17
 201235c:	18ffffc4 	addi	r3,r3,-1
 2012360:	11800217 	ldw	r6,8(r2)
 2012364:	1c001526 	beq	r3,r16,20123bc <__call_exitprocs+0x150>
 2012368:	10000215 	stw	zero,8(r2)
 201236c:	303fe726 	beq	r6,zero,201230c <__call_exitprocs+0xa0>
 2012370:	00c00044 	movi	r3,1
 2012374:	1c06983a 	sll	r3,r3,r16
 2012378:	90804017 	ldw	r2,256(r18)
 201237c:	8cc00117 	ldw	r19,4(r17)
 2012380:	1884703a 	and	r2,r3,r2
 2012384:	10001426 	beq	r2,zero,20123d8 <__call_exitprocs+0x16c>
 2012388:	90804117 	ldw	r2,260(r18)
 201238c:	1884703a 	and	r2,r3,r2
 2012390:	10000c1e 	bne	r2,zero,20123c4 <__call_exitprocs+0x158>
 2012394:	2105883a 	add	r2,r4,r4
 2012398:	1485883a 	add	r2,r2,r18
 201239c:	11400017 	ldw	r5,0(r2)
 20123a0:	e009883a 	mov	r4,fp
 20123a4:	303ee83a 	callr	r6
 20123a8:	88800117 	ldw	r2,4(r17)
 20123ac:	98bfc81e 	bne	r19,r2,20122d0 <__call_exitprocs+0x64>
 20123b0:	b8800017 	ldw	r2,0(r23)
 20123b4:	147fd526 	beq	r2,r17,201230c <__call_exitprocs+0xa0>
 20123b8:	003fc506 	br	20122d0 <__call_exitprocs+0x64>
 20123bc:	8c000115 	stw	r16,4(r17)
 20123c0:	003fea06 	br	201236c <__call_exitprocs+0x100>
 20123c4:	2105883a 	add	r2,r4,r4
 20123c8:	1485883a 	add	r2,r2,r18
 20123cc:	11000017 	ldw	r4,0(r2)
 20123d0:	303ee83a 	callr	r6
 20123d4:	003ff406 	br	20123a8 <__call_exitprocs+0x13c>
 20123d8:	303ee83a 	callr	r6
 20123dc:	003ff206 	br	20123a8 <__call_exitprocs+0x13c>
 20123e0:	88800117 	ldw	r2,4(r17)
 20123e4:	1000081e 	bne	r2,zero,2012408 <__call_exitprocs+0x19c>
 20123e8:	89000017 	ldw	r4,0(r17)
 20123ec:	20000726 	beq	r4,zero,201240c <__call_exitprocs+0x1a0>
 20123f0:	b9000015 	stw	r4,0(r23)
 20123f4:	8809883a 	mov	r4,r17
 20123f8:	200d5e00 	call	200d5e0 <free>
 20123fc:	bc400017 	ldw	r17,0(r23)
 2012400:	883fb71e 	bne	r17,zero,20122e0 <__call_exitprocs+0x74>
 2012404:	003fc506 	br	201231c <__call_exitprocs+0xb0>
 2012408:	89000017 	ldw	r4,0(r17)
 201240c:	882f883a 	mov	r23,r17
 2012410:	2023883a 	mov	r17,r4
 2012414:	883fb21e 	bne	r17,zero,20122e0 <__call_exitprocs+0x74>
 2012418:	003fc006 	br	201231c <__call_exitprocs+0xb0>
 201241c:	0401ffff 	0x401ffff
 2012420:	00010000 	call	1000 <__alt_mem_sdram-0x1fff000>
 2012424:	0201ffff 	0x201ffff
 2012428:	ffff0000 	call	ffff000 <__alt_data_end+0xbfff000>
 201242c:	00000601 	jmpi	60 <__alt_mem_sdram-0x1ffffa0>
 2012430:	00020001 	jmpi	2000 <__alt_mem_sdram-0x1ffe000>
 2012434:	0201ffff 	0x201ffff
 2012438:	ffff0000 	call	ffff000 <__alt_data_end+0xbfff000>
 201243c:	00000201 	jmpi	20 <__alt_mem_sdram-0x1ffffe0>
 2012440:	0201ffff 	0x201ffff
 2012444:	ffff0000 	call	ffff000 <__alt_data_end+0xbfff000>
 2012448:	00000201 	jmpi	20 <__alt_mem_sdram-0x1ffffe0>
 201244c:	0201ffff 	0x201ffff
 2012450:	ffff0000 	call	ffff000 <__alt_data_end+0xbfff000>
 2012454:	00000201 	jmpi	20 <__alt_mem_sdram-0x1ffffe0>
 2012458:	0201ffff 	0x201ffff
 201245c:	ffff0000 	call	ffff000 <__alt_data_end+0xbfff000>
 2012460:	00000201 	jmpi	20 <__alt_mem_sdram-0x1ffffe0>
 2012464:	0201ffff 	0x201ffff
 2012468:	ffff0000 	call	ffff000 <__alt_data_end+0xbfff000>
 201246c:	00000201 	jmpi	20 <__alt_mem_sdram-0x1ffffe0>
 2012470:	0201ffff 	0x201ffff
 2012474:	ffff0000 	call	ffff000 <__alt_data_end+0xbfff000>
 2012478:	00000201 	jmpi	20 <__alt_mem_sdram-0x1ffffe0>
 201247c:	0201ffff 	0x201ffff
 2012480:	ffff0000 	call	ffff000 <__alt_data_end+0xbfff000>
 2012484:	00000201 	jmpi	20 <__alt_mem_sdram-0x1ffffe0>
 2012488:	0201ffff 	0x201ffff
 201248c:	ffff0000 	call	ffff000 <__alt_data_end+0xbfff000>
 2012490:	00000201 	jmpi	20 <__alt_mem_sdram-0x1ffffe0>
 2012494:	0201ffff 	0x201ffff
 2012498:	ffff0000 	call	ffff000 <__alt_data_end+0xbfff000>
 201249c:	00000201 	jmpi	20 <__alt_mem_sdram-0x1ffffe0>
 20124a0:	0201ffff 	0x201ffff
 20124a4:	ffff0000 	call	ffff000 <__alt_data_end+0xbfff000>
 20124a8:	00000201 	jmpi	20 <__alt_mem_sdram-0x1ffffe0>
 20124ac:	0201ffff 	0x201ffff
 20124b0:	ffff0000 	call	ffff000 <__alt_data_end+0xbfff000>
 20124b4:	00000201 	jmpi	20 <__alt_mem_sdram-0x1ffffe0>
 20124b8:	0201ffff 	0x201ffff
 20124bc:	ffff0000 	call	ffff000 <__alt_data_end+0xbfff000>
 20124c0:	00001801 	jmpi	180 <__alt_mem_sdram-0x1fffe80>
 20124c4:	00020001 	jmpi	2000 <__alt_mem_sdram-0x1ffe000>
 20124c8:	00040003 	ldbu	zero,4096(zero)
 20124cc:	00060005 	stb	zero,6144(zero)
 20124d0:	00080007 	ldb	zero,8192(zero)
 20124d4:	000a0009 	0xa0009
 20124d8:	ffff000b 	ldhu	ra,-1024(ra)
 20124dc:	00000201 	jmpi	20 <__alt_mem_sdram-0x1ffffe0>
 20124e0:	0201ffff 	0x201ffff
 20124e4:	ffff0000 	call	ffff000 <__alt_data_end+0xbfff000>
 20124e8:	00000201 	jmpi	20 <__alt_mem_sdram-0x1ffffe0>
 20124ec:	0201ffff 	0x201ffff
 20124f0:	ffff0000 	call	ffff000 <__alt_data_end+0xbfff000>
 20124f4:	00000201 	jmpi	20 <__alt_mem_sdram-0x1ffffe0>
 20124f8:	0201ffff 	0x201ffff
 20124fc:	ffff0000 	call	ffff000 <__alt_data_end+0xbfff000>
 2012500:	00000201 	jmpi	20 <__alt_mem_sdram-0x1ffffe0>
 2012504:	0201ffff 	0x201ffff
 2012508:	ffff0000 	call	ffff000 <__alt_data_end+0xbfff000>
 201250c:	00000201 	jmpi	20 <__alt_mem_sdram-0x1ffffe0>
 2012510:	0201ffff 	0x201ffff
 2012514:	ffff0000 	call	ffff000 <__alt_data_end+0xbfff000>
 2012518:	00000201 	jmpi	20 <__alt_mem_sdram-0x1ffffe0>
 201251c:	0201ffff 	0x201ffff
 2012520:	ffff0000 	call	ffff000 <__alt_data_end+0xbfff000>
 2012524:	00000201 	jmpi	20 <__alt_mem_sdram-0x1ffffe0>
 2012528:	0201ffff 	0x201ffff
 201252c:	ffff0000 	call	ffff000 <__alt_data_end+0xbfff000>
 2012530:	00000201 	jmpi	20 <__alt_mem_sdram-0x1ffffe0>
 2012534:	0201ffff 	0x201ffff
 2012538:	883a0000 	call	883a000 <__alt_data_end+0x483a000>
 201253c:	010d0bff 	0x10d0bff
 2012540:	01000004 	movi	r4,0
 2012544:	00000101 	jmpi	10 <__alt_mem_sdram-0x1fffff0>
 2012548:	00000000 	call	0 <__alt_mem_sdram-0x2000000>
 201254c:	010d0bff 	0x10d0bff
 2012550:	01000004 	movi	r4,0
 2012554:	00000101 	jmpi	10 <__alt_mem_sdram-0x1fffff0>
 2012558:	00000000 	call	0 <__alt_mem_sdram-0x2000000>
 201255c:	010d0bff 	0x10d0bff
 2012560:	7f010002 	0x7f010002
 2012564:	00000000 	call	0 <__alt_mem_sdram-0x2000000>
 2012568:	02012a68 	cmpgeui	r8,zero,1193
 201256c:	00000001 	jmpi	0 <__alt_mem_sdram-0x2000000>
 2012570:	01090bff 	0x1090bff
 2012574:	7f010002 	0x7f010002
	...
 2012580:	010d0bff 	0x10d0bff
 2012584:	01000004 	movi	r4,0
 2012588:	00000101 	jmpi	10 <__alt_mem_sdram-0x1fffff0>
 201258c:	00000000 	call	0 <__alt_mem_sdram-0x2000000>
 2012590:	01090bff 	0x1090bff
 2012594:	7f010002 	0x7f010002
	...
 20125a0:	02012268 	cmpgeui	r8,zero,1161
